# added manually:
428FE0 ??_EMasterProperty@@UAEPAXI@Z
430980 ??_EStringTable@@UAEPAXI@Z
46B410 ??_GUIElement_ColorPicker@@UAEPAXI@Z
46F920 ?Create@UIElement_Meter@@SAPAVUIElement@@ABVLayoutDesc@@ABVElementDesc@@@Z
46B410 ??_EUIElement_Meter@@UAEPAXI@Z
423AA0 ?Copy@Bitfield64PropertyValue@@UBEPAVBasePropertyValue@@XZ
424220 ?Copy@EnumPropertyValue@@UBEPAVBasePropertyValue@@XZ
424620 ?Copy@InstanceIDPropertyValue@@UBEPAVBasePropertyValue@@XZ
4248D0 ?Copy@IntegerPropertyValue@@UBEPAVBasePropertyValue@@XZ
425240 ?Copy@TriStatePropertyValue@@UBEPAVBasePropertyValue@@XZ

# yonneh:
401000 ??_H@YGXPAXIHP6EPAX0@Z@Z
401030 ??_I@YGXPAXIHP6EX0@Z@Z
401070 ?ps_strcpy@@YAPADPADPBD@Z
401090 ?GetPackSize@PackObj@@UBEIXZ
4010A0 ?Release@?$ReferenceCountTemplate@$0BAAAAAAA@$0A@@@QBEKXZ
4010D0 ?AllAreOn@BitUtils@@YA_NKK@Z
4010F0 ?ClientCleanUp@ClientMain@@YAXPAVClient@@@Z
401120 ?ConfigureFPU@ClientMain@@YAXXZ
401160 ?ConstructClassObjectEx@?$@VClient@@VInterface@@@@YAPAVClient@@ABUTurbine_GUID@@@Z
4011B0 ??1?$PStringBase@D@@QAE@XZ
4011E0 ??_E?$PStringBase@D@AC1Legacy@@QAEPAXI@Z
401280 ?allocate_ref_buffer@?$PStringBase@D@@IAE_NI@Z
401340 ??0?$PStringBase@D@@QAE@PBD@Z
4013A0 _WinMain@16
401590 ?SerializeBytes@Serializer@@YAXPAEIAAVArchive@@@Z
4015E0 ?RecvNotice_ServerSaysMoveItem@NoticeHandler@@UAEXKKKKKHKK@Z
4015F0 ?RecvNotice_DisplayFinalStringInfo@NoticeHandler@@UAEXKABVStringInfo@@0K@Z
401600 ??0TransientArchive@@QAE@W4tagPacking@Archive@@@Z
401660 ?SetCheckpointing@TransientArchive@@UAEX_N@Z
401670 ?InitForPacking@TransientArchive@@UAEXABVSmartBuffer@@@Z
401690 ?InitForUnpacking@TransientArchive@@UAEXABVSmartBuffer@@@Z
4016B0 ?compute_str_hash@@YAKPBD@Z
401700 ?set@?$PStringBase@D@@QAEXABV1@@Z
401750 ?GetRegistry@GlobalRegistry@@SAAAVGlobalRegistryInstance@@XZ
401780 ?Disconnect@gmClient@@UAE_NXZ
401790 ?OnDDDEvent@gmClient@@UAEXW4DDDEvent@@I@Z
4017C0 ?UseTime@gmClient@@MAE_NXZ
4017E0 ?DetachUIPreferences@gmClient@@QAEXXZ
401900 ?GRPCallback_OnFontPreferenceChanged@gmClient@@KAXABV?$PStringBase@D@@@Z
401920 ??8?$PStringBase@D@@QBE_NABV0@@Z
4019A0 ?SerializeObject@Serializer@@YAXAAEAAVArchive@@@Z
4019E0 ?SerializeObject@Serializer@@YAXAAGAAVArchive@@@Z
401A20 ?Tokenize@@YAKPBD@Z
401A40 ??0?$PStringBase@D@@QAE@XZ
401A60 ??0?$PStringBase@G@@QAE@XZ
401A80 ?Serialize@SB_As32Bit_Compressed@@SAXABHAAKAAVArchive@@@Z
401BF0 ?IUnknown_QueryInterface@Interface@@MAGJABU_GUID@@PAPAX@Z
401C10 ?IUnknown_AddRef@Interface@@MAGKXZ
401C20 ?IUnknown_Release@Interface@@MAGKXZ
401C30 ??_GTurbine_RefCount@@UAEPAXI@Z
401C50 ??1gmClient@@MAE@XZ
401D80 ?OnPluggedIn@CPluginPrototype@@MAEXPAVCPluginManager@@@Z
401D90 ?GetAccountName@Client@@UAEAAVaccountID@@XZ
401DA0 ?GetHostName@Client@@UBEABV?$PStringBase@D@@XZ
401DB0 ?GetSpellbookFilters@PlayerModule@@QBEKXZ
401DC0 ?SetPortA@Client@@UAEXJ@Z
401DD0 ?GetWorldName@Client@@UBEABV?$PStringBase@G@@XZ
401DE0 ??_EgmClient@@O7AEPAXI@Z
401DF0 ??_EgmClient@@OM@AEPAXI@Z
401E00 ?QueryInterface@Client@@UAE?AVTResult@@ABUTurbine_GUID@@PAPAX@Z
401E60 ?AddRef@Client@@UBEKXZ
401E70 ?Release@Client@@UBEKXZ
401EA0 ?Release@?$ReferenceCountTemplate@$0BAAAAA@$01@@QBEKXZ
401EC0 ?Cleanup@gmClient@@UAEXXZ
402000 ?Connect@gmClient@@UAE?AVNetError@@XZ
402020 ?SetKeyMapFileName@gmClient@@QAEXABV?$PStringBase@D@@@Z
402070 ??4?$PStringBase@G@@QAEAAV0@ABV0@@Z
4020C0 ??1?$SmartArray@PAD$00@@QAE@XZ
4020E0 ?RegisterPreference@UserPreferences@@SEXPAV?$PStringBase@D@@ABV2@1P6AX1@ZKPBV2@PBK@Z
402160 ?RegisterPreference@UserPreferences@@SEXPAKABV?$PStringBase@D@@1P6AX1@ZKPBV2@PBK@Z
4021E0 ?SetHostName@Client@@UAEXABV?$PStringBase@D@@@Z
402230 ?SetWorldName@Client@@UAEXABV?$PStringBase@G@@@Z
402280 ??1CommandLineArg@@QAE@XZ
4022D0 ?allocate_ref_buffer@?$PStringBase@G@@IAE_NI@Z
402390 ?vsprintf@?$PStringBase@D@@QAEJPBDPAD@Z
402400 ?Serialize@?$PStringBase@D@@QAEXAAVArchive@@@Z
402490 ?append_n_chars@?$PStringBase@G@@QAEXPBGI@Z
402520 ?vsprintf@?$PStringBase@G@@QAEJPBGPAD@Z
402590 ?QueryInterface@ClassFactoryForceClient_ClassType@@UAE?AVTResult@@ABUTurbine_GUID@@PAPAX@Z
402620 ?AddRef@?$RefCountInterface@VGlobalRegistryCommands@@@@UBEKXZ
402630 ??_GgmClient@@MAEPAXI@Z
402660 ?AddCmd@CommandLineArgList@ArgumentParser@@QAE_NHDABV?$PStringBase@D@@0PAXKK@Z
402710 ?sprintf@?$PStringBase@D@@QAAJPBDZZ
402730 ??0?$PStringBase@G@@QAE@PBG@Z
402790 ?append_string@?$PStringBase@G@@QAEXABV1@@Z
4027B0 ?sprintf@?$PStringBase@G@@QAAJPBGZZ
402810 ??0gmClient@@QAE@XZ
402A90 ?BuildCommandLineArgs@gmClient@@UAEXAAVCommandLineArgList@ArgumentParser@@@Z
402DF0 ?EvaluateCommandLineArg@gmClient@@UAE_NABUCommandLineArg@@ABV?$PStringBase@D@@@Z
402F60 ?OnCommandLineEvaluationDone@gmClient@@UAE_NXZ
402FE0 ?InitKeymap@gmClient@@UAE_NABV?$PStringBase@D@@@Z
403170 ?InitPreferences@gmClient@@MAE_NXZ
403270 ?InitAuth@gmClient@@MAE_NXZ
403350 ?to_wpstring@?$PStringBase@D@@QBE?AV?$PStringBase@G@@G@Z
403490 Client::SetAccountName
4034C0 ?set@?$PStringBase@D@AC1Legacy@@QAEXPBD@Z
403560 ?allocate_ref_buffer@?$PStringBase@D@AC1Legacy@@IAEXI@Z
4035E0 ??_G?$PSRefBuffer@G@AC1Legacy@@UAEPAXI@Z
403600 ?CreateInstance@ClassFactoryForceClient_ClassType@@UAE?AVTResult@@PAVInterface@@ABUTurbine_GUID@@PAPAX@Z
4036D0 ?_QueryInterface@?$InterfacePtr@VInterface@@@@AAE?AVTResult@@PAVgmClient@@@Z
403770 ??4?$InterfacePtr@VInterface@@@@QAEAAV0@PAVInterface@@@Z
4037B0 ?InitUIPreferences@gmClient@@QAEXXZ
4049A0 ?Init@gmClient@@UAE_NABV?$PStringBase@D@@JJ@Z
404A40 ??0?$PStringBase@G@@QAE@W4_WidthConvert@@PBD@Z
404AE0 ?RecvNotice_WorldName@gmClient@@UAEXABV?$PStringBase@D@AC1Legacy@@@Z
404B40 ?cmp@?$PStringBase@D@@QBEJABV1@_N@Z
404BA0 ?_S_chunk_alloc@?$__node_alloc@$00$0A@@_STL@@CAPADIAAH@Z
404CD0 ?clear@?$PStringBase@D@@QAEXXZ
404D20 ?eq@?$PStringBase@D@@QBE_NABV1@_N@Z
404D40 ?find_substring@?$PStringBase@D@@QBEJABV1@@Z
404D70 ?to_uint32@?$PStringBase@D@@QBEKXZ
404D90 ?_M_do_lock@?$_STLP_mutex_spin@$0A@@_STL@@SAXPCJ@Z
404E80 ?_S_refill@?$__node_alloc@$00$0A@@_STL@@CAPAXI@Z
404EF0 ?append_n_chars@?$PStringBase@D@@QAEXPBDI@Z
404F80 ?substring@?$PStringBase@D@@QBE?AV1@KK@Z
405000 ?set@?$PStringBase@D@@QAEXPBD@Z
4050D0 ?_M_allocate@?$__node_alloc@$00$0A@@_STL@@CAPAXI@Z
405120 ?pop_front@?$List@V?$PStringBase@D@@@@QAE_NAAV?$PStringBase@D@@@Z
4051C0 ?deallocate@?$__node_alloc@$00$0A@@_STL@@SAXPAXI@Z
405210 ?flush@?$List@V?$PStringBase@D@@@@QAEXXZ
405270 ??_E?$List@V?$PStringBase@D@@@@UAEPAXI@Z
4052A0 ?_M_insert_overflow@?$vector@PBDV?$allocator@PBD@_STL@@@_STL@@IAEXPAPBDABQBDABU__true_type@2@I_N@Z
4053A0 ?replace@?$PStringBase@D@@QAEJABV1@0@Z
405560 _kernel32_MultiByteToWideChar_Thunk@0
405585 _GetOrdinal@20
405602 _ImageEntryToDataC@12
40563C _strcmpiC@8
40565F _strncpyC@12
40569E _GetProcAddressInternal@8
405702 _driveandpathC@12
40579D _LoadGodot@0
405A60 _ResolveThunk@20
405BB3 _GodotFailCreateFileW@28
405BC1 _GodotFailFindResourceW@12
405BEA _GodotFailGetEnvironmentVariableW@12
405BF7 _GodotFailGetProcAddress@8
405BFC _GodotFailVerQueryValueW@16
405C09 _GodotFaillstrcatW@8
405C32 _GodotFaillstrlenW@4
405C5B _GodotFailGetCurrentDirectoryW@8
405C68 _GodotFailMultiByteToWideChar@24
405C96 _GodotFailWideCharToMultiByte@32
405CC4 _GodotFailGetClipboardData@4
405CED _GodotFailIsClipboardFormatAvailable@4
405D16 _GodotFailMessageBoxW@16
405D3F _GodotFailSetWindowLongA@12
405D68 _GodotFailwsprintfW
405D81 _GodotFailExtTextOutW@32
405DAF _GodotFailGetCharacterPlacementW@24
405DBC _GodotFailRegCreateKeyExW@36
405DC2 _GodotFailRegEnumValueW@32
405DC8 _GodotFailRegOpenKeyExW@20
405DCE _GodotFailRegQueryValueExW@24
405DE0 ?CreateAndRunDebugWorkerThread@@YA_NP6GKPAX@ZPAUDebugWorkerThreadData@@@Z
405E60 ?SetDebugFlags@Debug@Turbine@@SAXK_N@Z
405E80 ?GetDebugFlags@Debug@Turbine@@SAKXZ
405E90 ?IsDebugFlagSet@Debug@Turbine@@SA_NK@Z
405EB0 ?Abort@Debug@Turbine@@SAXXZ
405ED0 ?ReportException@Debug@Turbine@@KAJPAU_EXCEPTION_POINTERS@@ABVDbgReportContext@@@Z
405F30 ??0Debug@Turbine@@QAE@XZ
405F40 ??1Debug@Turbine@@QAE@XZ
405F70 ?Release@?$ReferenceCountTemplate@$0BAAAAA@$0A@@@QBEKXZ
405FA0 ?SetFloatingPointException@Debug@Turbine@@SAK_NK@Z
405FF0 ?ExceptionFilterThread@ProtectedDebug@@SGKPAX@Z
406020 ?RunInBackupStack@@YAJPAU_EXCEPTION_POINTERS@@@Z
4060A0 ?TurbineExceptionFilter@Debug@Turbine@@KGJPAU_EXCEPTION_POINTERS@@@Z
406220 ?InitCommon@Debug@Turbine@@IAE_NXZ
406280 ?InitDebug@Debug@Turbine@@MAE_NXZ
4062A0 ?Init@?$InplaceString@$0BAAA@D@Turbine@@AAEXPBDPAD@Z
406300 ?Init@Debug@Turbine@@SA_NPBD0K@Z
406390 ??R?$__less_2@KK@_STL@@QBE_NABKK@Z
4063B0 ??_E?$IntrusiveHashTable@UTurbine_GUID@@PAV?$HashTableData@UTurbine_GUID@@PAVInterface@@@@$00@@UAEPAXI@Z
4063F0 ?begin@?$IntrusiveHashTable@UTurbine_GUID@@PAV?$HashTableData@UTurbine_GUID@@PAVInterface@@@@$00@@QBE?AV?$IntrusiveHashIterator@UTurbine_GUID@@PAV?$HashTableData@UTurbine_GUID@@PAVInterface@@@@$00@@XZ
406440 ?find_internal@?$IntrusiveHashTable@UTurbine_GUID@@PAV?$HashTableData@UTurbine_GUID@@PAVInterface@@@@$00@@IBE?AV?$IntrusiveHashIterator@UTurbine_GUID@@PAV?$HashTableData@UTurbine_GUID@@PAVInterface@@@@$00@@ABUTurbine_GUID@@@Z
4064A0 ??$__lower_bound@PBKKU?$__less_2@KK@_STL@@H@_STL@@YAPBKPBK0ABKU?$__less_2@KK@0@PAH@Z
4064E0 ?append_string@?$PStringBase@D@@QAEXABV1@@Z
406500 ?sprintf_append@?$PStringBase@D@@QAAJPBDZZ
406570 ?GetClass@InterfaceSystem@@QAE?AVTResult@@ABUTurbine_GUID@@AAPAVInterface@@@Z
4065D0 ?GetClass@InterfaceSystem@@QAE?AVTResult@@ABUTurbine_GUID@@0PAPAX@Z
406650 ?CreateInstance@InterfaceSystem@@QAE?AVTResult@@ABUTurbine_GUID@@0PAVInterface@@PAPAX@Z
4066E0 ??0?$IntrusiveHashTable@UTurbine_GUID@@PAV?$HashTableData@UTurbine_GUID@@PAVInterface@@@@$00@@QAE@I@Z
406780 ?grow@?$IntrusiveHashTable@UTurbine_GUID@@PAV?$HashTableData@UTurbine_GUID@@PAVInterface@@@@$00@@QAE_NXZ
4067E0 ?resize_internal@?$IntrusiveHashTable@UTurbine_GUID@@PAV?$HashTableData@UTurbine_GUID@@PAVInterface@@@@$00@@IAE_NK@Z
4068D0 ?add@?$IntrusiveHashTable@UTurbine_GUID@@PAV?$HashTableData@UTurbine_GUID@@PAVInterface@@@@$00@@QAE_NPAV?$HashTableData@UTurbine_GUID@@PAVInterface@@@@@Z
406940 ?set@?$HashTable@UTurbine_GUID@@PAVInterface@@$00@@QAE_NABUTurbine_GUID@@ABQAVInterface@@@Z
4069D0 ?remove@?$IntrusiveHashTable@UTurbine_GUID@@PAV?$HashTableData@UTurbine_GUID@@PAVInterface@@@@$00@@QAEXV?$IntrusiveHashIterator@UTurbine_GUID@@PAV?$HashTableData@UTurbine_GUID@@PAVInterface@@@@$00@@@Z
406A10 ?delete_contents@?$IntrusiveHashTable@UTurbine_GUID@@PAV?$HashTableData@UTurbine_GUID@@PAVInterface@@@@$00@@QAEXXZ
406A90 ?RegisterClassA@InterfaceSystem@@QAE?AVTResult@@ABUTurbine_GUID@@PAVInterface@@PAPAV4@@Z
406B30 ?remove@?$IntrusiveHashTable@UTurbine_GUID@@PAV?$HashTableData@UTurbine_GUID@@PAVInterface@@@@$00@@QAEPAV?$HashTableData@UTurbine_GUID@@PAVInterface@@@@ABUTurbine_GUID@@@Z
406B90 ??_E?$AutoGrowHashTable@UTurbine_GUID@@PAVInterface@@@@UAEPAXI@Z
406BF0 ??1InterfaceSystem@@AAE@XZ
406C90 ?UnregisterClassA@InterfaceSystem@@QAE?AVTResult@@ABUTurbine_GUID@@PAVInterface@@PAPAV4@@Z
406D10 ?GetInstance@InterfaceSystem@@SAPAV1@XZ
406D60 ??0SmartBuffer@@QAE@XZ
406D70 ?CanGrow@SmartBuffer@@QBE_NXZ
406D80 ?GetBuffer@SmartBuffer@@QAEPAEXZ
406D90 ?Orphan@SmartBuffer@@QAEPAEXZ
406DB0 ?GetSize@SmartBuffer@@QBEIXZ
406DC0 ?GetShareCount@SmartBuffer@@QBEKXZ
406DD0 ?Enter@?$CSpinLock@$0BAAAAA@$0A@@@QAEXXZ
406E20 ?GetGoodSize@GrowBuffer@@QAEII@Z
406E80 ?FreeBuffer@GrowBuffer@@AAEXXZ
406F60 ??0SmartBuffer@@QAE@ABV0@@Z
406F90 ?ReleaseMasterBuffer@SmartBuffer@@QAEXXZ
406FD0 ??_GGrowBuffer@@EAEPAXI@Z
407060 ??0SmartBuffer@@QAE@PAXI@Z
4070D0 ??4SmartBuffer@@QAEAAV0@ABV0@@Z
407140 ?MakeWindow@SmartBuffer@@QAE?AV1@II@Z
4071E0 ?CreateNewMasterBuffer@SmartBuffer@@QAEXXZ
407250 ?GrowExact@GrowBuffer@@QAEXI@Z
407390 ?MakeWindow@SmartBuffer@@QAE?AV1@I@Z
4073B0 ?Borrow@SmartBuffer@@QAEXPAEI@Z
4073F0 ?Clone@SmartBuffer@@QBE?AV1@XZ
4074B0 ?ReconfigureAllocation@SmartBuffer@@QAEXIK@Z
407550 ?AppendOutputText@ArgumentParser@@MAEXPBDW4OutputTextType@1@@Z
407590 $L75465
4075C0 ??A?$PStringBase@G@@QBEABGK@Z
4075E0 ?SortCommandLineArgs@@YAHPBX0@Z
407600 ?ParseArgs@ArgumentParser@@UAE_NABV?$SmartArray@V?$PStringBase@G@@$00@@_N@Z
407640 ?ParseArgs@ArgumentParser@@UAE_NABV?$SmartArray@V?$PStringBase@D@@$00@@_N@Z
407680 ?case_insensitive_hash@?$CaseInsensitiveStringBase@V?$PStringBase@G@@@@QBEKXZ
4076D0 ??_G?$IntrusiveHashTable@V?$CaseInsensitiveStringBase@V?$PStringBase@G@@@@PAV?$HashTableData@V?$CaseInsensitiveStringBase@V?$PStringBase@G@@@@J@@$00@@UAEPAXI@Z
407710 ??_G?$IntrusiveHashTable@GPAV?$HashTableData@GJ@@$00@@UAEPAXI@Z
407750 ??4CommandLineArg@@QAEAAU0@ABU0@@Z
4077F0 ?get_new_size@?$SmartArray@PAD$00@@IBEKK@Z
407850 ?Reset@?$SmartArray@V?$PStringBase@G@@$00@@QAEXXZ
407920 ??_E?$PStringBase@G@@QAEPAXI@Z
4079D0 ?Reset@?$SmartArray@PAG$00@@QAEXXZ
407A40 ?Reset@?$SmartArray@V?$PStringBase@D@@$00@@QAEXXZ
407B10 ??0CommandLineArg@@QAE@XZ
407B50 ?AppendArgumentText@ArgumentParser@@MAEXV?$PStringBase@D@@00@Z
407D30 ?SetErrorText@ArgumentParser@@MAEXABV?$PStringBase@D@@@Z
407D80 ??_ECommandLineArg@@QAEPAXI@Z
407E40 ?set@?$PStringBase@G@@QAEXPBG@Z
407F10 ?grow@?$SmartArray@V?$PStringBase@G@@$00@@QAE_NK@Z
407FE0 ?SetNElements@?$SmartArray@V?$PStringBase@G@@$00@@QAE_NK_N@Z
4080C0 ?break_reference@?$PStringBase@D@@IAEXXZ
408120 ?Reset@?$SmartArray@UCommandLineArg@@$00@@QAEXXZ
408220 ?grow@?$SmartArray@PAVILoggingOutputHandler@Logger@@$00@@QAE_NK@Z
4082C0 ?grow@?$SmartArray@V?$PStringBase@D@@$00@@QAE_NK@Z
408390 ?break_reference@?$PStringBase@G@@IAEXXZ
4083F0 ?EvaluateCommandLineArg@ArgumentParser@@MAE_NABUCommandLineArg@@ABV?$PStringBase@D@@@Z
408610 ?find_internal@?$IntrusiveHashTable@V?$CaseInsensitiveStringBase@V?$PStringBase@G@@@@PAV?$HashTableData@V?$CaseInsensitiveStringBase@V?$PStringBase@G@@@@J@@$00@@IBE?AV?$IntrusiveHashIterator@V?$CaseInsensitiveStringBase@V?$PStringBase@G@@@@PAV?$HashTableData@V?$CaseInsensitiveStringBase@V?$PStringBase@G@@@@J@@$00@@ABV?$CaseInsensitiveStringBase@V?$PStringBase@G@@@@@Z
408670 ??0?$PStringBase@D@@QAA@W4_Formatted@@PBDZZ
4086C0 ??H?$PStringBase@G@@QBE?AV0@ABV0@@Z
408770 ?SetAtIndex@?$PStringBase@D@@QAEXKD@Z
4087D0 ??Y?$PStringBase@D@@QAEAAV0@ABV0@@Z
408800 ??Y?$PStringBase@G@@QAEAAV0@ABV0@@Z
408830 ?grow@?$SmartArray@UCommandLineArg@@$00@@QAE_NK@Z
408910 ?SetNElements@?$SmartArray@V?$PStringBase@D@@$00@@QAE_NK_N@Z
4089F0 ?SetAtIndex@?$PStringBase@G@@QAEXKG@Z
408A60 ?AppendAndWordWrap@ArgumentParser@@MAEHPBDHHW4OutputTextType@1@@Z
408CB0 ?IsCommandLineArgument@ArgumentParser@@MAE_NAAV?$PStringBase@G@@_N@Z
408D90 ?allocate@?$PStringBase@D@@QAE_NI@Z
408E40 ?AddToEnd@?$SmartArray@V?$PStringBase@G@@$00@@QAE_NABV?$PStringBase@G@@@Z
408EC0 ?allocate@?$PStringBase@G@@QAE_NI@Z
408F80 ?FindByShortCmd@CommandLineArgList@ArgumentParser@@QBEHG@Z
408FD0 ?to_spstring@?$PStringBase@G@@QBE?AV?$PStringBase@D@@G@Z
409270 ?AddToEnd@?$SmartArray@UCommandLineArg@@$00@@QAE_NABUCommandLineArg@@@Z
4092C0 ?FindByLongCmd@CommandLineArgList@ArgumentParser@@QBEHABV?$PStringBase@G@@@Z
409330 ?DisplayUsage@ArgumentParser@@MAEXABVCommandLineArgList@1@@Z
4094B0 ??0?$IntrusiveHashTable@V?$CaseInsensitiveStringBase@V?$PStringBase@G@@@@PAV?$HashTableData@V?$CaseInsensitiveStringBase@V?$PStringBase@G@@@@J@@$00@@QAE@I@Z
409550 ??0?$IntrusiveHashTable@GPAV?$HashTableData@GJ@@$00@@QAE@I@Z
4095F0 ?grow@?$IntrusiveHashTable@V?$CaseInsensitiveStringBase@V?$PStringBase@G@@@@PAV?$HashTableData@V?$CaseInsensitiveStringBase@V?$PStringBase@G@@@@J@@$00@@QAE_NXZ
409650 ?grow@?$IntrusiveHashTable@GPAV?$HashTableData@GJ@@$00@@QAE_NXZ
4096B0 ??$ConvertCommandLineToArgListTemplate@D@@YA_NPBDAAVSmartBuffer@@AAV?$SmartArray@PAD$00@@@Z
409780 ??$ConvertCommandLineToArgListTemplate@G@@YA_NPBGAAVSmartBuffer@@AAV?$SmartArray@PAG$00@@@Z
409860 ?EvaluateCommandLineArg@ArgumentParser@@MAE_NABUCommandLineArg@@ABV?$PStringBase@G@@@Z
4098F0 ?ConvertCommandLineToArgList@@YA_NPBDAAVSmartBuffer@@AAV?$SmartArray@PAD$00@@@Z
409900 ?ParseCommandLine@ArgumentParser@@UAE_NPBD_N@Z
409A00 ?ParseCommandLine@ArgumentParser@@UAE_NPBG_N@Z
409B00 ?ParseArgs@ArgumentParser@@UAE_NPAPADH_N@Z
409BC0 ?add_internal@?$IntrusiveHashTable@V?$CaseInsensitiveStringBase@V?$PStringBase@G@@@@PAV?$HashTableData@V?$CaseInsensitiveStringBase@V?$PStringBase@G@@@@J@@$00@@AAEXPAV?$HashTableData@V?$CaseInsensitiveStringBase@V?$PStringBase@G@@@@J@@@Z
409C10 ?resize_internal@?$IntrusiveHashTable@V?$CaseInsensitiveStringBase@V?$PStringBase@G@@@@PAV?$HashTableData@V?$CaseInsensitiveStringBase@V?$PStringBase@G@@@@J@@$00@@IAE_NK@Z
409D20 ?resize_internal@?$IntrusiveHashTable@GPAV?$HashTableData@GJ@@$00@@IAE_NK@Z
409E20 ?delete_contents@?$IntrusiveHashTable@V?$PStringBase@D@@PAV?$HashTableData@V?$PStringBase@D@@K@@$00@@QAEXXZ
409ED0 ?add@?$IntrusiveHashTable@GPAV?$HashTableData@GJ@@$00@@QAE_NPAV?$HashTableData@GJ@@@Z
409F50 ?delete_contents@?$IntrusiveHashTable@GPAV?$HashTableData@GJ@@$00@@QAEXXZ
409FD0 ?add@?$HashTable@V?$CaseInsensitiveStringBase@V?$PStringBase@G@@@@J$00@@QAE_NABV?$CaseInsensitiveStringBase@V?$PStringBase@G@@@@ABJ@Z
40A070 ?add@?$HashTable@GJ$00@@QAE_NABGABJ@Z
40A0D0 ?add@CommandLineArgList@ArgumentParser@@QAE_NABUCommandLineArg@@@Z
40A1F0 ??_G?$AutoGrowHashTable@V?$CaseInsensitiveStringBase@V?$PStringBase@G@@@@J@@UAEPAXI@Z
40A250 ??_G?$HashTable@GJ$00@@UAEPAXI@Z
40A2B0 ??0CommandLineArgList@ArgumentParser@@QAE@XZ
40A310 ??1CommandLineArgList@ArgumentParser@@QAE@XZ
40A3B0 ?Usage@ArgumentParser@@UAEXXZ
40A400 ?ParseArgs@ArgumentParser@@UAE_NPAPAGH_N@Z
40A8D0 ?GetSizeUsed@Archive@@QBEIXZ
40A8E0 ?SetCurrentPosition@Archive@@QAEXI@Z
40A8F0 ?GetSizeLeft@Archive@@QBEIXZ
40A900 ?GetSerializedBuffer@Archive@@QAE?AVSmartBuffer@@XZ
40A920 ?GetRemainingBuffer@Archive@@QAE?AVSmartBuffer@@XZ
40A940 ?InitVersionStack@Archive@@MAEXXZ
40A960 ?GetVersionByToken@Archive@@QBEKK@Z
40A980 ??$compute_str_hash@D@@YAKPAD@Z
40A9D0 ?SetCheckpointing@Archive@@UAEX_N@Z
40A9F0 ?UsingDBLoader@Archive@@QBE_NXZ
40AA10 ?SetDBLoader@Archive@@QAEX_N@Z
40AA30 ?SetWordAligned@Archive@@QAEX_N@Z
40AA50 ?RaiseError@Archive@@QAEXXZ
40AA60 ?IsWordAligned@Archive@@QBE_NXZ
40AA70 ?SetVersionByToken@Archive@@QAE_NKK@Z
40AAD0 ?PushVersionRow@Archive@@QAE?AV?$IDClass@U_tagVersionHandle@@$0CA@$0A@@@XZ
40AB30 ?PushVersionRow@Archive@@QAE?AV?$IDClass@U_tagVersionHandle@@$0CA@$0A@@@ABVArchiveVersionRow@@@Z
40AB90 ?GetVersionRowByHandle@Archive@@QAE_NV?$IDClass@U_tagVersionHandle@@$0CA@$0A@@@AAPBVArchiveVersionRow@@@Z
40ABB0 ??_E?$IntrusiveHashTable@V?$IDClass@U_tagVersionHandle@@$0CA@$0A@@@PAVVersionRowHolder@InArchiveVersionStack@@$00@@UAEPAXI@Z
40ABF0 ?InitializeArchive@tagSetCurrentCoreVersion@Archive@@MBE_NAAV2@@Z
40AC30 ?InitializeArchive@SetVersionRow@Archive@@MBE_NAAV2@@Z
40AC70 ?PeekBytes@Archive@@QAEPAEII@Z
40ACF0 ?GetBytes@Archive@@QAEPAEI@Z
40AD10 ?CheckAlignment@Archive@@QAEXI@Z
40AD90 ??0?$IntrusiveHashTable@V?$IDClass@U_tagVersionHandle@@$0CA@$0A@@@PAVVersionRowHolder@InArchiveVersionStack@@$00@@QAE@I@Z
40AE30 ??0InArchiveVersionStack@@QAE@XZ
40AEB0 ?AddRef@InArchiveVersionStack@@UBEKXZ
40AEC0 ?Release@InArchiveVersionStack@@UBEKXZ
40AEF0 ?CreateVersionStack@Archive@@MAEXXZ
40AF20 ?ReleaseUserData@Archive@@IAEXXZ
40AFB0 ?InitForPacking@Archive@@UAEXABVArchiveInitializer@@ABVSmartBuffer@@@Z
40B020 ?InitForUnpacking@Archive@@UAEXABVArchiveInitializer@@ABVSmartBuffer@@@Z
40B060 ??1Archive@@QAE@XZ
40B0B0 ??$SerializePrimitive@E@Serializer@@YAXAAEAAVArchive@@@Z
40B0F0 ?Next@?$PStringBaseIter_Common@D@@QAE_NJ@Z
40B150 ?Next@?$PStringBaseIter_Common@G@@QAE_NJ@Z
40B1B0 ?SetMark@?$PStringBaseIter_Common@G@@QAE_NK@Z
40B1E0 ??$search_skipescapes@G@@YAPAGPBGHH@Z
40B220 ?clear@?$PStringBase@G@@QAEXXZ
40B270 ??$template_strcspn@D@@YAKABV?$PStringBase@D@@PBD_N@Z
40B320 ?check_access@PSUtils@@YA_NABV?$PStringBase@D@@J@Z
40B340 ?wcschr_skipescapes@PSUtils@@YAPAGPBGGG@Z
40B360 ?IndexToChar@?$PStringBaseIter_Const@D@@MBEDK@Z
40B380 ?IndexToConstPointer@?$PStringBaseIter_Const@D@@MBEPBDK@Z
40B3A0 ?GetPStringPtr@?$PStringBaseIter@G@@MBEPBV?$PStringBase@G@@XZ
40B3B0 ?IndexToConstPointer@?$PStringBaseIter_Const@G@@MBEPBGK@Z
40B3D0 ?IndexToChar@?$PStringBaseIter_Const@G@@MBEGK@Z
40B3F0 ?GetStrLen@?$PStringBaseIter@D@@UBEKXZ
40B400 ??$wildcard_match_iter@D@@YA_NAAV?$PStringBaseIter_Const@D@@0@Z
40B580 ?FindChar@?$PStringBaseIter_Common@D@@QAE_ND_N@Z
40B620 ?FindChar@?$PStringBaseIter_Common@G@@QAE_NG_N@Z
40B6C0 ??$template_find_extension@D@@YA_NAAV?$PStringBaseIter@D@@@Z
40B720 ?push_back@?$List@V?$PStringBase@D@@@@QAE_NABV?$PStringBase@D@@@Z
40B790 ?FindChar@?$PStringBaseIter_Common@D@@QAE_NABV?$PStringBase@D@@_N@Z
40B870 ??0?$PStringBase@D@@QAE@D@Z
40B8F0 ?append_string@?$PStringBase@G@@QAEXPBG@Z
40B920 ?GetSubString@?$PStringBaseIter_Common@G@@QBE_NAAV?$PStringBase@G@@@Z
40B9A0 ?GetSubString@?$PStringBaseIter_Common@G@@QBE?AV?$PStringBase@G@@XZ
40BA00 ?Truncate@?$PStringBaseIter@G@@QAE_NXZ
40BAA0 ?get_binary_buffer_from_string@PSUtils@@YA?AVSmartBuffer@@ABV?$PStringBase@D@@@Z
40BBC0 ??H?$PStringBase@D@@QBE?AV0@ABV0@@Z
40BC80 ??$template_explode@G@@YA_NABV?$PStringBase@G@@GAAV?$List@V?$PStringBase@G@@@@@Z
40BDF0 ?Replace@?$PStringBaseIter@G@@QAE_NABV?$PStringBase@G@@@Z
40BF30 ?GetSubString@?$PStringBaseIter_Common@D@@QBE_NAAV?$PStringBase@D@@@Z
40BFB0 ?GetSubString@?$PStringBaseIter_Common@D@@QBE?AV?$PStringBase@D@@XZ
40C010 ?Truncate@?$PStringBaseIter@D@@QAE_NXZ
40C0B0 ?Behead@?$PStringBaseIter@D@@QAE_NXZ
40C180 ?pop_front@?$List@V?$PStringBase@G@@@@QAE_NAAV?$PStringBase@G@@@Z
40C220 ?explode@PSUtils@@YA_NABV?$PStringBase@G@@GAAV?$List@V?$PStringBase@G@@@@@Z
40C230 ?get_process_name@PSUtils@@YA?AV?$PStringBase@D@@XZ
40C270 ?GetEnvironmentVariableA@PSUtils@@YA_NABV?$PStringBase@G@@AAV2@@Z
40C2D0 ??$template_explode@D@@YA_NABV?$PStringBase@D@@DAAV?$List@V?$PStringBase@D@@@@@Z
40C440 ?AddToEnd@?$SmartArray@V?$PStringBase@D@@$00@@QAE_NABV?$PStringBase@D@@@Z
40C4C0 ?Split@?$PStringBaseIter_Common@D@@QBE_NAAV?$PStringBase@D@@00@Z
40C650 ??$template_change_extension@D@@YA_NAAV?$PStringBase@D@@ABV0@@Z
40C720 ??$template_strip_directory@D@@YA_NAAV?$PStringBase@D@@@Z
40C780 ??$template_get_directory@D@@YA_NAAV?$PStringBase@D@@ABV0@@Z
40C840 ??$template_get_extension@D@@YA?AV?$PStringBase@D@@ABV0@@Z
40C8A0 ?Insert@?$PStringBaseIter@D@@QAE_NABV?$PStringBase@D@@@Z
40C9A0 ?Replace@?$PStringBaseIter@D@@QAE_NABV?$PStringBase@D@@@Z
40CAE0 j_??$template_explode@D@@YA_NABV?$PStringBase@D@@DAAV?$List@V?$PStringBase@D@@@@@Z
40CAF0 ?explode@PSUtils@@YA_NPBDIAAV?$PStringBaseArray@D@@@Z
40CB70 ?path_append@PSUtils@@YAXAAV?$PStringBase@D@@ABV2@@Z
40CC80 ?path_append@PSUtils@@YAXAAV?$PStringBase@G@@ABV2@@Z
40CD90 ?change_extension@PSUtils@@YA_NAAV?$PStringBase@D@@ABV2@@Z
40CDA0 ?remove_extension@PSUtils@@YA_NAAV?$PStringBase@D@@@Z
40CDE0 ?strip_directory@PSUtils@@YA_NAAV?$PStringBase@D@@@Z
40CDF0 ?get_directory@PSUtils@@YA_NAAV?$PStringBase@D@@ABV2@@Z
40CE00 ?get_extension@PSUtils@@YA?AV?$PStringBase@D@@ABV2@@Z
40CE20 ?stringify_buffer@PSUtils@@YA?AV?$PStringBase@D@@ABVSmartBuffer@@@Z
40D020 ?linewrap_string@PSUtils@@YA_NAAV?$PStringBase@D@@K@Z
40D180 ?widify@PSUtils@@YA_NAAV?$PStringBase@G@@ABV?$PStringBase@D@@@Z
40D200 ?widify@PSUtils@@YA?AV?$PStringBase@G@@ABV?$PStringBase@D@@@Z
40D260 ??$template_change_directory@D@@YA_NAAV?$PStringBase@D@@ABV0@@Z
40D410 ?flush@?$List@V?$PStringBase@G@@@@QAEXXZ
40D470 ??_E?$List@V?$PStringBase@G@@@@UAEPAXI@Z
40D4A0 ?find_files@PSUtils@@YA_NABV?$PStringBase@D@@AAV?$List@V?$PStringBase@D@@@@PAV3@_N@Z
40D7A0 ?narrowify@PSUtils@@YA_NAAV?$PStringBase@D@@ABV?$PStringBase@G@@@Z
40D810 ?narrowify@PSUtils@@YA?AV?$PStringBase@D@@ABV?$PStringBase@G@@@Z
40D870 ?replace@?$PStringBase@G@@QAEJABV1@0@Z
40DA10 ??$template_cleanup_filename@D@@YA_NAAV?$PStringBase@D@@_N@Z
40DB30 ?get_cwd@PSUtils@@YA_NAAV?$PStringBase@D@@@Z
40DBF0 ?cleanup_filename@PSUtils@@YA_NAAV?$PStringBase@D@@_N@Z
40DC00 ?GetLongPathNameA@PSUtils@@YA_NABV?$PStringBase@D@@AAV2@@Z
40DE60 ?unwrap_string@PSUtils@@YA_NAAV?$PStringBase@D@@@Z
40DEB0 ??$template_cleanup_directory_name@D@PSUtils@@YA_NAAV?$PStringBase@D@@_N@Z
40DF10 ?cleanup_directory_name@PSUtils@@YA_NAAV?$PStringBase@D@@_N@Z
40DF20 ??$template_create_directory@D@PSUtils@@YA_NABV?$PStringBase@D@@@Z
40E110 ?create_directory@PSUtils@@YA_NABV?$PStringBase@D@@@Z
40E120 ?QueryStrValue@RegEdit@@QAE_NABV?$PStringBase@D@@0PADKPAUHKEY__@@@Z
40E1A0 ?QueryWStrValue@RegEdit@@QAE_NABV?$PStringBase@G@@0PAGKPAUHKEY__@@@Z
40E220 ?DeleteValue@RegEdit@@QAE_NABV?$PStringBase@D@@0PAUHKEY__@@@Z
40E280 ?QueryStrValue@RegEdit@@QAE_NABV?$PStringBase@D@@0AAV2@PAUHKEY__@@@Z
40E2E0 ?QueryWStrValue@RegEdit@@QAE_NABV?$PStringBase@G@@0AAV2@PAUHKEY__@@@Z
40E340 ?RemovePluginPrototype@CPluginManager@@IAE_NPAVCPluginPrototype@@@Z
40E3A0 ?CallCrashCleaners@CrashCleaners@@SAXXZ
40E3E0 ??1CPluginManager@@QAE@XZ
40E420 ??1CrashCleaner@@UAE@XZ
40E450 ??_ECPluginPrototype@@UAEPAXI@Z
40E490 ??_GCrashCleaner@@UAEPAXI@Z
40E4E0 ?AddPluginPrototype@CPluginManager@@IAE_NPAVCPluginPrototype@@@Z
40E540 ??0CrashCleaner@@QAE@XZ
40E560 ?ReportThread_PrepareForDialogBox@DialogBoxGateways@@SA_KXZ
40E5D0 ?ReportThread_DoneWithDialogBox@DialogBoxGateways@@SAX_K@Z
40E620 ?DialogThread_PrepareForDialogBox@DialogBoxGateways@@SA_KXZ
40E690 ?DialogThread_DoneWithDialogBox@DialogBoxGateways@@SAX_K@Z
40E6E0 ??1DialogBoxGateway@@UAE@XZ
40E710 ?You_Must_Not_Have_Multiple_Implementations_Of_AddRef_In_A_Hierarchy@InArchiveVersionStack@@UAE?AW4Enum3@1@XZ
40E720 ?OnDialogBoxEnd@DialogBoxGateway@@EAE?AW4ThisFunctionHasBeenRenamed@1@_N@Z
40E730 ?DialogThread_OnDialogBoxBegin@DialogBoxGateway@@UAE_NXZ
40E740 ??_EDialogBoxGateway@@UAEPAXI@Z
40E790 ??0DialogBoxGateway@@QAE@XZ
40E7B0 ??1DbgReportContext@@QAE@XZ
40E7D0 ??0DbgReportContext@@QAE@PAU_EXCEPTION_POINTERS@@@Z
40E880 ?FreeDbgHelpFunctions@DbgHelpWrapper@@YAXXZ
40E8E0 ?Flush@TextFileOutputHandler@@UAEXXZ
40E8F0 ?GetLogFileName@TextFileOutputHandler@@UAEABV?$PStringBase@D@@XZ
40E900 ?OnStateHandlerInit@CAsyncStateHandler@@MAEXXZ
40E910 ?SendToOutputHandlers@CategoryHandler@LogController@@QBE?AW4LoggerWriteResult@Logger@@W4LoggingSeverity@4@KPBD@Z
40EA00 ?Write@ConsoleOutputHandler@@UAE?AW4LoggerWriteResult@Logger@@W4LoggingSeverity@3@KPBD@Z
40EA20 ?Write@OutputDebugStringOutputHandler@@UAE?AW4LoggerWriteResult@Logger@@W4LoggingSeverity@3@KPBD@Z
40EA40 ??_E?$IntrusiveHashTable@KPAVCategoryHandler@LogController@@$0A@@@UAEPAXI@Z
40EA80 ?GetConsoleOutputHandler@LogController@@QAEPAVILoggingOutputHandler@Logger@@XZ
40EAD0 ?GetOutputDebugStringOutputHandler@LogController@@QAEPAVILoggingOutputHandler@Logger@@XZ
40EB20 ?CreateLoggingCategory@Logger@@YAKPBD@Z
40EB40 ?GetConsoleOutputHandler@Logger@@YAPAVILoggingOutputHandler@1@XZ
40EB60 ?GetOutputDebugStringOutputHandler@Logger@@YAPAVILoggingOutputHandler@1@XZ
40EB80 ?AllocateIndex@InstanceDiviner@@QAEKKV?$PStringBase@D@@@Z
40ECB0 ??_GInstanceDiviner@@QAEPAXI@Z
40ED10 ?OpenLogFile@TextFileOutputHandler@@IAE_NABV?$PStringBase@D@@@Z
40EDB0 ?Write@TimestamppedTextFileOutputHandler@@UAE?AW4LoggerWriteResult@Logger@@W4LoggingSeverity@3@KPBD@Z
40EE10 ??0InstanceDiviner@@QAE@V?$PStringBase@D@@_NK@Z
40EE80 ?SetNElements@?$SmartArray@K$00@@QAE_NK_N@Z
40EEE0 ??1TextFileOutputHandler@@MAE@XZ
40EF70 ?Write@TextFileOutputHandler@@UAE?AW4LoggerWriteResult@Logger@@W4LoggingSeverity@3@KPBD@Z
40EFC0 ?ChangeLogFile@TextFileOutputHandler@@UAE_NABV?$PStringBase@D@@@Z
40F020 ??0TimestamppedTextFileOutputHandler@@QAE@PBD@Z
40F070 ?LogMessage@LogController@@QAEXW4LoggingSeverity@Logger@@KPBD@Z
40F0E0 ?Log@Logger@@YAXW4LoggingSeverity@1@KPBD@Z
40F110 ?append_uint32@?$PStringBase@D@@QAEXK@Z
40F180 ??0TextFileOutputHandler@@QAE@_N@Z
40F330 ??_GTextFileOutputHandler@@MAEPAXI@Z
40F350 ?GetTextFileOutputHandler@LogController@@QAEPAVITextFileOutputHandler@Logger@@_N@Z
40F3B0 ?RemoveAllHandlers@CategoryHandler@LogController@@QAE_NXZ
40F420 ?LogVAList@Logger@@YAXW4LoggingSeverity@1@KPBDPAD@Z
40F4A0 ??RLogMacro@Logger@@QAAXPBDZZ
40F4C0 ?GetTextFileOutputHandler@Logger@@YAPAVITextFileOutputHandler@1@XZ
40F4E0 ?add_unique@?$SmartArray@PAVILoggingOutputHandler@Logger@@$00@@QAE_NABQAVILoggingOutputHandler@Logger@@@Z
40F550 ??0?$IntrusiveHashTable@KPAVCategoryHandler@LogController@@$0A@@@QAE@I@Z
40F5F0 ?AddHandler@CategoryHandler@LogController@@QAE_NPAVILoggingOutputHandler@Logger@@K@Z
40F660 ?add@?$IntrusiveHashTable@KPAVCategoryHandler@LogController@@$0A@@@QAE_NPAVCategoryHandler@LogController@@@Z
40F6C0 ?delete_contents@?$IntrusiveHashTable@KPAVCategoryHandler@LogController@@$0A@@@QAEXXZ
40F780 ??0LogController@@QAE@XZ
40F7F0 ??1LogController@@QAE@XZ
40F900 ?AddCategoryHandler@LogController@@QAEKKPAVILoggingOutputHandler@Logger@@@Z
40F990 ?Initialize@LogController@@QAEX_N@Z
40FA40 ?Initialize@Logger@@YAX_N@Z
40FA60 ?AddCategoryHandler@Logger@@YAKKPAVILoggingOutputHandler@1@@Z
40FA90 ?get_real_time@Timer@@SAJXZ
40FAA0 ?compute_time@Timer@@SANXZ
40FAD0 ?compute_local_time@Timer@@SANXZ
40FB00 ?set_time@Timer@@SAXABN@Z
40FBD0 ?update_time@Timer@@SAXXZ
40FC40 ??0PreciseTimerInstance@@QAE@XZ
40FC80 ??_EPreciseTimerInstance@@MAEPAXI@Z
40FCA0 ?GetTimerInstance@Timer@@SAPAVPreciseTimerInstance@@XZ
40FCD0 ?Init@Timer@@SAXXZ
40FD30 ?Convert@Turbine_GUID@@QAE_NQBD@Z
40FDE0 ?ToString@Turbine_GUID@@QBE?AV?$PStringBase@D@@XZ
40FE80 ?Init@ANSIColorStatus@@IAEXXZ
40FEF0 ?SetForeColor@ANSIColorStatus@@QAEXG@Z
40FF20 ?SetBackColor@ANSIColorStatus@@QAEXG@Z
40FF50 ?SetToDefaultColors@ANSIColorStatus@@QAEXXZ
40FF80 ??$DoANSIEscape@D@@YAHPBD@Z
410220 ??$DoANSIString@D@@YAHPBD@Z
4102A0 ?color_printf@@YAHPBDZZ
410310 ??$SerializeObject@K@Serializer@@YAXAAKAAVArchive@@@Z
410350 ?Reset@?$SmartArray@UVersionEntry@ArchiveVersionRow@@$00@@QAEXXZ
4103B0 ?GetVersionByToken@ArchiveVersionRow@@UBEKK@Z
4103F0 ?grow@?$SmartArray@UVersionEntry@ArchiveVersionRow@@$00@@QAE_NK@Z
4104A0 ?SetNElements@?$SmartArray@UVersionEntry@ArchiveVersionRow@@$00@@QAE_NK_N@Z
410500 ?SetVersion@ArchiveVersionRow@@QAE_NKK@Z
410590 ?SerializeRow@ArchiveVersionRow@@IAEXAAVArchive@@@Z
410630 ?SerializeHeader@ArchiveVersionRow@@QAEKAAVArchive@@@Z
4106F0 ?SerializeFooter@ArchiveVersionRow@@QAE_NKAAVArchive@@@Z
410820 ?InsertAfter@DLListBase@@QAEXPAVDLListData@@0@Z
410880 ?Remove@DLListBase@@QAEXPAVDLListData@@@Z
4108D0 ?QueryInterface@InArchiveVersionStack@@UAE?AVTResult@@ABUTurbine_GUID@@PAPAX@Z
410970 ?GetVersionByToken@InArchiveVersionStack@@UBEKK@Z
4109A0 ?SetVersion@InArchiveVersionStack@@UAE_NKK@Z
4109D0 ?GetCurrentVersionHandle@InArchiveVersionStack@@UBE?AV?$IDClass@U_tagVersionHandle@@$0CA@$0A@@@XZ
410A00 ??4?$SmartArray@UVersionEntry@ArchiveVersionRow@@$00@@QAEAAV0@ABV0@@Z
410A90 ?grow@?$IntrusiveHashTable@V?$IDClass@U_tagVersionHandle@@$0CA@$0A@@@PAVVersionRowHolder@InArchiveVersionStack@@$00@@QAE_NXZ
410AF0 ?GetRowByHandle@InArchiveVersionStack@@UAE_NV?$IDClass@U_tagVersionHandle@@$0CA@$0A@@@AAPBVArchiveVersionRow@@@Z
410B30 ?resize_internal@?$IntrusiveHashTable@V?$IDClass@U_tagVersionHandle@@$0CA@$0A@@@PAVVersionRowHolder@InArchiveVersionStack@@$00@@IAE_NK@Z
410C20 ?add@?$IntrusiveHashTable@V?$IDClass@U_tagVersionHandle@@$0CA@$0A@@@PAVVersionRowHolder@InArchiveVersionStack@@$00@@QAE_NPAVVersionRowHolder@InArchiveVersionStack@@@Z
410CA0 ?push_tail@?$IntrusiveHashList@V?$IDClass@U_tagVersionHandle@@$0CA@$0A@@@PAVVersionRowHolder@InArchiveVersionStack@@$00@@QAE_NPAVVersionRowHolder@InArchiveVersionStack@@@Z
410D00 ?remove@?$IntrusiveHashTable@KPAVCategoryHandler@LogController@@$0A@@@QAEXV?$IntrusiveHashIterator@KPAVCategoryHandler@LogController@@$0A@@@@Z
410D40 ?PushVersionRow@InArchiveVersionStack@@UAE?AV?$IDClass@U_tagVersionHandle@@$0CA@$0A@@@XZ
410DE0 ?PushVersionRow@InArchiveVersionStack@@UAE?AV?$IDClass@U_tagVersionHandle@@$0CA@$0A@@@ABVArchiveVersionRow@@@Z
410E70 ?remove@?$IntrusiveHashTable@KPAVCategoryHandler@LogController@@$0A@@@QAEPAVCategoryHandler@LogController@@ABK@Z
410ED0 ?remove@?$IntrusiveHashList@V?$IDClass@U_tagVersionHandle@@$0CA@$0A@@@PAVVersionRowHolder@InArchiveVersionStack@@$00@@QAEPAVVersionRowHolder@InArchiveVersionStack@@ABV?$IDClass@U_tagVersionHandle@@$0CA@$0A@@@@Z
410F30 ?PopVersionRow@InArchiveVersionStack@@UAE_NV?$IDClass@U_tagVersionHandle@@$0CA@$0A@@@@Z
410F90 ?Reset@InArchiveVersionStack@@UAEXXZ
4110C0 ??1InArchiveVersionStack@@IAE@XZ
411120 ?GetModuleFromAddress@@YIPAUHINSTANCE__@@PAE@Z
411140 ?Enter@?$CSpinLock@$0CAA@$0A@@@QAEXXZ
411190 ??0TimeSource_QueryPerformanceCounter@@QAE@XZ
4111B0 ?Init@TimeSource_QueryPerformanceCounter@@QAEXXZ
411280 ?ComputeElapsedTime@TimeSource_QueryPerformanceCounter@@QAEN_N@Z
411470 ??1IInputActionCallback@@UAE@XZ
411490 ??_GIInputActionCallback@@UAEPAXI@Z
4114C0 ?GetInstance@Client@@SAPAV1@XZ
4114D0 ?CleanupUI@Client@@MAEXXZ
411560 ?CleanupDatabase@Client@@MAEXXZ
4115A0 ?CleanupPreferences@Client@@MAEXXZ
4115D0 ?InitAuth@Client@@MAE_NXZ
4115F0 ?Disconnect@Client@@UAE_NXZ
411630 ?KeepUIAlive@Client@@QAEXXZ
4116A0 ?GetCharactersToWrapUsageTo@Client@@MAEHXZ
4116B0 ?GetNameRuleLanguage@Client@@UBEKXZ
4116D0 ?GetPacketLossPercentage@LinkStatusHolder@@QBEMXZ
4116E0 ?GetConnectionStatus@LinkStatusHolder@@QBENAAH@Z
411730 ?OnHeartbeat@LinkStatusHolder@@MAEXABVCLinkStatusAverages@@@Z
411760 ?ConstructClassObjectEx@?$@VUIFlow@@VInterface@@@@YAPAVUIFlow@@ABUTurbine_GUID@@@Z
4117B0 ?Pack@NetError@@UAEIAAPAXI@Z
411800 ?UnPack@NetError@@UAEHAAPAXI@Z
411850 ??0?$PStringBase@D@AC1Legacy@@QAE@XZ
411870 ?break_reference@?$PStringBase@D@AC1Legacy@@IAEXXZ
4118D0 ?Cleanup@Client@@UAEXXZ
411980 ?GetLanguage@Client@@UBE?BJXZ
4119C0 ?InitUI@Client@@MAE_NABV?$PStringBase@D@@@Z
411AA0 ?AddNetQueue@Client@@IAEHF@Z
411B10 ?Run@Client@@UAE_NXZ
411B50 ?SetLanguage@Client@@UAEXABV?$PStringBase@D@@@Z
411BA0 ?OnDDDEvent@Client@@UAEXW4DDDEvent@@I@Z
411C20 ?ProcessLogonEventQueue@Client@@IAEXXZ
411CC0 ?OnNetStatusChange@LinkStatusHolder@@MAEXW4NetStatus@@JJ@Z
411D90 ?RegisterPreference@UserPreferences@@SEXPA_NABV?$PStringBase@D@@1P6AX1@ZKPBV2@PBK@Z
411E10 ??1NetAuthenticator@@UAE@XZ
411E80 ?InitNet@Client@@MAE_NXZ
411FA0 ?UseTime@Client@@UAE_NXZ
412020 ??_ECDDDStatusPlugin@@UAEPAXI@Z
412060 ?CleanupNet@Client@@MAEXXZ
412180 ?Init@Client@@UAE_NABV?$PStringBase@D@@JJ@Z
4122A0 ?IsAlreadyRunning@Client@@MAE_NXZ
412310 ?InitPreferences@Client@@MAE_NXZ
412420 ?BuildCommandLineArgs@Client@@UAEXAAVCommandLineArgList@ArgumentParser@@@Z
412850 ?EvaluateCommandLineArg@Client@@UAE_NABUCommandLineArg@@ABV?$PStringBase@D@@@Z
412A80 ?FinishOutputText@Client@@UAEXXZ
412AC0 ?RemoveDDDStatusPlugin@Client@@UAE_NPAVCDDDStatusPlugin@@@Z
412AE0 ?GetLogString@NetError@@QBE?AV?$PStringBase@G@@XZ
412B60 ?GetCharactersToWrapUsageTo@ArgumentParser@@MAEHXZ
412B70 ??1Client@@MAE@XZ
412D80 ??_EClient@@O7AEPAXI@Z
412D90 ??_EClient@@OM@AEPAXI@Z
412DA0 ?AppendOutputText@Client@@MAEXPBDW4OutputTextType@ArgumentParser@@@Z
412E10 ??_ELinkStatusHolder@@UAEPAXI@Z
412E50 ??0Client@@QAE@XZ
413040 ??_GClient@@MAEPAXI@Z
413070 ?InitDatabase@Client@@MAE_NJJ_N@Z
413180 ?Connect@Client@@UAE?AVNetError@@XZ
413450 ?AddDDDStatusPlugin@Client@@UAE_NPAVCDDDStatusPlugin@@@Z
413470 ??_E?$IntrusiveHashTable@V?$PStringBase@D@@PAV?$HashSetData@V?$PStringBase@D@@@@$00@@UAEPAXI@Z
4134B0 ?hash@?$PStringBase@D@@QBEKXZ
4134D0 ?distance@_STL@@YAHABQBK0@Z
4134E0 ?advance@_STL@@YAXAAPBKH@Z
413500 ?GetFileName@@YA?AV?$PStringBase@D@@V?$IDClass@U_tagDataID@@$0CA@$0A@@@@Z
413570 ?ReportDataErrorFrom@IError@@YAXV?$IDClass@U_tagDataID@@$0CA@$0A@@@PBDZZ
413650 ??0?$IntrusiveHashTable@V?$PStringBase@D@@PAV?$HashSetData@V?$PStringBase@D@@@@$00@@QAE@I@Z
4136E0 ??1?$HashSet@V?$PStringBase@D@@@@UAE@XZ
413720 ??_E?$HashSet@V?$PStringBase@D@@@@UAEPAXI@Z
413780 ?Write@InteractiveOutputHandler@@UAE?AW4LoggerWriteResult@Logger@@W4LoggingSeverity@3@KPBD@Z
4137E0 ?ResetReportedErrors@InteractiveOutputHandler@@UAE_NXZ
4137F0 ?GetInteractiveOutputHandler@Logger@@YAPAVIInteractiveOutputHandler@@XZ
413850 ?AddDataErrorHandlers@IError@@YAXW4LegacyDataErrorMode@@ABV?$PStringBase@D@@@Z
413930 ??_GInteractiveOutputHandler@@UAEPAXI@Z
413960 ?Clear@DatIDStamp@@QAEXXZ
413980 ??0DatIDStamp@@QAE@XZ
4139A0 ??0DatIDStamp@@QAE@ABV0@@Z
4139D0 ?ResetCache@DBCache@@UAEXXZ
413A00 ?GetFromEnumStatic@DBCache@@SAPAVDBObj@@JJK@Z
413A30 ?PreFetchStatic@DBCache@@SA?AW4CACHE_OBJECT_CODES@@ABUQualifiedDataID@@@Z
413A50 ?GetCurrentRegion@DBCache@@SA_NAAK@Z
413A70 ?IsRunTime@DBCache@@SA_NXZ
413A90 ?IsClient@DBCache@@SA_NXZ
413AB0 ?IsServer@DBCache@@SA_NXZ
413AD0 ?SetRegion@DBCache@@UAE_NK@Z
413AE0 ?SetLocalLanguage@DBCache@@SA_NK_N@Z
413B00 ?GetLocalLanguage@DBCache@@SAKXZ
413B20 ?Clear@?$TDynamicCircularArray@PAVCCallbackHandler@AsyncCache@@@@UAEXXZ
413B30 ??_G?$TDynamicCircularArray@PAVCCallbackHandler@AsyncCache@@@@UAEPAXI@Z
413B60 ?SetMasterMapDID@DBCache@@QAE?AV?$IDClass@U_tagDataID@@$0CA@$0A@@@V2@@Z
413B80 ?Get@DBCache@@SAPAVDBObj@@V?$IDClass@U_tagDataID@@$0CA@$0A@@@K@Z
413BC0 ?GetDIDFromEnumStatic@DBCache@@SA?AV?$IDClass@U_tagDataID@@$0CA@$0A@@@JJ@Z
413BF0 ?GetDIDFromEnum@DBCache@@UAE?AV?$IDClass@U_tagDataID@@$0CA@$0A@@@JJ@Z
413CC0 ?GetFromEnum@DBCache@@UAEPAVDBObj@@JJK@Z
413D20 ?ReloadObject@DBCache@@UAE_NV?$IDClass@U_tagDataID@@$0CA@$0A@@@K@Z
413DE0 ?AddToDataGraph@DBCache@@SAXPBVDBObj@@@Z
413E70 ??_E?$IntrusiveHashTable@UQualifiedDataID@@PAVDBObjSaveInfo@@$00@@UAEPAXI@Z
413EB0 ??_E?$IntrusiveHashTable@UQualifiedDataID@@PAV?$HashTableData@UQualifiedDataID@@PAUCAsyncGetRequest@@@@$00@@UAEPAXI@Z
413EF0 ??_G?$IntrusiveHashTable@VAsyncContext@@PAV?$HashTableData@VAsyncContext@@PAVCCallbackHandler@AsyncCache@@@@$00@@UAEPAXI@Z
413F30 ??_E?$IntrusiveHashTable@KPAV?$HashTableData@KPAVDBOCache@@@@$0A@@@UAEPAXI@Z
413F70 ??_E?$IntrusiveHashTable@UQualifiedDataID@@PAV?$HashSetData@UQualifiedDataID@@@@$00@@UAEPAXI@Z
413FB0 ?Add@?$TDynamicCircularArray@PAVCCallbackHandler@AsyncCache@@@@UAEIABQAVCCallbackHandler@AsyncCache@@@Z
414050 ?Remove@?$TDynamicCircularArray@PAVCCallbackHandler@AsyncCache@@@@UAEXI@Z
4140E0 ?Move@?$TDynamicCircularArray@PAVCCallbackHandler@AsyncCache@@@@IAEXIII@Z
414160 ?RemoveAndReturn@?$TDynamicCircularArray@PAVCCallbackHandler@AsyncCache@@@@UAEPAVCCallbackHandler@AsyncCache@@I@Z
414190 ?find_internal@?$IntrusiveHashTable@UQualifiedDataID@@PAV?$HashSetData@UQualifiedDataID@@@@$00@@IBE?AV?$IntrusiveHashIterator@UQualifiedDataID@@PAV?$HashSetData@UQualifiedDataID@@@@$00@@ABUQualifiedDataID@@@Z
4141E0 ?Init@DBCache@@IAE_N_NABV?$PStringBase@D@@@Z
414390 ?UseTime@DBCache@@UAEXXZ
4143F0 ?UnloadCellData@DBCache@@UAE_NXZ
414480 ?AskForLastWords@DBCache@@UAEXXZ
4144E0 ?FlushFreeObjects@DBCache@@QAEXK@Z
414590 ?GetDBOCache@DBCache@@SAPAVDBOCache@@K@Z
4145D0 ?grow@?$IntrusiveHashTable@UQualifiedDataID@@PAV?$HashSetData@UQualifiedDataID@@@@$00@@QAE_NXZ
414620 ?KeepFreeObjects@DBCache@@QAE_N_NK@Z
4146B0 ?GetDBOCache@DBCache@@UAEPAVDBOCache@@ABUQualifiedDataID@@@Z
414700 ??0?$IntrusiveHashTable@UQualifiedDataID@@PAVDBObjSaveInfo@@$00@@QAE@I@Z
414790 ??0?$IntrusiveHashTable@KPAV?$HashTableData@KPAVDBOCache@@@@$0A@@@QAE@I@Z
414820 ??0?$IntrusiveHashTable@UQualifiedDataID@@PAV?$HashSetData@UQualifiedDataID@@@@$00@@QAE@I@Z
4148B0 ?resize_internal@?$IntrusiveHashTable@UQualifiedDataID@@PAV?$HashSetData@UQualifiedDataID@@@@$00@@IAE_NK@Z
4149F0 ??0QualifiedDataIDArray@@QAE@H@Z
414A30 ??_EQualifiedDataIDArray@@UAEPAXI@Z
414A50 ?add@?$IntrusiveHashTable@UQualifiedDataID@@PAV?$HashSetData@UQualifiedDataID@@@@$00@@QAE_NPAV?$HashSetData@UQualifiedDataID@@@@@Z
414AC0 ?resize_internal@?$IntrusiveHashTable@UQualifiedDataID@@PAV?$HashTableData@UQualifiedDataID@@PAUCAsyncGetRequest@@@@$00@@IAE_NK@Z
414BD0 ?resize_internal@?$IntrusiveHashTable@VAsyncContext@@PAV?$HashTableData@VAsyncContext@@PAVCCallbackHandler@AsyncCache@@@@$00@@IAE_NK@Z
414CE0 ?grow@?$IntrusiveHashTable@UQualifiedDataID@@PAV?$HashTableData@UQualifiedDataID@@PAUCAsyncGetRequest@@@@$00@@QAE_NXZ
414D30 ?grow@?$IntrusiveHashTable@VAsyncContext@@PAV?$HashTableData@VAsyncContext@@PAVCCallbackHandler@AsyncCache@@@@$00@@QAE_NXZ
414D80 ?add@?$HashSet@UQualifiedDataID@@@@QAE_NABUQualifiedDataID@@@Z
414DF0 ??_G?$HashSet@UQualifiedDataID@@@@UAEPAXI@Z
414E50 ?OnContextFinished@DBCachePrefetchCallback@@MAEXVAsyncContext@@W4AsyncResult@@K@Z
414E90 ?PreFetch@DBCachePrefetchCallback@@QAEXABUQualifiedDataID@@@Z
414F30 ?OnTopLevelRequestFinished@DBCachePrefetchCallback@@MAEXVAsyncContext@@UQualifiedDataID@@W4AsyncResult@@KJPAX@Z
414F50 ?erase@?$HashSet@UQualifiedDataID@@@@QAE_NABUQualifiedDataID@@@Z
414F80 ?remove@?$IntrusiveHashTable@UQualifiedDataID@@PAV?$HashSetData@UQualifiedDataID@@@@$00@@QAEPAV?$HashSetData@UQualifiedDataID@@@@ABUQualifiedDataID@@@Z
414FE0 ?PreFetch@DBCache@@UAE?AW4CACHE_OBJECT_CODES@@ABUQualifiedDataID@@@Z
415040 ?DestroyObjectCaches@DBCache@@MAEXXZ
4150B0 ??_E?$HashTable@KPAVDBOCache@@$0A@@@UAEPAXI@Z
415110 ??1AsyncCache@@QAE@XZ
4151B0 ??1DBCache@@UAE@XZ
415210 ?QueryInterface@DBCache@@UAE?AVTResult@@ABUTurbine_GUID@@PAPAX@Z
415270 ?AddRef@DBCache@@UBEKXZ
415280 ?Release@DBCache@@UBEKXZ
4152B0 ?SetShutdown@DBCache@@UAE_N_N@Z
415320 ??0DBCache@@QAE@XZ
4153A0 ??_EDBCache@@UAEPAXI@Z
4153C0 ?AddToDataGraph@DBObj@@QBEXXZ
4153D0 ?AddRef@DBObj@@UBEKXZ
415400 ?Release@DBObj@@UBEKXZ
415430 ?Get@DBObj@@KAPAV1@ABUQualifiedDataID@@@Z
415450 ?PreFetch@DBObj@@SA?AW4CACHE_OBJECT_CODES@@ABUQualifiedDataID@@@Z
415460 ??0DBObj@@IAE@V?$IDClass@U_tagDataID@@$0CA@$0A@@@@Z
4154A0 ?InitLoad@DBObj@@UAE_NXZ
4154B0 ??1DBObj@@UAE@XZ
4154C0 ?QueryInterface@DBObj@@UAE?AVTResult@@ABUTurbine_GUID@@PAPAX@Z
415520 ?ReloadFromDisk@DBObj@@UBE_NXZ
415550 ?SaveToDisk@DBObj@@UBE_NABVPreprocHeader@@@Z
415590 ?Serialize@DBObj@@UAEXAAVArchive@@@Z
415610 ?Remove@DBObj@@SAXPBV1@@Z
415640 ?GetDIDByEnum@DBObj@@SA?AV?$IDClass@U_tagDataID@@$0CA@$0A@@@JJ@Z
415660 ??E?$IntrusiveHashIterator@UQualifiedDataID@@PAVDBObjSaveInfo@@$00@@QAEAAV0@XZ
4156A0 ??AQualifiedDataIDArray@@QBEABUQualifiedDataID@@K@Z
415710 ??_GDBObj@@UAEPAXI@Z
415730 ?GetByEnum@DBObj@@KAPAV1@JJK@Z
415760 ?FillDataGraph@DBObj@@UBEXAAVIDataGraph@@@Z
415830 ??_E?$IntrusiveHashTable@KPAV?$HashTableData@KV?$PStringBase@D@@@@$0A@@@UAEPAXI@Z
415870 ??_E?$IntrusiveHashTable@KPAV?$HashTableData@KV?$IDClass@U_tagDataID@@$0CA@$0A@@@@@$0A@@@UAEPAXI@Z
4158B0 ?Reset@?$SmartArray@V?$IDClass@U_tagDataID@@$0CA@$0A@@@$00@@QAEXXZ
415910 ?grow@?$SmartArray@V?$IDClass@U_tagDataID@@$0CA@$0A@@@$00@@QAE_NK@Z
4159D0 ?NameToEnum@EnumIDMap@@QBE_NABV?$PStringBase@D@@AAK@Z
415B00 ?GetSubDataIDs@EnumIDMap@@UBEXAAVQualifiedDataIDArray@@@Z
415C10 ?EnumToDID@EnumIDMap@@QBE_NKAAV?$IDClass@U_tagDataID@@$0CA@$0A@@@@Z
415C90 ?GetName@EnumIDMap@@QBE_NKAAV?$PStringBase@D@@@Z
415CE0 ?DIDToEnum@DualEnumIDMap@@QBE_NV?$IDClass@U_tagDataID@@$0CA@$0A@@@AAK@Z
415D30 ??0?$IntrusiveHashTable@KPAV?$HashTableData@KV?$PStringBase@D@@@@$0A@@@QAE@I@Z
415DC0 ??0?$IntrusiveHashTable@KPAV?$HashTableData@KV?$IDClass@U_tagDataID@@$0CA@$0A@@@@@$0A@@@QAE@I@Z
415E50 ?delete_contents@?$IntrusiveHashTable@KPAV?$HashTableData@KV?$PStringBase@D@@@@$0A@@@QAEXXZ
415F00 ?SerializeIntrusiveHashTable@?$@HV?$IntrusiveHashTable@KPAV?$HashTableData@KV?$IDClass@U_tagDataID@@$0CA@$0A@@@@@$0A@@@PAV?$HashTableData@KV?$IDClass@U_tagDataID@@$0CA@$0A@@@@@USB_Default@@@@YAXABHAAV?$IntrusiveHashTable@KPAV?$HashTableData@KV?$IDClass@U_tagDataID@@$0CA@$0A@@@@@$0A@@@AAVArchive@@@Z
416150 ?Destroy@EnumIDMap@@UAEXXZ
416180 ?InitLoad@DualEnumIDMap@@MAE_NXZ
4163B0 ??_E?$HashTable@KV?$PStringBase@D@@$0A@@@UAEPAXI@Z
416410 ??_G?$HashTable@KV?$IDClass@U_tagDataID@@$0CA@$0A@@@$0A@@@UAEPAXI@Z
416470 ?SerializeIntrusiveHashTable@?$@HV?$IntrusiveHashTable@KPAV?$HashTableData@KV?$PStringBase@D@@@@$0A@@@PAV?$HashTableData@KV?$PStringBase@D@@@@USB_Default@@@@YAXABHAAV?$IntrusiveHashTable@KPAV?$HashTableData@KV?$PStringBase@D@@@@$0A@@@AAVArchive@@@Z
416690 ??0EnumIDMap@@QAE@XZ
416700 ?GetDBOType@EnumIDMap@@UBEKXZ
416710 ??1EnumIDMap@@UAE@XZ
416840 ?Allocate@EnumIDMap@@UBEPAVDBObj@@XZ
416850 ?Allocator@EnumIDMap@@SAPAVDBObj@@XZ
416870 ??_GEnumIDMap@@UAEPAXI@Z
416890 ?Serialize@EnumIDMap@@UAEXAAVArchive@@@Z
416950 ?AddObj@DBOCache@@UAE_NPAVDBObj@@@Z
416970 ?KeepFreeObjects@DBOCache@@QAE_N_N@Z
4169A0 ?FreeObject@DBOCache@@MAEXPAVDBObj@@@Z
4169F0 ?FreelistRemove@DBOCache@@MAEXPAVDBObj@@@Z
416A50 ?FreelistRemoveOldest@DBOCache@@MAEPAVDBObj@@XZ
416A70 ?GetFreeObj@DBOCache@@UAEPAVDBObj@@XZ
416AC0 ?UseTime@DBOCache@@QAEXXZ
416B10 ?FlushFreeObjects@DBOCache@@UAEXXZ
416B30 ?ReloadObject@DBOCache@@UAE_NV?$IDClass@U_tagDataID@@$0CA@$0A@@@@Z
416B50 ?FreelistAdd@DBOCache@@MAEXPAVDBObj@@@Z
416BD0 ??_E?$IntrusiveHashTable@V?$IDClass@U_tagDataID@@$0CA@$0A@@@PAV?$HashTableData@V?$IDClass@U_tagDataID@@$0CA@$0A@@@PAVDBObj@@@@$00@@UAEPAXI@Z
416C10 ??_E?$IntrusiveHashTable@KPAV?$HashTableData@KM@@$0A@@@UAEPAXI@Z
416C50 ?IsInMemory@DBOCache@@QAE_NV?$IDClass@U_tagDataID@@$0CA@$0A@@@@Z
416C80 ?DestroyObj@DBOCache@@MAEXPAVDBObj@@@Z
416CD0 ??0?$IntrusiveHashTable@KPAV?$HashTableData@KM@@$0A@@@QAE@I@Z
416D60 ??0?$IntrusiveHashTable@V?$IDClass@U_tagDataID@@$0CA@$0A@@@PAV?$HashTableData@V?$IDClass@U_tagDataID@@$0CA@$0A@@@PAVDBObj@@@@$00@@QAE@I@Z
416DF0 ?grow@?$IntrusiveHashTable@V?$IDClass@U_tagDataID@@$0CA@$0A@@@PAV?$HashTableData@V?$IDClass@U_tagDataID@@$0CA@$0A@@@PAVDBObj@@@@$00@@QAE_NXZ
416E40 ?RemoveObj@DBOCache@@UAE_NV?$IDClass@U_tagDataID@@$0CA@$0A@@@@Z
416EB0 ?GetIfInMemory@DBOCache@@UAEPAVDBObj@@V?$IDClass@U_tagDataID@@$0CA@$0A@@@_N@Z
416F40 ?GetIfUsing@DBOCache@@QAEPAVDBObj@@V?$IDClass@U_tagDataID@@$0CA@$0A@@@@Z
416FA0 ?Release@DBOCache@@UAEKV?$IDClass@U_tagDataID@@$0CA@$0A@@@@Z
417020 ?resize_internal@?$IntrusiveHashTable@V?$IDClass@U_tagDataID@@$0CA@$0A@@@PAV?$HashTableData@V?$IDClass@U_tagDataID@@$0CA@$0A@@@PAVDBObj@@@@$00@@IAE_NK@Z
417160 ?add@?$IntrusiveHashTable@V?$IDClass@U_tagDataID@@$0CA@$0A@@@PAV?$HashTableData@V?$IDClass@U_tagDataID@@$0CA@$0A@@@PAVDBObj@@@@$00@@QAE_NPAV?$HashTableData@V?$IDClass@U_tagDataID@@$0CA@$0A@@@PAVDBObj@@@@@Z
4171E0 ?remove@?$IntrusiveHashTable@V?$IDClass@U_tagDataID@@$0CA@$0A@@@PAV?$HashSetData@V?$IDClass@U_tagDataID@@$0CA@$0A@@@@@$00@@QAEPAV?$HashSetData@V?$IDClass@U_tagDataID@@$0CA@$0A@@@@@ABV?$IDClass@U_tagDataID@@$0CA@$0A@@@@Z
417240 ?add@?$HashTable@V?$IDClass@U_tagDataID@@$0CA@$0A@@@PAVDBObj@@$00@@QAE_NABV?$IDClass@U_tagDataID@@$0CA@$0A@@@ABQAVDBObj@@@Z
417300 ??_E?$HashTable@KM$0A@@@UAEPAXI@Z
417360 ??1DBOCache@@UAE@XZ
417440 ?AddObj_Internal@DBOCache@@MAE_NPAVDBObj@@@Z
4174C0 ?RemoveObj_Internal@DBOCache@@MAEXPAVDBObj@@@Z
417510 ??0DBOCache@@QAE@P6APAVDBObj@@XZK@Z
4175D0 ??_GDBOCache@@UAEPAXI@Z
4175F0 ??0BaseProperty@@QAE@XZ
417600 ??0Cache_Pack_t@@QAE@XZ
417620 ?GetPackBufferPtr@Cache_Pack_t@@QAEPAEXZ
417640 ?GetDataSize@Cache_Pack_t@@QBEKXZ
417660 ?AdoptDBObj@CAsyncRequest@AsyncCache@@QAEXPAVDBObj@@@Z
417680 ?ReleaseDBObj@CAsyncRequest@AsyncCache@@UAEXXZ
4176A0 ??4Cache_Pack_t@@QAEAAV0@ABV0@@Z
4176D0 ?OnRequestFinished@AsyncCache@@MAEXPAUCAsyncRequest@1@@Z
417700 ?OnPurgeRequestFinished@AsyncCache@@MAEXPAUCAsyncPurgeRequest@@@Z
417710 ?UseTime@AsyncCache@@UAEXXZ
417720 ?AddObjToDBOCache@AsyncCache@@MAE_NPAVDBObj@@PAVDBOCache@@@Z
417740 ?GetIfInMemory@AsyncCache@@MAEPAVDBObj@@ABUQualifiedDataID@@PAVDBOCache@@@Z
417770 ?GetFreeObj@AsyncCache@@MAEPAVDBObj@@ABUQualifiedDataID@@PAVDBOCache@@@Z
4177A0 ?LoadData@AsyncCache@@MAE_NABUQualifiedDataID@@AAVCache_Pack_t@@_K@Z
4177E0 ?PurgeData@AsyncCache@@MAE_NABUQualifiedDataID@@_K@Z
417820 ?SaveData@AsyncCache@@MAE_NABUQualifiedDataID@@AAVCache_Pack_t@@_K@Z
417860 ?BlockingPurge@AsyncCache@@UAE_NABUQualifiedDataID@@@Z
417880 ?BlockingSave@AsyncCache@@UAE_NABUQualifiedDataID@@AAVCache_Pack_t@@@Z
4178A0 ??1Cache_Pack_t@@QAE@XZ
4178C0 ?RemoveAllCallbacks@CAsyncRequest@AsyncCache@@QAE_NXZ
417910 ?ReleaseDBObj@CAsyncGetRequest@@UAEXXZ
417960 ?EnqueueAsyncRequest@AsyncCache@@MAEXPAUCAsyncRequest@1@@Z
417A30 ?OnAsyncGetFinished@AsyncCache@@MAEXPAUCAsyncGetRequest@@@Z
417AC0 ?SerializeFromCachePack@AsyncCache@@MAE_NPAVDBObj@@AAVCache_Pack_t@@@Z
417BC0 ?CallPendingCallbacks@AsyncCache@@MAEXXZ
417C60 ?BlockingLoadInto@AsyncCache@@MAE_NPAVDBObj@@ABUQualifiedDataID@@PAVDBOCache@@@Z
417CF0 ?BlockingGetFromDisk@AsyncCache@@MAEPAVDBObj@@ABUQualifiedDataID@@PAVDBOCache@@@Z
417D60 ?Reset@?$SmartArray@UCCallbackWrapper@CAsyncRequest@AsyncCache@@$00@@QAEXXZ
417DB0 ?RemoveCallback@CAsyncRequest@AsyncCache@@QAE_NPAVCCallbackHandler@2@@Z
417E30 ?OnContextReleased@CCallbackHandler@AsyncCache@@QAEXXZ
417EA0 ?AsyncGetImmediate@AsyncCache@@UAEXAAVAsyncContext@@KABVQualifiedDataIDArray@@PAVAsyncCacheCallback@@K@Z
417F60 ?AreOnDisk@AsyncCache@@UAE_NABVQualifiedDataIDArray@@@Z
417FF0 ?grow@?$SmartArray@UCCallbackWrapper@CAsyncRequest@AsyncCache@@$00@@QAE_NK@Z
4180A0 ?grow@?$SmartArray@H$00@@QAE_NK@Z
418140 ?ReadyToUnhash@CAsyncRequest@AsyncCache@@UBE_NXZ
418150 ??1CAsyncRequest@AsyncCache@@MAE@XZ
4181A0 ??1CAsyncGetRequest@@MAE@XZ
4182F0 ?bAllDependanciesDone@CAsyncGetRequest@@UBE_NXZ
418300 ??1CCallbackHandler@AsyncCache@@MAE@XZ
418390 ??_GCAsyncRequest@AsyncCache@@MAEPAXI@Z
4183F0 ??_ECCallbackHandler@AsyncCache@@MAEPAXI@Z
418410 ??0CAsyncGetRequest@@QAE@XZ
418460 ??_GCAsyncGetRequest@@MAEPAXI@Z
418480 ??_GCAsyncPurgeRequest@@UAEPAXI@Z
4184A0 ??_ECAsyncSaveRequest@@UAEPAXI@Z
4184D0 ?next_largest_num_buckets@?$IntrusiveHashTable@UQualifiedDataID@@PAVDBObjSaveInfo@@$00@@KAKK@Z
418510 ?NotifyCallback@AsyncCache@@MAEXPAUCAsyncRequest@1@@Z
418660 ?find@?$HashTable@UQualifiedDataID@@PAUCAsyncGetRequest@@$00@@QBE_NABUQualifiedDataID@@AAPAUCAsyncGetRequest@@@Z
4186A0 ?AddCallback@CAsyncRequest@AsyncCache@@QAEXPAVCCallbackHandler@2@@Z
418700 ?FormGetRequest@AsyncCache@@IAEPAUCAsyncGetRequest@@PAU2@KABUQualifiedDataID@@@Z
4187A0 ?OnSaveRequestFinished@AsyncCache@@MAEXPAUCAsyncSaveRequest@@@Z
418840 ?IsOnDisk@AsyncCache@@UAE_NABUQualifiedDataID@@@Z
4188D0 ?BlockingGet@AsyncCache@@UAEPAVDBObj@@KABUQualifiedDataID@@@Z
4189D0 ?OnAsyncGetFromOtherSourcesFailed@AsyncCache@@MAEXABUQualifiedDataID@@@Z
418A10 ??0?$IntrusiveHashTable@UQualifiedDataID@@PAV?$HashTableData@UQualifiedDataID@@PAUCAsyncGetRequest@@@@$00@@QAE@I@Z
418AA0 ??0?$IntrusiveHashTable@VAsyncContext@@PAV?$HashTableData@VAsyncContext@@PAVCCallbackHandler@AsyncCache@@@@$00@@QAE@I@Z
418B30 ?resize_internal@?$IntrusiveHashTable@UQualifiedDataID@@PAVDBObjSaveInfo@@$00@@IAE_NK@Z
418C40 ?grow@?$IntrusiveHashTable@UQualifiedDataID@@PAVDBObjSaveInfo@@$00@@QAE_NXZ
418C90 ?AddTopLevelRequest@CCallbackHandler@AsyncCache@@QAEXPAUCAsyncRequest@2@@Z
418CF0 ?AddToAsyncGet@AsyncCache@@UAE_NVAsyncContext@@KABVQualifiedDataIDArray@@@Z
418EC0 ?AddToAsyncGet@AsyncCache@@UAE_NVAsyncContext@@ABV?$SmartArray@U?$pair@KVQualifiedDataIDArray@@@_STL@@$00@@@Z
419170 ?FilterSubDataIDs@AsyncCache@@IAEXAAVQualifiedDataIDArray@@K@Z
419240 ?add@?$IntrusiveHashTable@UQualifiedDataID@@PAV?$HashTableData@UQualifiedDataID@@PAUCAsyncGetRequest@@@@$00@@QAE_NPAV?$HashTableData@UQualifiedDataID@@PAUCAsyncGetRequest@@@@@Z
4192B0 ?add@?$IntrusiveHashTable@VAsyncContext@@PAV?$HashTableData@VAsyncContext@@PAVCCallbackHandler@AsyncCache@@@@$00@@QAE_NPAV?$HashTableData@VAsyncContext@@PAVCCallbackHandler@AsyncCache@@@@@Z
419330 ?OnGetRequestFinished@AsyncCache@@MAEXPAUCAsyncGetRequest@@@Z
419470 ?add@?$HashTable@UQualifiedDataID@@PAUCAsyncGetRequest@@$00@@QAE_NABUQualifiedDataID@@ABQAUCAsyncGetRequest@@@Z
4194D0 ?add@?$HashTable@VAsyncContext@@PAVCCallbackHandler@AsyncCache@@$00@@QAE_NABVAsyncContext@@ABQAVCCallbackHandler@AsyncCache@@@Z
419530 ?AllocateCallback@AsyncCache@@IAEPAVCCallbackHandler@1@PAVAsyncCacheCallback@@KK@Z
4195F0 ?CreateContext@AsyncCache@@UAE?AVAsyncContext@@PAVAsyncCacheCallback@@K@Z
419640 ?AsyncGet@AsyncCache@@UAE?AVAsyncContext@@KABUQualifiedDataID@@PAVAsyncCacheCallback@@K@Z
4196F0 ?AsyncGet@AsyncCache@@UAE?AVAsyncContext@@KABVQualifiedDataIDArray@@PAVAsyncCacheCallback@@K@Z
419850 ?AsyncPurge@AsyncCache@@UAE?AVAsyncContext@@ABUQualifiedDataID@@PAVAsyncCacheCallback@@K@Z
419940 ?AsyncPurge@AsyncCache@@UAE?AVAsyncContext@@ABVQualifiedDataIDArray@@PAVAsyncCacheCallback@@K@Z
4199A0 ?AsyncSave@AsyncCache@@UAE?AVAsyncContext@@ABUQualifiedDataID@@AAVCache_Pack_t@@_KPAVAsyncCacheCallback@@K@Z
419AA0 ?HashAndEnqueue@AsyncCache@@MAEXPAUCAsyncGetRequest@@@Z
419AF0 ?UnhashPendingGet@AsyncCache@@MAEXPAUCAsyncGetRequest@@0@Z
419BC0 ?ReleaseContext@AsyncCache@@UAEXVAsyncContext@@@Z
419C40 ?FlushPendingRequests@AsyncCache@@MAEXXZ
419D10 ?IsWaitingFor@AsyncCache@@IAE_NPAUCAsyncGetRequest@@0@Z
419FF0 ?AddToAsyncGet@AsyncCache@@UAE_NKABVQualifiedDataIDArray@@PAX@Z
41A1B0 ??_G?$AutoGrowHashTable@UQualifiedDataID@@PAUCAsyncGetRequest@@@@UAEPAXI@Z
41A210 ??0AsyncCache@@QAE@XZ
41A2A0 ?ExpensiveUpdateIterator@QualifiedDataIDArray@@IBEXK@Z
41A320 ?add@?$IntrusiveHashTable@UQualifiedDataID@@PAVDBObjSaveInfo@@$00@@QAE_NPAVDBObjSaveInfo@@@Z
41A390 ?delete_contents@?$IntrusiveHashTable@_KPAV?$HashTableData@_KPAV?$SmartArray@PAVQualityChangeHandler@@$00@@@@$0A@@@QAEXXZ
41A410 ??1QualifiedDataIDArray@@UAE@XZ
41A450 ?AdoptDBObjSaveInfo@QualifiedDataIDArray@@IAE_NPAVDBObjSaveInfo@@@Z
41A4E0 ?AddQDID@QualifiedDataIDArray@@QAE_NABUQualifiedDataID@@K@Z
41A590 ?CopyDIDs@QualifiedDataIDArray@@QAE_NABV?$SmartArray@V?$IDClass@U_tagDataID@@$0CA@$0A@@@$00@@K@Z
41A5F0 ?GetCoreSDKPackVersionFromDBObjPackVersion@@YAKK@Z
41A600 ??_G?$IntrusiveHashTable@KPAV?$HashTableData@KVArchiveVersionRow@@@@$0A@@@UAEPAXI@Z
41A640 ??0?$IntrusiveHashTable@KPAV?$HashTableData@KVArchiveVersionRow@@@@$0A@@@QAE@I@Z
41A6D0 ?delete_contents@?$IntrusiveHashTable@KPAV?$HashTableData@KVArchiveVersionRow@@@@$0A@@@QAEXXZ
41A770 ?add@?$HashTable@KVArchiveVersionRow@@$0A@@@QAE_NABKABVArchiveVersionRow@@@Z
41A810 ?GetVersionRowForDBObjPackVersion@@YAABVArchiveVersionRow@@K@Z
41A910 ??_G?$HashTable@KVArchiveVersionRow@@$0A@@@UAEPAXI@Z
41A970 ?ReleaseSubObjects@EnumMapper@@UAE_NXZ
41A990 ?GetSubObjects@EnumMapper@@UAE_NXZ
41A9D0 ??_E?$IntrusiveHashTable@KPAV?$HashTableData@KV?$CaseInsensitiveStringBase@V?$PStringBase@D@@@@@@$00@@UAEPAXI@Z
41AA10 ??_G?$IntrusiveHashTable@V?$CaseInsensitiveStringBase@V?$PStringBase@D@@@@PAV?$HashTableData@V?$CaseInsensitiveStringBase@V?$PStringBase@D@@@@K@@$00@@UAEPAXI@Z
41AA50 ?case_insensitive_hash@?$CaseInsensitiveStringBase@V?$PStringBase@D@@@@QBEKXZ
41AAA0 ?AddDID@QualifiedDataIDArray@@QAE_NV?$IDClass@U_tagDataID@@$0CA@$0A@@@K@Z
41AAD0 ?GetSubDataIDs@EnumMapper@@UBEXAAVQualifiedDataIDArray@@@Z
41AB00 ??9iterator@EnumMapper@@QBE_NABV01@@Z
41AB50 ?get_enum@iterator@EnumMapper@@QBEKXZ
41AB60 ?get_string@iterator@EnumMapper@@QBE?BV?$PStringBase@D@@XZ
41AB80 ??0?$PStringBase@G@@QAE@ABV0@@Z
41ABA0 ??0?$DBObjGrabber@VEnumMapper@@@@QAE@V?$IDClass@U_tagDataID@@$0CA@$0A@@@@Z
41ABD0 ??0?$DBObjGrabber@VEnumIDMap@@@@QAE@V?$IDClass@U_tagDataID@@$0CA@$0A@@@@Z
41AC00 ??0?$DBObjGrabber@VDualEnumIDMap@@@@QAE@V?$IDClass@U_tagDataID@@$0CA@$0A@@@@Z
41AC30 ?end@EnumMapper@@QBE?AViterator@1@XZ
41AC60 ??0iterator@EnumMapper@@QAE@PBV1@ABV?$HashIterator@KV?$CaseInsensitiveStringBase@V?$PStringBase@D@@@@$00@@@Z
41AD00 ?begin@EnumMapper@@QBE?AViterator@1@XZ
41AD50 ??Eiterator@EnumMapper@@QAEAAV01@XZ
41AE30 ?find@?$HashTable@KV?$PStringBase@G@@$0A@@@QBE_NABKAAV?$PStringBase@G@@@Z
41AEB0 ?find_internal@?$IntrusiveHashTable@V?$CaseInsensitiveStringBase@V?$PStringBase@D@@@@PAVCmdHashData@ClientCommunicationSystem@@$00@@IBE?AV?$IntrusiveHashIterator@V?$CaseInsensitiveStringBase@V?$PStringBase@D@@@@PAVCmdHashData@ClientCommunicationSystem@@$00@@ABV?$CaseInsensitiveStringBase@V?$PStringBase@D@@@@@Z
41AF10 ?grow@?$IntrusiveHashTable@V?$CaseInsensitiveStringBase@V?$PStringBase@D@@@@PAV?$HashTableData@V?$CaseInsensitiveStringBase@V?$PStringBase@D@@@@K@@$00@@QAE_NXZ
41AF60 ?GetString@EnumMapper@@QBE_NKAAV?$PStringBase@D@@@Z
41B060 ?GetString@EnumMapper@@SA_NKKAAV?$PStringBase@D@@@Z
41B160 ?InqString@EnumMapper@@SA_NKKAAV?$PStringBase@G@@@Z
41B220 ?GetStringByDID@EnumMapper@@SA_NV?$IDClass@U_tagDataID@@$0CA@$0A@@@KAAV?$PStringBase@D@@@Z
41B2C0 ??_G?$AutoGrowHashTable@V?$CaseInsensitiveStringBase@V?$PStringBase@D@@@@K@@UAEPAXI@Z
41B320 ??0?$IntrusiveHashTable@KPAV?$HashTableData@KV?$CaseInsensitiveStringBase@V?$PStringBase@D@@@@@@$00@@QAE@I@Z
41B3B0 ??0?$IntrusiveHashTable@V?$CaseInsensitiveStringBase@V?$PStringBase@D@@@@PAV?$HashTableData@V?$CaseInsensitiveStringBase@V?$PStringBase@D@@@@K@@$00@@QAE@I@Z
41B440 ?add_internal@?$IntrusiveHashTable@V?$CaseInsensitiveStringBase@V?$PStringBase@D@@@@PAV?$HashTableData@V?$CaseInsensitiveStringBase@V?$PStringBase@D@@@@K@@$00@@AAEXPAV?$HashTableData@V?$CaseInsensitiveStringBase@V?$PStringBase@D@@@@K@@@Z
41B490 ?GetEnum@EnumMapper@@QBEKV?$PStringBase@D@@@Z
41B570 ?resize_internal@?$IntrusiveHashTable@V?$CaseInsensitiveStringBase@V?$PStringBase@D@@@@PAV?$HashTableData@V?$CaseInsensitiveStringBase@V?$PStringBase@D@@@@K@@$00@@IAE_NK@Z
41B6B0 ?resize_internal@?$IntrusiveHashTable@KPAV?$HashTableData@KV?$CaseInsensitiveStringBase@V?$PStringBase@D@@@@@@$00@@IAE_NK@Z
41B7E0 ?GetEnum@EnumMapper@@QBE_NV?$PStringBase@D@@AAK@Z
41B8F0 ?GetEnum@EnumMapper@@SA_NKV?$PStringBase@D@@AAK@Z
41BA30 ?InqEnum@EnumMapper@@SA_NKV?$PStringBase@G@@AAK@Z
41BAC0 ?GetEnumByDID@EnumMapper@@SA_NV?$IDClass@U_tagDataID@@$0CA@$0A@@@V?$PStringBase@D@@AAK@Z
41BBE0 ?set@?$HashTable@V?$CaseInsensitiveStringBase@V?$PStringBase@D@@@@K$00@@QAE_NABV?$CaseInsensitiveStringBase@V?$PStringBase@D@@@@ABK@Z
41BC70 ?resize@?$IntrusiveHashTable@KPAV?$HashTableData@KV?$CaseInsensitiveStringBase@V?$PStringBase@D@@@@@@$00@@QAE_NK@Z
41BCC0 ?SerializeIntrusiveHashTable@?$@HV?$IntrusiveHashTable@KPAV?$HashTableData@KV?$CaseInsensitiveStringBase@V?$PStringBase@D@@@@@@$00@@PAV?$HashTableData@KV?$CaseInsensitiveStringBase@V?$PStringBase@D@@@@@@USB_Default@@@@YAXABHAAV?$IntrusiveHashTable@KPAV?$HashTableData@KV?$CaseInsensitiveStringBase@V?$PStringBase@D@@@@@@$00@@AAVArchive@@@Z
41BEE0 ?Destroy@EnumMapper@@UAEXXZ
41BF20 ??_E?$AutoGrowHashTable@KV?$CaseInsensitiveStringBase@V?$PStringBase@D@@@@@@UAEPAXI@Z
41BF80 ??1EnumMapper@@UAE@XZ
41C040 ?GetDBOType@EnumMapper@@UBEKXZ
41C050 ??0EnumMapper@@QAE@XZ
41C0C0 ??_GEnumMapper@@UAEPAXI@Z
41C0E0 ?Allocate@EnumMapper@@UBEPAVDBObj@@XZ
41C0F0 ?Allocator@EnumMapper@@SAPAVDBObj@@XZ
41C110 ?Serialize@EnumMapper@@UAEXAAVArchive@@@Z
41C220 ?Init@MasterDBMap@@SA_NPAV1@@Z
41C240 ?Cleanup@MasterDBMap@@SA_NXZ
41C260 ?DivineType@MasterDBMap@@SAKABV?$PStringBase@D@@@Z
41C280 ?DivineType@MasterDBMap@@SAKV?$IDClass@U_tagDataID@@$0CA@$0A@@@@Z
41C2A0 ??_G?$IntrusiveHashTable@KPAV?$HashTableData@KVDBTypeDef@@@@$0A@@@UAEPAXI@Z
41C2E0 ?SetGameDataDir@MasterDBMap@@SAXABV?$PStringBase@D@@@Z
41C330 ?SetEngineDataDir@MasterDBMap@@SAXABV?$PStringBase@D@@@Z
41C380 ??0DBTypeDef@@QAE@XZ
41C400 ?GetDBTypeDef@MasterDBMap@@SAABVDBTypeDef@@K@Z
41C480 ?IsPortalType@MasterDBMap@@SA_NK@Z
41C4A0 ?IsCellType@MasterDBMap@@SA_NK@Z
41C4C0 ?IsLocalType@MasterDBMap@@SA_NK@Z
41C4E0 ?IsCategorized@MasterDBMap@@SA_NK@Z
41C500 ?GetFreelistDef@MasterDBMap@@SAABVFreelistDef@@K@Z
41C520 ?VerifyDirectory@MasterDBMap@@SA_NV?$PStringBase@D@@K@Z
41C670 ??0?$IntrusiveHashTable@KPAV?$HashTableData@KVDBTypeDef@@@@$0A@@@QAE@I@Z
41C700 ?delete_contents@?$IntrusiveHashTable@KPAV?$HashTableData@KVDBTypeDef@@@@$0A@@@QAEXXZ
41C820 ??_E?$HashTable@KVDBTypeDef@@$0A@@@UAEPAXI@Z
41C880 ?DivineType_Internal@MasterDBMap@@MBEKV?$IDClass@U_tagDataID@@$0CA@$0A@@@@Z
41CCC0 ?tolower@?$PStringBase@D@@QAEXXZ
41CCE0 ?DivineType_Internal@MasterDBMap@@MBEKABV?$PStringBase@D@@@Z
41E0C0 ?InqTypeByString_Internal@MasterDBMap@@MBE_NABV?$PStringBase@D@@AAK@Z
41F230 ??4?$SmartArray@V?$PStringBase@D@@$00@@QAEAAV0@ABV0@@Z
41F370 ?InqStringByType_Internal@MasterDBMap@@MBE_NKAAV?$PStringBase@D@@@Z
41F850 ??0DBTypeDef@@QAE@ABV0@@Z
41F900 ?add@?$HashTable@KVDBTypeDef@@$0A@@@QAE_NABKABVDBTypeDef@@@Z
41F9A0 ?InitDBTypeDef_Internal@MasterDBMap@@MAE_NXZ
4220B0 ??0QualifiedDataID@@QAE@V?$IDClass@U_tagDataID@@$0CA@$0A@@@K@Z
4220E0 ?GetNumDecDigits@CLanguageInfoInterface@@QBE_NAAG@Z
422100 ?GetLeadingZero@CLanguageInfoInterface@@QBE_NAA_N@Z
422120 ?GetBase@CLanguageInfoInterface@@QBE_NAAG@Z
422140 ?GetGroupingSize@CLanguageInfoInterface@@QBE_NAAG@Z
422160 ?IsNumberSingular@CLanguageInfoInterface@@QBE_NJ@Z
4221C0 ?Startup@CLanguageInfoInterface@@SA_NXZ
422210 ?Shutdown@CLanguageInfoInterface@@SA_NXZ
422250 ?SerializeObject@Serializer@@YAXAA_NAAVArchive@@@Z
4222A0 ??0CLanguageInfo@@QAE@XZ
422370 ?GetPackSize@BodyPartSelectionData@@UAEIXZ
422380 ??1CLanguageInfo@@UAE@XZ
4224C0 ?Allocate@CLanguageInfo@@UBEPAVDBObj@@XZ
4224D0 ?Allocator@CLanguageInfo@@SAPAVDBObj@@XZ
4224F0 ??_ECLanguageInfo@@UAEPAXI@Z
422510 ?GetNumerals@CLanguageInfoInterface@@QBE_NAAV?$PStringBase@G@@@Z
422560 ?GetGroupingSeperator@CLanguageInfoInterface@@QBE_NAAV?$PStringBase@G@@@Z
4225B0 ?GetDecimalSeperator@CLanguageInfoInterface@@QBE_NAAV?$PStringBase@G@@@Z
422600 ?GetNegNumFormat@CLanguageInfoInterface@@QBE_NAAV?$PStringBase@G@@@Z
422650 ?GetMaleMetaLetters@CLanguageInfoInterface@@QBE_NAAV?$PStringBase@G@@@Z
4226A0 ?GetFemaleMetaLetters@CLanguageInfoInterface@@QBE_NAAV?$PStringBase@G@@@Z
4226F0 ?GetTreasureMetaLetters@CLanguageInfoInterface@@QBE_NAAV?$PStringBase@G@@00@Z
4227D0 ?Serialize@?$PStringBase@G@@QAEXAAVArchive@@@Z
422870 ?Serialize@CLanguageInfo@@UAEXAAVArchive@@@Z
422D00 ?fill@_STL@@YAXPAPAX0ABQAX@Z
422D20 ?__lower_bound@_STL@@YAPBIPBI0ABIU?$less@I@1@PAH@Z
422D60 ?_M_find@?$hashtable@U?$pair@$$CBV?$PStringBase@D@@V1@@_STL@@V?$PStringBase@D@@U?$hash@V?$PStringBase@D@@@2@U?$_Select1st@U?$pair@$$CBV?$PStringBase@D@@V1@@_STL@@@2@U?$equal_to@V?$PStringBase@D@@@2@V?$allocator@U?$pair@$$CBV?$PStringBase@D@@V1@@_STL@@@2@@_STL@@ABEPAU?$_Hashtable_node@U?$pair@$$CBV?$PStringBase@D@@V1@@_STL@@@2@ABV?$PStringBase@D@@@Z
422DC0 ?_M_allocate_and_copy@?$vector@PAXV?$allocator@PAX@_STL@@@_STL@@IAEPAPAXIPAPAX0@Z
422E10 ?reserve@?$vector@PAXV?$allocator@PAX@_STL@@@_STL@@QAEXI@Z
422EB0 ??0?$vector@PAXV?$allocator@PAX@_STL@@@_STL@@QAE@IABQAXABV?$allocator@PAX@1@@Z
422F20 ?_M_fill_insert@?$vector@PAXV?$allocator@PAX@_STL@@@_STL@@QAEXPAPAXIABQAX@Z
423040 ?clear@?$hashtable@U?$pair@$$CBV?$PStringBase@D@@V1@@_STL@@V?$PStringBase@D@@U?$hash@V?$PStringBase@D@@@2@U?$_Select1st@U?$pair@$$CBV?$PStringBase@D@@V1@@_STL@@@2@U?$equal_to@V?$PStringBase@D@@@2@V?$allocator@U?$pair@$$CBV?$PStringBase@D@@V1@@_STL@@@2@@_STL@@QAEXXZ
423110 ?resize@?$hashtable@U?$pair@$$CBV?$PStringBase@D@@V1@@_STL@@V?$PStringBase@D@@U?$hash@V?$PStringBase@D@@@2@U?$_Select1st@U?$pair@$$CBV?$PStringBase@D@@V1@@_STL@@@2@U?$equal_to@V?$PStringBase@D@@@2@V?$allocator@U?$pair@$$CBV?$PStringBase@D@@V1@@_STL@@@2@@_STL@@QAEXI@Z
423220 ?_M_insert@?$hashtable@U?$pair@$$CBV?$PStringBase@D@@V1@@_STL@@V?$PStringBase@D@@U?$hash@V?$PStringBase@D@@@2@U?$_Select1st@U?$pair@$$CBV?$PStringBase@D@@V1@@_STL@@@2@U?$equal_to@V?$PStringBase@D@@@2@V?$allocator@U?$pair@$$CBV?$PStringBase@D@@V1@@_STL@@@2@@_STL@@QAEAAU?$pair@$$CBV?$PStringBase@D@@V1@@2@ABU32@@Z
4232D0 ??A?$hash_map@V?$PStringBase@D@@V1@U?$hash@V?$PStringBase@D@@@_STL@@U?$equal_to@V?$PStringBase@D@@@3@V?$allocator@U?$pair@$$CBV?$PStringBase@D@@V1@@_STL@@@3@@_STL@@QAEAAV?$PStringBase@D@@ABV2@@Z
4233C0 ?_M_initialize_buckets@?$hashtable@U?$pair@$$CBV?$PStringBase@D@@V1@@_STL@@V?$PStringBase@D@@U?$hash@V?$PStringBase@D@@@2@U?$_Select1st@U?$pair@$$CBV?$PStringBase@D@@V1@@_STL@@@2@U?$equal_to@V?$PStringBase@D@@@2@V?$allocator@U?$pair@$$CBV?$PStringBase@D@@V1@@_STL@@@2@@_STL@@AAEXI@Z
423430 ?CompleteProjectPath@ProjectSettings@@SA?BV?$PStringBase@D@@ABV2@@Z
4234D0 ??1BaseProperty@@QAE@XZ
423510 ?InqDataID@DataFilePropertyValue@@UBE_NAAV?$IDClass@U_tagDataID@@$0CA@$0A@@@@Z
423520 ?SetTriState@TriStatePropertyValue@@UAE_NW4TriState@@@Z
423530 ?SetValue@Bitfield32PropertyValue@@UAE_NABVBasePropertyValue@@@Z
423550 ?Compare@Bitfield32PropertyValue@@UBE_NPBVBasePropertyValue@@@Z
423590 ?InqLessThan@Bitfield32PropertyValue@@UBE_NPBVBasePropertyValue@@AA_N@Z
4235D0 ??_4Bitfield32PropertyValue@@UAEXABVBasePropertyValue@@@Z
423600 ?on@Bitfield32PropertyValue@@UAEXABVBasePropertyValue@@@Z
423630 ??_6Bitfield32PropertyValue@@UAEXABVBasePropertyValue@@@Z
423660 ??9Bitfield32PropertyValue@@UBE_NABVBasePropertyValue@@@Z
423690 ??8Bitfield32PropertyValue@@UBE_NABVBasePropertyValue@@@Z
4236C0 ?contains@Bitfield32PropertyValue@@UBE_NABVBasePropertyValue@@@Z
423700 ?off@Bitfield32PropertyValue@@UAEXABVBasePropertyValue@@@Z
423730 ?toggle@Bitfield32PropertyValue@@UAEXXZ
423740 ?Copy@Bitfield32PropertyValue@@UBEPAVBasePropertyValue@@XZ
423770 ?InqTimeStamp@TimeStampPropertyValue@@UBE_NAAN@Z
423790 ?SetBitfield64@Bitfield64PropertyValue@@UAE_N_K@Z
423AD0 ?Serialize@LongIntegerPropertyValue@@UAEXAAVArchive@@K@Z
423F40 ??8RGBAColor@@QBE_NABV0@@Z
424000 ?GetColor32@RGBAColor@@QBE?BKXZ
424150 ?HasValidData@EnumPropertyValue@@UBE_NXZ
424900 ?SetValue@LongIntegerPropertyValue@@UAE_NABVBasePropertyValue@@@Z
424920 ?Compare@LongIntegerPropertyValue@@UBE_NPBVBasePropertyValue@@@Z
424970 ?InqLessThan@LongIntegerPropertyValue@@UBE_NPBVBasePropertyValue@@AA_N@Z
4249D0 ??YLongIntegerPropertyValue@@UAEXABVBasePropertyValue@@@Z
424A10 ??ZLongIntegerPropertyValue@@UAEXABVBasePropertyValue@@@Z
424A50 ??XLongIntegerPropertyValue@@UAEXABVBasePropertyValue@@@Z
424A90 ??_0LongIntegerPropertyValue@@UAEXABVBasePropertyValue@@@Z
424AD0 ??OLongIntegerPropertyValue@@UBE_NABVBasePropertyValue@@@Z
424B20 ??PLongIntegerPropertyValue@@UBE_NABVBasePropertyValue@@@Z
424B70 ??MLongIntegerPropertyValue@@UBE_NABVBasePropertyValue@@@Z
424BC0 ??NLongIntegerPropertyValue@@UBE_NABVBasePropertyValue@@@Z
424C10 ??9LongIntegerPropertyValue@@UBE_NABVBasePropertyValue@@@Z
424C60 ??8LongIntegerPropertyValue@@UBE_NABVBasePropertyValue@@@Z
424CB0 ?Copy@LongIntegerPropertyValue@@UBEPAVBasePropertyValue@@XZ
424CE0 ??0Frame@@QAE@XZ
424D10 ??0Position@@QAE@XZ
424D50 ??0PositionPropertyValue@@QAE@XZ
424D90 ?HasValidData@PositionPropertyValue@@UBE_NXZ
424DA0 ?SetValue@PositionPropertyValue@@UAE_NABVBasePropertyValue@@@Z
424DC0 ?Serialize@PositionPropertyValue@@UAEXAAVArchive@@K@Z
424DD0 ?Compare@PositionPropertyValue@@UBE_NPBVBasePropertyValue@@@Z
424E90 ?is_equal@Frame@@QBEHABV1@@Z
424ED0 ?is_quaternion_equal@Frame@@QBEHABV1@@Z
424F40 ?AreEqual@Vector3Math@@YA_NABVVector3@@0M@Z
424F90 ??_GPositionPropertyValue@@UAEPAXI@Z
4254B0 ?SerializePrimitive@Serializer@@YAXAANAAVArchive@@@Z
425A40 ??_GTriStatePropertyValue@@UAEPAXI@Z
425AE0 ??_EBaseProperty@@QAEPAXI@Z
425BA0 ??0MasterPropertyGrabber@@QAE@XZ
425CA0 ?Clone@FileNodeName_Float@@UBEPAVIFileNodeName@@XZ
425D50 ?Clone@FileNodeName_Hex@@UBEPAVIFileNodeName@@XZ
425D80 ?Clone@FileNodeName_UInt32@@UBEPAVIFileNodeName@@XZ
425E30 ?Clone@FileNodeName_Int32@@UBEPAVIFileNodeName@@XZ
425E60 ??_GFileNodeName_UInt32@@UAEPAXI@Z
425E80 ?Serialize@FileNodeName_Int32@@UAEXAAVArchive@@@Z
425EA0 ?Copy@PositionPropertyValue@@UBEPAVBasePropertyValue@@XZ
425F10 ??4Frame@@QAEAAV0@ABV0@@Z
425F80 ?FromFileNode@PositionPropertyValue@@UAE_NABVBasePropertyDesc@@PBVPFileNode@@@Z
426020 ?GetNameAsPString@PFileNode@@QBE_NAAV?$PStringBase@D@@@Z
4260F0 ?Clone@FileNodeName_PString@@UBEPAVIFileNodeName@@XZ
426120 ?FromPString@FileNodeName_PString@@UAE_NABV?$PStringBase@D@@@Z
426140 ?ToPString@FileNodeName_PString@@UBE?AV?$PStringBase@D@@XZ
426160 ??_GFileNodeName_PString@@UAEPAXI@Z
426190 ?InqPosition@PositionPropertyValue@@UBE_NAAVPosition@@@Z
4261B0 ?SetPosition@PositionPropertyValue@@UAE_NABVPosition@@@Z
4262E0 ?SetValue@StringPropertyValue@@UAE_NABVBasePropertyValue@@@Z
426300 ?HasValidData@StringPropertyValue@@UBE_NXZ
426320 ?Copy@StringPropertyValue@@UBEPAVBasePropertyValue@@XZ
426360 ?FromFileNode@StringPropertyValue@@UAE_NABVBasePropertyDesc@@PBVPFileNode@@@Z
426390 ?InqString@StringPropertyValue@@UBE_NAAV?$PStringBase@D@@@Z
4263B0 ?SetString@StringPropertyValue@@UAE_NABV?$PStringBase@D@@@Z
4263D0 ?GetValueAsString@StringPropertyValue@@UBE_NABVBasePropertyDesc@@AAV?$PStringBase@D@@_N@Z
4263F0 ?Compare@StringPropertyValue@@UBE_NPBVBasePropertyValue@@@Z
426490 ??9StringPropertyValue@@UBE_NABVBasePropertyValue@@@Z
426520 ??9?$PStringBase@D@@QBE_NABV0@@Z
4265A0 ??8StringPropertyValue@@UBE_NABVBasePropertyValue@@@Z
426630 ??_GStringPropertyValue@@UAEPAXI@Z
4266F0 ?Serialize@EnumPropertyValue@@UAEXAAVArchive@@K@Z
426910 ?InqPropertyGroupNameStringStatic@MasterProperty@@SA_NKAAV?$PStringBase@D@@@Z
426990 ?GetHash@StructPropertyValue@@UBEPBV?$AutoGrowHashTable@KVBaseProperty@@@@XZ
426CB0 ?GetNameAsFloat@PFileNode@@QBE_NAAM@Z
426F50 ?ToFileNode@StringPropertyValue@@UBE_NABVBasePropertyDesc@@PAVPFileNode@@@Z
426F90 ?MakeSubNode@PFileNode@@QAEPAV1@V?$PStringBase@D@@@Z
426FE0 ?MakeSubNodeAsPString@PFileNode@@QAEPAV1@V?$PStringBase@D@@@Z
427050 ?SetNameAsPString@PFileNode@@QAEXV?$PStringBase@D@@@Z
427240 ?InqAvailablePropertiesByPropertyGroup@MasterProperty@@QBE_NKAAVAvailablePropertySet@@@Z
4273A0 ?grow@?$SmartArray@VBaseProperty@@$00@@QAE_NK@Z
4276E0 ?Serialize@FileNodeName_PString@@UAEXAAVArchive@@@Z
427730 ?FromFileNode@LongIntegerPropertyValue@@UAE_NABVBasePropertyDesc@@PBVPFileNode@@@Z
4278D0 ?ToFileNode@LongIntegerPropertyValue@@UBE_NABVBasePropertyDesc@@PAVPFileNode@@@Z
4279C0 ?GetValueAsString@LongIntegerPropertyValue@@UBE_NABVBasePropertyDesc@@AAV?$PStringBase@D@@_N@Z
427B20 ?ToFileNode@PositionPropertyValue@@UBE_NABVBasePropertyDesc@@PAVPFileNode@@@Z
427B70 ?GetValueAsString@PositionPropertyValue@@UBE_NABVBasePropertyDesc@@AAV?$PStringBase@D@@_N@Z
427F40 ?Serialize@StringPropertyValue@@UAEXAAVArchive@@K@Z
428580 ??0?$IntrusiveHashTable@KPAV?$HashTableData@KVBaseProperty@@@@$00@@QAE@I@Z
428BA0 ?remove@?$IntrusiveHashTable@KPAV?$HashTableData@KPAVStringInfoData@@@@$0A@@@QAEXV?$IntrusiveHashIterator@KPAV?$HashTableData@KPAVStringInfoData@@@@$0A@@@@Z
428BE0 ?delete_contents@?$IntrusiveHashTable@KPAV?$HashTableData@KVBaseProperty@@@@$00@@QAEXXZ
429120 ?set@?$HashTable@KVBaseProperty@@$00@@QAE_NABKABVBaseProperty@@@Z
429290 ??4?$HashTable@KVBaseProperty@@$00@@QAEAAV0@ABV0@@Z
429980 ?IsServerOnlyData@BaseProperty@@QBE_NXZ
4299A0 ?IsToolOnly@BaseProperty@@QBE_NXZ
429A00 ?GetPropertyName@BaseProperty@@QBEKXZ
429A10 ?GetGroupName@BaseProperty@@QBEKXZ
429A50 ?to_int32@?$PStringBase@D@@QBEJXZ
429AB0 ??4BaseProperty@@QAEAAV0@ABV0@@Z
429B10 ?CheckCopyOnWrite@BaseProperty@@IAEXXZ
429BC0 BaseProperty::SetEnum
429C00 BaseProperty::SetStringInfo
429C70 ?begin@?$HashTable@KVBaseProperty@@$00@@QBE?AV?$HashIterator@KVBaseProperty@@$00@@XZ
429EA0 ?ToFileNode@BaseProperty@@QBE_NPAVPFileNode@@@Z
42A2D0 ?SetPropertyName@BaseProperty@@QAE_NK@Z
42A420 ?FromFileNode@BaseProperty@@QAE_NPBVPFileNode@@@Z
42AB60 ?resize@?$IntrusiveHashTable@KPAV?$HashTableData@KV?$PStringBase@D@@@@$0A@@@QAE_NK@Z
42ADB0 ?FromFileNode@Bitfield32PropertyValue@@UAE_NABVBasePropertyDesc@@PBVPFileNode@@@Z
42AE60 ?ToFileNode@Bitfield32PropertyValue@@UBE_NABVBasePropertyDesc@@PAVPFileNode@@@Z
42AFD0 ?GetValueAsString@Bitfield32PropertyValue@@UBE_NABVBasePropertyDesc@@AAV?$PStringBase@D@@_N@Z
42BD40 ?add@?$IntrusiveHashTable@W4PixelFormatID@@PAV?$HashTableData@W4PixelFormatID@@PAV?$HashTable@KPAVImgTex@@$0A@@@@@$0A@@@QAE_NPAV?$HashTableData@W4PixelFormatID@@PAV?$HashTable@KPAVImgTex@@$0A@@@@@@Z
42C290 ?add@?$HashTable@KVBaseProperty@@$00@@QAE_NABKABVBaseProperty@@@Z
42C6B0 ?Seed@Random@@SAXJ@Z
42C720 ?rand@Random@@KANXZ
42C800 ?Seed@Random@@SAXXZ
42C820 ?RollDice@Random@@SAJJJ@Z
42C860 ?RollDice@Random@@SAMMM@Z
42C8C0 ??8?$PStringBase@G@@QBE_NABV0@@Z
42C900 ??_G?$IntrusiveHashTable@KPAV?$HashTableData@KPAVStringInfoData@@@@$0A@@@UAEPAXI@Z
42C940 ??_G?$IntrusiveHashTable@KPAV?$HashTableData@KV?$PStringBase@G@@@@$0A@@@UAEPAXI@Z
42C980 ?SetTableEnum@StringInfo@@QAEXJ@Z
42C9C0 ?SetStringIDandTableEnum@StringInfo@@QAEXKJ@Z
42CA10 ?SetStringIDandTableID@StringInfo@@QAEXKV?$IDClass@U_tagDataID@@$0CA@$0A@@@@Z
42CA50 ?InqStringTableFile@StringInfo@@QBE_NAAV?$PStringBase@D@@@Z
42CAF0 ??0?$DBObjGrabber@VStringTable@@@@QAE@V?$IDClass@U_tagDataID@@$0CA@$0A@@@@Z
42CB20 ??E?$IntrusiveHashIterator@KPAV?$HashTableData@KPAVStringInfoData@@@@$0A@@@QAE?AV0@H@Z
42CBE0 ?SetLiteralValue@StringInfo@@QAEXABV?$PStringBase@G@@_N@Z
42CE00 ?IsValid@StringInfo@@QBE_N_N@Z
42D4F0 ??H@YA?AV?$PStringBase@G@@PBGABV0@@Z
42DC80 ??0StringInfo@@QAE@XZ
42DD10 ?Reset@StringInfo@@QAEXXZ
42DE30 ??4StringInfo@@QAEABV0@ABV0@@Z
42E000 ?AddVariable_Int@StringInfo@@QAEXK_J@Z
42E040 ?AddVariable_UInt@StringInfo@@QAEXK_K@Z
42E080 ?AddVariable_Float@StringInfo@@QAEXKNG@Z
42E510 ??0StringInfo@@QAE@ABV0@@Z
42E590 ??1StringInfo@@QAE@XZ
42E660 ?AddVariable_StringInfo@StringInfo@@QAEXKABV1@@Z
42E740 ?GetLogString@StringInfo@@QBE?AV?$PStringBase@G@@_N@Z
42E8E0 ?AddVariable_String@StringInfo@@QAEXKV?$PStringBase@G@@@Z
42E980 ?GetString@StringInfo@@QBE?AV?$PStringBase@G@@_N@Z
42E9F0 ?AddVariable_String@StringInfo@@QAEXKV?$PStringBase@D@@@Z
42FB60 ??M?$PStringBase@D@@QBE_NABV0@@Z
4300A0 ?sprintf_append@?$PStringBase@G@@QAAJPBGZZ
430CD0 ?SetColor32@RGBAColor@@QAEXK@Z
430D70 ?CleanupPreferences@CIme@@YA_NXZ
430D80 ?InitPreferences@CIme@@YA_NXZ
430DE0 ??_EICIDM@@UAEPAXI@Z
430E00 ?OnStartup@CInputManager@@UAE_NJ@Z
430E50 ?SetActionMap@CInputManager@@UAE_NK@Z
430E90 ?OnSwitchMouseMode@CInputManager@@MAEX_N@Z
430EA0 ?CallKeyHitHandler@CInputManager@@IAE_NABVQualifiedControl@@AAK@Z
430EC0 ?StartAction@CInputManager@@IAEXAAVInputEvent@@@Z
430EE0 ??0InputEvent@@QAE@XZ
430F20 ?Reset@?$SmartArray@USingleKeyInfo@ActionState@@$00@@QAEXXZ
430F90 ?GetExtent@ActionState@@QBEMXZ
430FF0 ??0InputEvent@@QAE@ABVActionState@@@Z
431050 ??_G?$IntrusiveHashTable@KPAVActionState@@$00@@UAEPAXI@Z
431090 ?RegisterPreference@UserPreferences@@SEXPAMABV?$PStringBase@D@@1P6AX1@ZKPBV2@PBK@Z
431110 ?grow@?$SmartArray@USingleKeyInfo@ActionState@@$00@@QAE_NK@Z
4311D0 ?insert@?$List@PAVCInputHandler@@@@IAE_NPAV?$ListNode@PAVCInputHandler@@@@ABQAVCInputHandler@@@Z
431250 ?push_back@?$List@UInputMapEntry@CInputManager@@@@QAE_NABUInputMapEntry@CInputManager@@@Z
4312C0 ?insert@?$List@UInputMapEntry@CInputManager@@@@IAE_NPAV?$ListNode@UInputMapEntry@CInputManager@@@@ABUInputMapEntry@CInputManager@@@Z
431350 ?CallCharacterHandler@CInputManager@@IAEXG@Z
431390 ?CallMouseMoveHandler@CInputManager@@IAEXJJ@Z
4313C0 ?CallMouseLookHandler@CInputManager@@IAEXJJ@Z
4313F0 ?CallFocusSwitchHandler@CInputManager@@IAEX_N@Z
431440 ?SendActionToListeners@CInputManager@@MAEXAAVInputEvent@@@Z
431480 ?remove@?$List@UInputMapEntry@CInputManager@@@@IAE_NPAV?$ListNode@UInputMapEntry@CInputManager@@@@@Z
4314F0 ?remove@?$List@PAVNoticeHandler@@@@IAE_NPAV?$ListNode@PAVNoticeHandler@@@@@Z
431560 ?SetMouseLookMode@CInputManager@@UAEX_N@Z
431590 ?SetTextMode@CInputManager@@UAEX_N@Z
4315C0 ?RemoveKeyPress@ActionState@@QAE?AW4ActionStateChangeType@@AAVInputEvent@@@Z
4316B0 ?insert_sort@?$List@UInputMapEntry@CInputManager@@@@QAE_NABUInputMapEntry@CInputManager@@@Z
4316F0 ?contains@?$List@UInputMapEntry@CInputManager@@@@QBE_NABUInputMapEntry@CInputManager@@@Z
431730 ?flush@?$List@UInputMapEntry@CInputManager@@@@QAEXXZ
431770 ?UnregisterInputHandler@CInputManager@@UAE_NPAVCInputHandler@@K@Z
431870 ?UnregisterInputMap@CInputManager@@UAE_NKPAVIInputActionCallback@@@Z
4318B0 ?UnregisterCallback@CInputManager@@UAEXPAVIInputActionCallback@@@Z
4319B0 ?RegisterPreferences@CInputManager@@IAEXXZ
431AF0 ?IsActionInProgress@CInputManager@@QAE_NK@Z
431B30 ?add@?$SmartArray@USingleKeyInfo@ActionState@@$00@@QAE_NABUSingleKeyInfo@ActionState@@@Z
431B80 ??_E?$List@PAVCInputHandler@@@@UAEPAXI@Z
431BB0 ??_E?$List@UInputMapEntry@CInputManager@@@@UAEPAXI@Z
431BE0 ??1CInputManager@@UAE@XZ
431CD0 ?GetMouseLookMode@CInputManager@@UAE_NXZ
431CE0 ?GetTextMode@CInputManager@@UAE_NXZ
431CF0 ?GetActionMap@CInputManager@@UBEPBVActionMap@@XZ
431D00 ?GetLastInputTimestamp@CInputManager@@MAENXZ
431D10 ?RegisterInputMap@CInputManager@@UAE_NKPAVIInputActionCallback@@J@Z
431D60 ?UseTime@CInputManager@@UAEXXZ
431FA0 ?AddKeyPress@ActionState@@QAE?AW4ActionStateChangeType@@AAVInputEvent@@@Z
4320D0 ?grow@?$IntrusiveHashTable@KPAVActionState@@$00@@QAE_NXZ
432120 ??_GCInputManager@@UAEPAXI@Z
432140 ?RegisterInputHandler@CInputManager@@UAE_NPAVCInputHandler@@K@Z
432260 ??0?$IntrusiveHashTable@KPAVActionState@@$00@@QAE@I@Z
4322F0 ?resize_internal@?$IntrusiveHashTable@KPAVActionState@@$00@@IAE_NK@Z
432430 ??0CInputManager@@QAE@XZ
4325A0 ?add@?$IntrusiveHashTable@KPAVActionState@@$00@@QAE_NPAVActionState@@@Z
432620 ?ToggleActionKey@CInputManager@@IAEXAAVInputEvent@@@Z
4326D0 ?DeactivateActionKey@CInputManager@@IAEXAAVInputEvent@@@Z
432780 ?TurnOffRunLock@CInputManager@@QAEXXZ
4327F0 ?ActivateActionKey@CInputManager@@IAEXAAVInputEvent@@@Z
4328C0 ?FireActionEvent@CInputManager@@IAEXAAVInputEvent@@@Z
432990 ?QueryInterface@GlobalRegistryCommands@@UAE?AVTResult@@ABUTurbine_GUID@@PAPAX@Z
433100 ?find_internal@?$IntrusiveHashTable@V?$PStringBase@D@@PAV?$HashTableData@V?$PStringBase@D@@PAVGRPObject@@@@$0A@@@IBE?AV?$IntrusiveHashIterator@V?$PStringBase@D@@PAV?$HashTableData@V?$PStringBase@D@@PAVGRPObject@@@@$0A@@@ABV?$PStringBase@D@@@Z
433710 ?FindObjectByName@GlobalRegistryInstance@@AAE_NABV?$PStringBase@D@@AAPAVGRPObject@@@Z
433A10 ?delete_contents@?$IntrusiveHashTable@V?$PStringBase@D@@PAV?$HashTableData@V?$PStringBase@D@@PAVGRPCommand@@@@$0A@@@QAEXXZ
433D20 ??0GlobalRegistryInstance@@AAE@XZ
4355A0 ?OutputText@GlobalRegistry@@SAXABV?$PStringBase@D@@@Z
435720 ?trim@?$PStringBase@D@@QAEX_N0V1@@Z
436580 ?RegisterCommand@GlobalRegistry@@SAXP6A_NXZABV?$PStringBase@D@@1@Z
4366D0 ?RegisterCommand@GlobalRegistry@@SAXP6A_NABV?$PStringBaseArray@D@@@ZABV?$PStringBase@D@@22@Z
436830 ?UnregisterCommand@GlobalRegistry@@SAXABV?$PStringBase@D@@@Z
4369A0 ?RegisterVariableInternal@GlobalRegistry@@CAXPAXW4GRVDataType@@ABV?$PStringBase@D@@2P6AX2@ZKPBV3@PBK@Z
436CF0 ?UnregisterVariable@GlobalRegistry@@SAXABV?$PStringBase@D@@@Z
4370B0 ?UnregisterPreference@UserPreferences@@SAXABV?$PStringBase@D@@@Z
4370C0 ?IsPreferenceRegistered@UserPreferences@@SA_NABV?$PStringBase@D@@W4GRVDataType@@@Z
437140 ?FindPreference@UserPreferences@@SA_NABV?$PStringBase@D@@AAPAVGRPVariableObject@@@Z
4371C0 ?InqValue@UserPreferences@@SA_NABV?$PStringBase@D@@AA_N@Z
437280 ?InqValue@UserPreferences@@SA_NABV?$PStringBase@D@@AAJ@Z
437340 ?InqValue@UserPreferences@@SA_NABV?$PStringBase@D@@AAK@Z
437400 ?InqValue@UserPreferences@@SA_NABV?$PStringBase@D@@AAM@Z
4374C0 ??1?$pair@V?$PStringBase@D@@V1@@_STL@@QAE@XZ
437510 ?SetDefaultFile@UserPreferences@@KA_NABV?$PStringBase@D@@@Z
4375E0 ?SetVariable@GRPTypedVariableObject@@QAEXABJ@Z
437640 ?SetVariable@GRPTypedVariableObject@@QAEXABK@Z
4376A0 ?SetVariable@GRPTypedVariableObject@@QAEXABM@Z
437700 ?SetVariable@GRPTypedVariableObject@@QAEXABV?$PStringBase@D@@@Z
437D20 ?SetValue@UserPreferences@@SA_NABV?$PStringBase@D@@0@Z
437DE0 ?InqValue@UserPreferences@@SA_NABV?$PStringBase@D@@AAV2@@Z
437F60 ?Cleanup@UserPreferences@@SAXXZ
438230 ?Save@UserPreferences@@SA_NXZ
438750 ?InqChoiceValues@UserPreferences@@SA_NABV?$PStringBase@D@@AAV?$SmartArray@K$00@@@Z
438940 ?Load@UserPreferences@@SA_NXZ
438FE0 ?Initialize@UserPreferences@@SA_N_NABV?$PStringBase@D@@@Z
439140 ??0RenderDevicePresentation@@QAE@XZ
4391A0 ?ReportThread_OnDialogBoxBegin@DeviceDialogBoxGateway@Device@@UAE_NXZ
4391E0 ?ReportThread_OnDialogBoxEnd@DeviceDialogBoxGateway@Device@@UAEX_N@Z
439210 ??0DeviceDialogBoxGateway@Device@@QAE@XZ
439230 ?Done@Device@@SAXXZ
439240 ?ForwardToInputManager@Device@@KAJPAUHWND__@@IIJAA_N@Z
4392B0 ?DoFrameSleep@Device@@SAXXZ
4392F0 ?Activate@Device@@KAXXZ
439320 ?Deactivate@Device@@KAXXZ
439370 ?LoadDisplayPreferences@Device@@KA_NAAVRenderDevicePresentation@@@Z
439400 ?ShutdownGraphicsEngine@Device@@KA_NXZ
439460 ?GetScreenshotSurface@Device@@KAPAVRenderSurface@@XZ
439590 ?Error@Device@@SAHABV?$PStringBase@D@@0_NH@Z
4395D0 ?SetCursorFromIcon@Device@@SA_NPAUHICON__@@@Z
439620 ?ShowCursor@Device@@SAX_N@Z
439640 ?Reset@?$SmartArray@VRenderDisplayModeType@@$00@@QAEXXZ
4396C0 ?__unguarded_linear_insert@_STL@@YAXPAUPrefDisplayModeType@@U2@U?$less@UPrefDisplayModeType@@@1@@Z
439710 ?__push_heap@_STL@@YAXPAKHHKU?$less@K@1@@Z
439760 ?__push_heap@_STL@@YAXPAUPrefDisplayModeType@@HHU2@U?$less@UPrefDisplayModeType@@@1@@Z
439830 ?ConsoleCommand_QuitCommand@@YA_NXZ
439860 ?WndProc@Device@@SGJPAUHWND__@@IIJ@Z
439D50 ?SendStringToClipboard@Device@@SAXV?$PStringBase@G@@@Z
439E50 ?DoEventLoop@Device@@SA_NXZ
439F30 ?SetCursorFromImage@Device@@SA_NKKABVRenderSurface@@@Z
439F70 ?is_uint32@PSUtils@@YA_NV?$PStringBase@D@@@Z
43A0D0 ?__adjust_heap@_STL@@YAXPAUPrefDisplayModeType@@HHU2@U?$less@UPrefDisplayModeType@@@1@@Z
43A2D0 ?__make_heap@_STL@@YAXPAUPrefDisplayModeType@@0U?$less@UPrefDisplayModeType@@@1@0PAH@Z
43A370 ?Cleanup@Device@@SAXXZ
43A510 ?ChangePresentation@Device@@SA_NXZ
43A780 ?SaveScreenshot@Device@@SA_NAAV?$PStringBase@D@@@Z
43A8F0 ?Show16BitWarning@Device@@KAXXZ
43A990 ?ForceDisplayResolution@Device@@SAX_NKK@Z
43AA70 ?ConsoleCommand_ForceDisplayResolution@Device@@SA_NABV?$PStringBaseArray@D@@@Z
43AB10 ?AllowFullScreenMode@Device@@SAX_N@Z
43AB50 ?GetStringFromClipboard@Device@@SA_NAAV?$PStringBase@G@@@Z
43AC60 ?StartupGraphicsEngine@Device@@KA_NJJ_N@Z
43AD90 ?InitWindow@Device@@SA_NHH_N@Z
43ADC0 ?__insertion_sort@_STL@@YAXPAK0U?$less@K@1@@Z
43B2D0 ?InitializeDisplayPreferences@Device@@KA_NXZ
43BA60 ?Init@Device@@SA_N_NABV?$PStringBase@D@@HH01@Z
43C4A0 ?CreateIconFromRenderSurface@@YA_NKKABVRenderSurface@@AAPAUHICON__@@@Z
43C610 ??1NoticeHandler@@QAE@XZ
43C640 ??0GlobalEventHandler@@QAE@XZ
43C660 ??1GlobalEventHandler@@UAE@XZ
43C680 ?GetGlobalEventHandler@GlobalEventHandler@@SAPAV1@XZ
43C690 ??_GGlobalEventHandler@@UAEPAXI@Z
43C6C0 ??0NoticeRegistrar@@QAE@XZ
43C6D0 ??1?$IntrusiveHashTable@KPAV?$HashTableData@KPAV?$List@PAVNoticeHandler@@@@@@$0A@@@UAE@XZ
43C700 ??_E?$IntrusiveHashTable@KPAV?$HashTableData@KPAV?$List@PAVNoticeHandler@@@@@@$0A@@@UAEPAXI@Z
43C740 ?DestroyHandlers@NoticeRegistrar@@IAEXXZ
43C7C0 ??_E?$List@PAVNoticeHandler@@@@UAEPAXI@Z
43C800 ?pop_front@?$List@PAVNoticeHandler@@@@QAE_NAAPAVNoticeHandler@@@Z
43C850 ??1NoticeRegistrar@@UAE@XZ
43C860 ?UnRegisterNoticeHandler@NoticeRegistrar@@UAE_NKPAVNoticeHandler@@@Z
43C8A0 ?UnRegisterAllNoticeHandlers@NoticeRegistrar@@UAE_NPAVNoticeHandler@@@Z
43C930 ?GetNoticeHandlers@NoticeRegistrar@@UAEPAV?$List@PAVNoticeHandler@@@@K@Z
43C950 ??_ENoticeRegistrar@@UAEPAXI@Z
43C980 ??0?$IntrusiveHashTable@KPAV?$HashTableData@KPAV?$List@PAVNoticeHandler@@@@@@$0A@@@QAE@I@Z
43CA10 ?RegisterNoticeHandler@NoticeRegistrar@@UAE_NKPAVNoticeHandler@@@Z
43CB20 ??_E?$HashTable@KPAV?$List@PAVNoticeHandler@@@@$0A@@@UAEPAXI@Z
43CB60 ?GetString@StringAccessor@PlatformString@@QAE?AV?$PStringBase@G@@G@Z
43CCC0 ?GetString@PlatformString@@YA?AV?$PStringBase@G@@GV2@00@Z
43D090 ?DisplayString@PlatformString@@YAXGV?$PStringBase@G@@00W4DisplayStringMode@1@@Z
43D290 ?SetFormat@PixelFormatDesc@@QAE_NW4PixelFormatID@@@Z
43D7D0 ??0PixelFormatDesc@@QAE@W4PixelFormatID@@@Z
43D7F0 ?in_bounds@LandDefs@@SAHJJ@Z
43D820 ?blockid_to_lcoord@LandDefs@@SAHKAAJ0@Z
43D870 ?AreFloatEqual@@YA_NMMM@Z
43D890 ??XVector3@@QAEXM@Z
43D8B0 ??HVector3@@QBE?AV0@ABV0@@Z
43D8E0 ??GVector3@@QBE?AV0@ABV0@@Z
43D910 ??DVector3@@QBE?AV0@M@Z
43D940 ?TransformVector_C@Matrix4@@QBEXABVVector3@@AAV2@@Z
43D9C0 ?Multiply_C@Matrix4@@QAEXABV1@0@Z
43DBE0 ?MakeRGBA@RGBAColor@@SAKMMMM@Z
43DC30 ?min@_STL@@YAABMABM0@Z
43DC50 ?SetDiffuse@MaterialLayer@@QAEXABVRGBAColor@@@Z
43DC70 ?BeginScene@SceneTool@@SAXXZ
43DCD0 ?ViewportToClip@SceneTool@@SAXJJAAM0@Z
43DD30 ?BuildCylinderMesh@SceneTool@@KA_NPAVRenderMesh@@@Z
43E640 ?StoreMatrices@SceneTool@@SAXXZ
43E690 ?PrepareGraphicsDevice@SceneTool@@SAXXZ
43E6A0 ?StartFrame@SceneTool@@SAXXZ
43E6B0 ?UpdateFPSCounter@SceneTool@@CAXXZ
43E760 ?PurgeOldGraphicsResources@SceneTool@@SAXXZ
43E7D0 ?get_block_offset@LandDefs@@SA?AVVector3@AC1Legacy@@KK@Z
43E880 ?Normalize@Vector3@@QAEXXZ
43E8C0 ??4Position@@QAEAAV0@ABV0@@Z
43E8E0 ?SetupCamera@SceneTool@@SAXABVPosition@@@Z
43E900 ?SwapMatrixForwardAndUp@SceneTool@@SAXAAVMatrix4@@@Z
43E990 ?SwapTransposedMatrixForwardAndUp@SceneTool@@SAXAAVMatrix4@@@Z
43EC90 ?DrawPolygon@SceneTool@@SAXPBVVector3@@KABVRGBAColor@@_N2W4CullModeType@@W4BlendMode@@4@Z
43F5D0 ?IdentityMatrices@SceneTool@@SAXXZ
43F7B0 ?Think@SceneTool@@SA_NXZ
43F7F0 ?RenderDebugHUD@SceneTool@@KAXXZ
43FCB0 ?DrawLine@SceneTool@@SAXABVVector3@@0ABVRGBAColor@@_N2@Z
43FCD0 ?EndFrame@SceneTool@@SAX_N@Z
43FDD0 ?Shutdown@SceneTool@@SAXXZ
43FFA0 ?InsertStage@MaterialLayer@@QAEXKPAVLayerStage@@@Z
43FFC0 ?InsertLayer@RenderMaterial@@QAEXKPAVMaterialLayer@@@Z
43FFE0 ?CreateDefaultMaterial@SceneTool@@SA_NXZ
4402D0 ?Startup@SceneTool@@SA_NXZ
4407F0 ??0UISurface@@QAE@XZ
440820 ?SetupVertexBuffer@UISurface@@IAE_NXZ
440940 ?DestroySurface@UISurface@@QAEXXZ
4409F0 ?GetBestWidthHeight@UISurface@@KA_NKKAAK0_N@Z
440AD0 ?IsPowerOfTwo@UISurface@@SA_NKK@Z
440B30 ?CreateSurface@UISurface@@QAE_NKKK@Z
440D20 ?PrepareSurface@UISurface@@IAE_NXZ
440D80 ??_EUISurface@@UAEPAXI@Z
440DB0 ?Resize@UISurface@@QAE_NKK@Z
440E50 ?RefreshHardware@UISurface@@IAE_NXZ
440F40 ?End@SurfaceWindow@@IAE_NXZ
440F50 ?Attach@SurfaceWindow@@QAEXAAVRenderSurface@@ABUtagRECT@@@Z
440FE0 ?Attach@SurfaceWindow@@QAEXAAVRenderSurface@@KKKK@Z
441020 ?Attach@SurfaceWindow@@IAEXAAV1@ABUtagRECT@@@Z
441080 ?WindowToClip@SurfaceWindow@@QBEXJJAAM0@Z
4410C0 ?Lock@SurfaceWindow@@QAE_N_N@Z
4411D0 ?Unlock@SurfaceWindow@@QAE_NXZ
441240 ?Lock@SurfaceWindowLocker@@QAE_N_N@Z
441280 ?CopyAlpha@SurfaceWindow@@QAE_NABV1@@Z
4413B0 ?DrawLine@SurfaceWindow@@QAE_NABVRGBAColor@@JJJJ@Z
441590 ?DrawBox@SurfaceWindow@@QAE_NABVRGBAColor@@JJJJ@Z
441620 CreateCharRectPair
4416D0 ?ReplaceColor@SurfaceWindow@@QAE_NABVRGBAColor@@0@Z
441750 ?ReplaceColor@SurfaceWindow@@QAE_NABVRGBAColor@@ABV1@@Z
441840 ?PointTestOverlay@SurfaceWindow@@QAE_NJJ@Z
4418D0 ?GetColorFromPoint@SurfaceWindow@@QAE_NAAVRGBAColor@@JJ@Z
441950 ?SearchForColor@SurfaceWindow@@QAE_NAAJ0ABVRGBAColor@@_N@Z
441B60 ?ConvertPixel@?$PixelOp@K@@SA_NABVPixelFormatDesc@@K0AAK@Z
441CD0 ??0SurfaceWindow@@QAE@XZ
441D00 ??0SurfaceWindow@@QAE@AAVRenderSurface@@ABUtagRECT@@@Z
441D40 ??0SurfaceWindow@@QAE@AAVRenderSurface@@KKKK@Z
441DB0 ??0SurfaceWindow@@IAE@AAV0@ABUtagRECT@@@Z
441DF0 ?LegacyBlit@SurfaceWindow@@QAE_NABV1@KMPBVRGBAColor@@PBV1@@Z
442780 ?NotColorBits@SurfaceWindow@@QAE_NJJJJ@Z
4428B0 ?BlitAndColor@SurfaceWindow@@QAE_NPBV1@W4BlitMode@@M01K@Z
442BE0 ?grow@?$SmartArray@E$0A@@@QAE_NK@Z
442C70 ?Blit@SurfaceWindow@@QAE_NABV1@W4BlitMode@@M@Z
442C90 ?Color@SurfaceWindow@@QAE_NPBV1@W4BlitMode@@ABVRGBAColor@@@Z
442D10 ?Color@SurfaceWindow@@QAE_NPBV1@W4BlitMode@@K@Z
442D30 ?DrawCharacter@SurfaceWindow@@QAEKJJPBVFont@@GKKK@Z
443040 ?Fill@SurfaceWindow@@QAE_NABVRGBAColor@@@Z
4431B0 ?FillArea@SurfaceWindow@@QAE_NABVRGBAColor@@ABUtagRECT@@@Z
443250 ?FillArea@SurfaceWindow@@QAE_NABVRGBAColor@@JJJJ@Z
443290 ?Blit@SurfaceWindow@@QAE_NABV1@@Z
443450 ?End@Font@@AAEXXZ
443490 ?ReleaseSubObjects@Font@@UAE_NXZ
4434C0 ?GetCharDesc@Font@@QBEPBVFontCharDesc@@G@Z
443550 ?GetCharWidthA@Font@@QBE?BEG@Z
443580 ?ContainsChar@Font@@QBE?B_NG@Z
4435D0 ?GenerateCharacterMap@Font@@AAE_NXZ
4436A0 ?LockSurfaces@Font@@QBE_NXZ
4436E0 ?UnlockSurfaces@Font@@QBE_NXZ
443720 ?InitLoad@Font@@UAE_NXZ
443740 ?GetSubObjects@Font@@UAE_NXZ
4437B0 ?Serialize@Font@@UAEXAAVArchive@@@Z
443960 ?Begin@Font@@AAEXXZ
443A20 ?Destroy@Font@@UAEXXZ
443A60 ?GetSubDataIDs@Font@@UBEXAAVQualifiedDataIDArray@@@Z
443AC0 ?IsD3DFormat@RenderSurface@@KA_NW4PixelFormatID@@@Z
443BC0 ?Begin@RenderSurface@@IAEXXZ
443C20 ?InitLoad@RenderSurface@@UAE_NXZ
443C40 ?Lock@RenderSurface@@UAE_NABUtagRECT@@KAAJAAPAX@Z
443CC0 ?Unlock@RenderSurface@@UAEXXZ
443CF0 ?SelectSurfaceFormat@RenderSurface@@QBE?AW4PixelFormatID@@W42@@Z
443DC0 ?SaveJPG@RenderSurface@@QBE_NABV?$PStringBase@D@@@Z
443F60 ?Convert@RenderSurface@@UAE_NABV1@@Z
4440D0 ?DestroySourceSurfaceBits@RenderSurface@@AAEXXZ
4440F0 ??0RenderSurface@@QAE@XZ
444140 ??_ERenderSurface@@WDA@AEPAXI@Z
444150 ?Create@RenderSurface@@UAE_NKKW4PixelFormatID@@_N@Z
444200 ?CreateFromSourceData@RenderSurface@@UAE_NXZ
444500 ?Allocator@RenderSurface@@SAPAVDBObj@@XZ
444540 ?Destroy@RenderSurface@@UAEXXZ
444580 ??1RenderSurface@@UAE@XZ
4445F0 ?GetSubDataIDs@RenderSurface@@UBEXAAVQualifiedDataIDArray@@@Z
444620 ??_GRenderSurface@@UAEPAXI@Z
444640 ?Serialize@RenderSurface@@MAEXAAVArchive@@@Z
444800 ??0FileNodeName_Binary@@QAE@XZ
444820 ?Clone@FileNodeName_Binary@@UBEPAVIFileNodeName@@XZ
444850 ??_EFileNodeName_Binary@@UAEPAXI@Z
444880 ?which_side@Plane@@QBE?AW4Sidedness@@ABVVector3@AC1Legacy@@M@Z
4448D0 ??0?$pair@V?$IDClass@U_tagDataID@@$0CA@$0A@@@PAVMaterialInstance@@@_STL@@QAE@XZ
4448E0 ?Serialize@FileNodeName_Binary@@UAEXAAVArchive@@@Z
444900 ?SerializeObject@Serializer@@YAXAAVSmartBuffer@@AAVArchive@@@Z
4449F0 ?SerializeObject@Serializer@@YAXAAKAAVArchive@@@Z
444BF0 ?DrawSubset@RenderMesh@@QAE_NK@Z
446590 ?UpdateCachedData@RenderMesh@@QAEXXZ
446600 ?CreateLODBatch@RenderMesh@@QAE_NKPAVMaterialInstance@@W4PrimType@@KKK_N2AAPAVRenderVertexBuffer@@@Z
446770 ?InitForUnpacking@AutoStoreVersionArchive@@UAEXABVSmartBuffer@@@Z
446B90 ?CopyInto@GraphicsResource@@UBE_NAAV1@@Z
446BD0 ?SetResourceSize@GraphicsResource@@IAEXK@Z
446BE0 ?SetResourceIsThrashable@GraphicsResource@@QAEX_N@Z
446BF0 ?SetAutoRestore@GraphicsResource@@IAEX_N@Z
446C00 ?MarkResourceAsNotLost@GraphicsResource@@QBEXXZ
446C10 ?MarkResourceAsLost@GraphicsResource@@QBEXXZ
446C20 ?RestoreResource@GraphicsResource@@UAE_NXZ
446CD0 ?UnlinkResource@GraphicsResource@@SAXPAV1@@Z
446D30 ?PurgeResources@GraphicsResource@@SA_NXZ
446D80 ?RestoreLostResources@GraphicsResource@@SA_NXZ
446DC0 ?PurgeOldResources@GraphicsResource@@SAXN@Z
446F00 ??1GraphicsResource@@UAE@XZ
446FF0 ?ShutdownResourceManager@GraphicsResource@@SAXXZ
447220 ??0GraphicsResource@@QAE@XZ
4473D0 ?DiscardResourceBytes@GraphicsResource@@SA_NK@Z
447490 ?CapHigh@RGBAColor@@QAEXXZ
4474E0 ?Begin@RenderVertexBuffer@@AAEXXZ
447520 ?End@RenderVertexBuffer@@AAEXXZ
447680 ?UnlockVirtualArray@RenderVertexBuffer@@UAEXXZ
4476A0 ?Unlock@RenderVertexBuffer@@UAEX_N0@Z
447E40 ?AllocateVertexBuffer@RenderVertexBuffer@@SAPAV1@XZ
447EE0 ?LockVirtualArray@RenderVertexBuffer@@UAEPAXKK@Z
447F60 ?ReleaseSubObjects@LayerStage@@QAE_NXZ
448350 ??0LayerStage@@QAE@XZ
448390 ??1LayerStage@@QAE@XZ
4488A0 ?RenderObjects@RenderUI@@SAXXZ
448BE0 ?RecalculateClampedPosition@RenderUI@@SAXXZ
448EA0 ?Shutdown@RenderUI@@SAXXZ
448F20 ?UnlinkObject@RenderUI@@SAXPAVUIObject@@@Z
4493D0 ?LinkObjectAfter@RenderUI@@SAXPAVUIObject@@0@Z
4494E0 ?Optimize@RenderMaterial@@QAEXXZ
4497E0 ??0RenderMaterial@@QAE@XZ
449970 ?End@RenderMaterial@@AAEXXZ
449A60 ?CopyInto@RenderMaterial@@UBE_NAAVDBObj@@@Z
44A3F0 ??1ShaderResourceType@@QAE@XZ
44A4F0 ?End@MaterialLayer@@AAEXXZ
44A600 ??_EShaderResourceType@@QAEPAXI@Z
44A6C0 ?Reset@?$SmartArray@UShaderResourceType@@$00@@QAEXXZ
44A770 ?InsertOrderedByIndex@?$SmartArray@PAVLayerStage@@$00@@QAE_NABQAVLayerStage@@K@Z
44A8C0 ??1MaterialLayer@@QAE@XZ
44A930 ?Begin@MaterialLayer@@AAEXXZ
44AA40 ??0MaterialLayer@@QAE@XZ
44B660 ?Get@Font@@SAPAV1@V?$IDClass@U_tagDataID@@$0CA@$0A@@@@Z
44B680 ?GetGlobalOrLocalFont@FontLocal@@SAPAVFont@@V?$IDClass@U_tagDataID@@$0CA@$0A@@@@Z
44B6C0 ?Reset@?$SmartArray@UQualifiedDataID@@$00@@QAEXXZ
44B740 ?grow@?$SmartArray@VFontReference@@$00@@QAE_NK@Z
44B820 ?Shutdown@FontMapper@@SAXXZ
44B870 ?GetFontByDataID@FontMapper@@SAPBVFont@@V?$IDClass@U_tagDataID@@$0CA@$0A@@@@Z
44CA60 ?Begin@RenderIndexBuffer@@AAEXXZ
44CE60 ??0AutoStoreVersionArchive@@QAE@XZ
44DCB0 ?Reset@?$SmartArray@PAVProfilerUIWindow@@$00@@QAEXXZ
451A60 ?SetColor32@RGBColor@@QAEXK@Z
451AE0 ??_0Vector3@@QAEXM@Z
451B10 ?is_newer@CPhysicsObj@@SAHGG@Z
451B50 ?newer_event@CPhysicsObj@@QAEHW4PhysicsTimeStamp@@G@Z
451BB0 ?DispatchSmartBoxEvent@SmartBox@@UAE?AW4NetBlobProcessedStatus@@PAVNetBlob@@@Z
451BC0 ?get_player_visualdesc@SmartBox@@QBEPAVVisualDesc@@XZ
451BD0 ?QueueBlobForObject@SmartBox@@IAEXKPAVNetBlob@@@Z
451BE0 ?set_selected_object_id@SmartBox@@SAXK@Z
451BF0 ?is_selected_object_in_view@SmartBox@@SA_NXZ
451C00 ?SetOverrideFovDistance@SmartBox@@QAEX_NM@Z
451C20 ?GetOverrideFovDistance@SmartBox@@QAEMXZ
451C60 ?teleport_in_progress@SmartBox@@QAE_NXZ
451C80 ?teleport_occured@SmartBox@@QAEHXZ
451CA0 ?find_object@SmartBox@@SA_NKK@Z
451D20 ?get_found_object_id@SmartBox@@SAKXZ
451D30 ?set_found_object@SmartBox@@SAXKK@Z
451D50 ?SetTargettingCallback@SmartBox@@QAEXP6AXKW4ObjectSelectStatus@@ABUtagRECT@@M@Z@Z
451D60 ?SetTargetObjectID@SmartBox@@QAEXK@Z
451D70 ?Show@SmartBox@@QAEXXZ
451D80 ?Hide@SmartBox@@QAEXXZ
451D90 ?SetMode@SmartBox@@QAEHHHHH@Z
451DE0 ?DisableDegrades@SmartBox@@SAXH@Z
451DF0 ?DisableFogging@SmartBox@@SAXH@Z
451E10 ?EnableWeather@SmartBox@@QAEXH@Z
451E30 ?SetDetailTexturing@SmartBox@@QAE_N_N0@Z
451E60 ?HandleRenderOption@SmartBox@@QAEHHPAPADAAPBD1@Z
451EA0 ?SetDefaultFov@SmartBox@@QAEXM@Z
451EC0 ?is_player_outside@SmartBox@@QBEHXZ
451EE0 ?HandleDeleteObject@SmartBox@@QAE?AW4NetBlobProcessedStatus@@PAVNetBlob@@KG@Z
451F80 ?UpdateVisualDesc@SmartBox@@QAEHPAVCPhysicsObj@@ABVVisualDesc@@G@Z
452000 ?HandleSoundEvent@SmartBox@@QAE?AW4NetBlobProcessedStatus@@PAVNetBlob@@KJM@Z
452060 ?HandlePlayScriptID@SmartBox@@QAE?AW4NetBlobProcessedStatus@@PAVNetBlob@@KV?$IDClass@U_tagDataID@@$0CA@$0A@@@@Z
4520B0 ?HandlePlayScriptType@SmartBox@@QAE?AW4NetBlobProcessedStatus@@PAVNetBlob@@KJM@Z
452110 ?DoSetState@SmartBox@@QAEXPAVCPhysicsObj@@KG@Z
452190 ?HandlePlayerTeleport@SmartBox@@QAE?AW4NetBlobProcessedStatus@@PAVNetBlob@@G@Z
452200 ?DoVectorUpdate@SmartBox@@QAEXPAVCPhysicsObj@@ABVVector3@AC1Legacy@@1G@Z
452280 ?DoPickupEvent@SmartBox@@QAEXPAVCPhysicsObj@@G@Z
4522D0 ?DoParentEvent@SmartBox@@QAEXPAVCPhysicsObj@@0KKG@Z
4523A0 ?SetCameraPosition@CreatureMode@@QAEXABVVector3@AC1Legacy@@@Z
4523C0 ?UseSmartboxFOV@CreatureMode@@QAEXXZ
4523D0 ?UseSharpMode@CreatureMode@@QAEXXZ
4523E0 ?Clamp@MathLib@@YA?BMMMM@Z
452410 ?magnitude@Vector3@AC1Legacy@@QBEMXZ
452440 ?normalize@Vector3@AC1Legacy@@QAE?AV12@XZ
4524A0 ?normalize_check_small@Vector3@AC1Legacy@@QAEHXZ
452500 ??GVector3@AC1Legacy@@QBE?AV01@ABV01@@Z
452530 ?localtoglobalvec@Frame@@QBE?AVVector3@AC1Legacy@@ABV23@@Z
452590 ?globaltolocalvec@Frame@@QBE?AVVector3@AC1Legacy@@ABV23@@Z
4525F0 ?rotate@Frame@@QAEXABVVector3@AC1Legacy@@@Z
452660 ?localtoglobal@Frame@@QBE?AVVector3@AC1Legacy@@ABV23@@Z
4526C0 ?globaltolocal@Frame@@QBE?AVVector3@AC1Legacy@@ABV23@@Z
452740 ?SetDirection@LIGHTINFO@@QAEXABVVector3@AC1Legacy@@@Z
4527C0 ??0Position@@QAE@KABVFrame@@@Z
4527F0 ?get_outside_cell_id@Position@@QBEKXZ
452830 ?localtolocal@Position@@QBE?AVVector3@AC1Legacy@@ABV1@ABV23@@Z
452900 ?localtoglobal@Position@@QBE?AVVector3@AC1Legacy@@ABV1@@Z
452950 ?get_frame@CPhysicsObj@@QBEABVFrame@@XZ
452960 ?FlushSoundTables@Ambient@@QAEXXZ
4529B0 ?get_omega@PhysicsDesc@@QBE?AVVector3@AC1Legacy@@XZ
4529E0 ??0Position@@QAE@ABV0@@Z
452A10 ?Render@CreatureMode@@QBEXXZ
452C80 ?set_viewer@SmartBox@@QAEXABVPosition@@H@Z
452DA0 ?PlayerPhysicsUpdatedCallback@SmartBox@@QAEXXZ
452DE0 ?convert_to_player_space@SmartBox@@QBEHPAVCPhysicsObj@@AAVVector3@AC1Legacy@@@Z
452E60 ?GetObjectBoundingBox@SmartBox@@QBE?AW4ObjectSelectStatus@@KAAUtagRECT@@AAM@Z
4530B0 ?ResetDetailTexturing@SmartBox@@SA_NXZ
4530E0 ?SetWorldAmbientLight@SmartBox@@QAEXMK@Z
453160 ?SetNormalMode@SmartBox@@QAEHXZ
4531C0 ?set_mid_radius@SmartBox@@QAEHJ@Z
453230 ?SetRegion@SmartBox@@QAEHK@Z
453280 ?set_viewer_home@SmartBox@@QAEXXZ
453380 ?HandleObjDescEvent@SmartBox@@QAE?AW4NetBlobProcessedStatus@@PAVNetBlob@@KABVVisualDesc@@ABVPhysicsTimestampPack@@@Z
453420 ?HandleSetState@SmartBox@@QAE?AW4NetBlobProcessedStatus@@PAVNetBlob@@KKABVPhysicsTimestampPack@@@Z
4534C0 ?HandleVectorUpdate@SmartBox@@QAE?AW4NetBlobProcessedStatus@@PAVNetBlob@@KABVVector3@AC1Legacy@@1ABVPhysicsTimestampPack@@@Z
453570 ?HandlePickupEvent@SmartBox@@QAE?AW4NetBlobProcessedStatus@@PAVNetBlob@@KABVPhysicsTimestampPack@@@Z
453610 ?HandleParentEvent@SmartBox@@QAE?AW4NetBlobProcessedStatus@@PAVNetBlob@@KKKKABVPhysicsTimestampPack@@@Z
4536E0 ?RemoveObject@CreatureMode@@QAE_NPBVCPhysicsObj@@@Z
453750 ?GetObjectByIndex@CreatureMode@@QAEPAVCPhysicsObj@@K@Z
453770 ?SetCameraDirection@CreatureMode@@QAEXABVVector3@AC1Legacy@@@Z
4537A0 ?SetCameraDirection_Degrees@CreatureMode@@QAEXABVVector3@AC1Legacy@@@Z
453800 ?AddToTail@?$NIList@PAVNetBlob@@@@QAEXPAVNetBlob@@@Z
453850 ?get_new_size@?$SmartArray@PAVUIChildFramework@@$00@@IBEKK@Z
4538B0 ?get_position@PhysicsDesc@@QBE?AVPosition@@XZ
4538E0 ?Cleanup@SmartBox@@SAXPAV1@@Z
453910 ?PlayerPositionUpdated@SmartBox@@IAEXHM@Z
4539B0 ?TeleportPlayer@SmartBox@@IAEXABVPosition@@@Z
4539E0 ?BlipPlayer@SmartBox@@IAEXABVPosition@@@Z
453A20 ?QueueNetBlob@SmartBox@@IAEXPAVNetBlob@@@Z
453AB0 ?DestroyQueuedNetBlobs@SmartBox@@IAEXXZ
453B40 ?RenderNormalMode@SmartBox@@IAEXXZ
453C90 ?Reset@SmartBox@@QAEXH@Z
453D20 ?init_player@SmartBox@@IAEXPAVCPhysicsObj@@H@Z
453D80 ?update_viewer@SmartBox@@IAEXXZ
454070 ?HandleReceivedPosition@SmartBox@@QAEXPAVCPhysicsObj@@ABVPosition@@KHABVVector3@AC1Legacy@@GGG@Z
454360 ?UnpackPositionEvent@SmartBox@@QAE?AW4NetBlobProcessedStatus@@KAAPAXI@Z
454430 ??0CreatureMode@@QAE@XZ
454490 ?RemoveAllObjects@CreatureMode@@QAEXXZ
4544D0 ?RemoveAllLights@CreatureMode@@QAEXXZ
454560 ?SetLightDirection@CreatureMode@@QAE_NKABVVector3@AC1Legacy@@@Z
454590 ?_QueryInterface@?$InterfacePtr@VCObjectMaint@@@@AAE?AVTResult@@V?$InterfacePtr@VInterface@@@@@Z
454640 ??0SmartBox@@QAE@PAV?$NIList@PAVNetBlob@@@@@Z
454920 ??1SmartBox@@MAE@XZ
454B10 ?ProcessNetBlobs@SmartBox@@IAEXXZ
454BC0 ?ProcessObjectNetBlobs@SmartBox@@IAEXPAVCPhysicsObj@@@Z
454CC0 ?DrawNoBlit@SmartBox@@QAEXXZ
454D20 ?HandleCreateObject@SmartBox@@QAE?AW4NetBlobProcessedStatus@@PAVNetBlob@@KABVVisualDesc@@ABVPhysicsDesc@@ABVWeenieDesc@@H@Z
4551B0 ?HandleCreatePlayer@SmartBox@@QAE?AW4NetBlobProcessedStatus@@PAVNetBlob@@K@Z
4551F0 ??1CreatureMode@@QAE@XZ
455250 ??0?$InterfacePtr@VCObjectMaint@@@@QAE@ABV?$InterfacePtr@VInterface@@@@@Z
455290 ?InitInternal@SmartBox@@IAE_NPAV?$NIList@PAVNetBlob@@@@@Z
4554B0 ?UseTime@SmartBox@@QAEXXZ
455610 ?Draw@SmartBox@@QAEXXZ
455620 ?HandleUpdateObject@SmartBox@@QAE?AW4NetBlobProcessedStatus@@PAVNetBlob@@KABVVisualDesc@@ABVPhysicsDesc@@ABVWeenieDesc@@@Z
455650 ?AddLight@CreatureMode@@QAEXW4LightType@LIGHTINFO@@M@Z
455710 ?Init@SmartBox@@SAPAV1@PAV?$NIList@PAVNetBlob@@@@H@Z
455770 ?add_unique@?$SmartArray@PAVQualityChangeHandler@@$00@@QAE_NABQAVQualityChangeHandler@@@Z
4557F0 ?AddObject@CreatureMode@@QAE_NPAVCPhysicsObj@@@Z
455830 ?UpdateLoadPoint@CellManager@@QAEXXZ
455850 ?calc_object_light@LScape@@SAMXZ
455890 ?ReleaseSoundTables@Ambient@@QAEXXZ
4558D0 ??0CellManager@@QAE@XZ
455930 ??1CellManager@@QAE@XZ
455940 ?PreFetchCells@CellManager@@IAEHV?$IDClass@U_tagDataID@@$0CA@$0A@@@H@Z
455A50 ?Reset@CellManager@@QAEXXZ
455AD0 ?ChangePosition@CellManager@@QAEXABVPosition@@H@Z
455D00 ?CheckPrefetchStatus@CellManager@@QAEHXZ
455D50 ?HandleRenderOption@GraphicsOptions@@SA_NHPAPADAAPBD1@Z
455E90 ?close_rotation@Frame@@SAHABV1@0M@Z
455F00 ??KVector3@@QBE?AV0@M@Z
455F30 ??D@YA?AVVector3@@MABV0@@Z
455F60 ?ToggleLookDown@CameraSet@@QAEXXZ
455F80 ?ToggleMapMode@CameraSet@@QAEXXZ
455FA0 ?ClearTarget@CameraManager@@QAEXXZ
455FB0 ?SetTarget@CameraManager@@QAEXW4CameraTarget@@@Z
455FC0 ?SetPivotObject@CameraManager@@QAEXKJ@Z
455FE0 ?SetTranslationalStiffness@CameraManager@@QAEHM@Z
456020 ?SetRotationalStiffness@CameraManager@@QAEHM@Z
456060 ?OnAction@CameraManager@@MAE_NABVInputEvent@@@Z
456260 ?MouseLookHandler@CameraManager@@MAEXJJ@Z
456280 ?ToggleMouseLook@CameraManager@@QAEXH@Z
4562A0 ?localtoglobal@Position@@QBE?AVVector3@AC1Legacy@@ABV1@ABV23@@Z
456340 ?localtoglobalvec@Position@@QBE?AVVector3@AC1Legacy@@ABV23@@Z
4563A0 ??1CameraManager@@UAE@XZ
456430 ?SetCameraSet@CameraManager@@QAEXPAVCameraSet@@@Z
4564A0 ?SetTargetObject@CameraManager@@QAEXKJ@Z
4564C0 ?SetTargetDirection@CameraManager@@QAEXABVVector3@AC1Legacy@@@Z
456510 ?FlagsToVector@CameraManager@@IBE?AVVector3@AC1Legacy@@K@Z
4565B0 ?OnStiffnessChanged@CameraManager@@SAXABV?$PStringBase@D@@@Z
4565E0 ??_GCameraManager@@UAEPAXI@Z
456610 ?QueryPivotPosition@CameraManager@@QBEHAAVPosition@@@Z
456780 ?UpdateCamera@CameraManager@@QAE?AVPosition@@ABV2@@Z
4571B0 ??0CameraManager@@QAE@XZ
4574E0 ?SetStiffness@CameraManager@@QAE_NM@Z
457510 ?StopRotating@CameraSet@@QAEXH@Z
457530 ?StopRaising@CameraSet@@QAEXXZ
457540 ?StopLowering@CameraSet@@QAEXXZ
457550 ?StopCloser@CameraSet@@QAEXXZ
457560 ?StopFarther@CameraSet@@QAEXXZ
457570 ?InHead@CameraSet@@QAEHVVector3@AC1Legacy@@@Z
4575B0 ?ToggleMouseLook@CameraSet@@QAEXH@Z
457650 ?FilterMouseInput@CameraSet@@IAEXMMMAAM0@Z
4576F0 ?get_heading@Vector3@AC1Legacy@@QBEMXZ
457750 ?get_pitch@Vector3@AC1Legacy@@QBEMXZ
4577A0 ?InHead@CameraSet@@QAEHXZ
457800 ?SetTargetForOffset@CameraSet@@QAEXVVector3@AC1Legacy@@@Z
457910 ?SetStiffness@CameraSet@@QAEXM@Z
457960 ?SetScale@CameraSet@@QAEXM@Z
457AA0 ?Raise@CameraSet@@QAEXHM@Z
457E10 ?Lower@CameraSet@@QAEXHM@Z
458110 ?LookDown@CameraSet@@QAEXH@Z
4582F0 ?SetMapMode@CameraSet@@QAEXH@Z
4583A0 ?TrackTarget@CameraSet@@QAEXK@Z
458430 ?Rotate@CameraSet@@QAEXHHMH@Z
4587F0 ?Closer@CameraSet@@QAEXHM@Z
4589B0 ?Farther@CameraSet@@QAEXHM@Z
458C00 ?UpdateCamera@CameraSet@@QAEXXZ
458E00 ?SetInHead@CameraSet@@QAEXXZ
458EA0 ?MouseLookHandler@CameraSet@@QAEXJJ@Z
4590A0 ?SetDefaultOffsets@CameraSet@@QAEXH@Z
4591E0 ??0CameraSet@@QAE@PAVSmartBox@@@Z
459270 ??_ECameraSet@@MAEPAXI@Z
4592B0 ?GetObjectA@UIRegion@@QBEPAVUIObject@@XZ
4592D0 ?SetActivatable@UIElement@@QAEX_N@Z
4592F0 ?SetObjectIsTemporary@UIElement@@QAEX_N@Z
459310 ?DestroyUIElementManager@UIElementManager@@SAXXZ
459330 ?Allocate@LayoutDesc@@UBEPAVDBObj@@XZ
459340 ?Allocator@LayoutDesc@@SAPAVDBObj@@XZ
459360 ?GetDBOType@LayoutDesc@@UBEKXZ
459370 ?StartHover@UIElementManager@@IAEXJJ@Z
4593A0 ?StopHover@UIElementManager@@IAEXXZ
4593E0 ?SetDurationForCurrentTooltip@UIElementManager@@QAEXM@Z
459400 ?ClearDragandDrop@UIElementManager@@IAE_NXZ
459440 ?SetVisible@UIElementManager@@QAEX_N@Z
459490 ?Recurse@?$MouseHitTester@UMouseOverCriteria@@@@KA_NPAVUIElement@@JJAAPAV2@@Z
459530 ?RemoveOrdered@?$SmartArray@PAVUIElement@@$00@@QAE_NABQAVUIElement@@@Z
459590 ?RemoveOrderedByIndex@?$SmartArray@PAVUIElement@@$00@@QAE_NK@Z
4595E0 ?Reset@?$SmartArray@VBox2D@@$00@@QAEXXZ
459660 ??0UIElementMessageInfo@@QAE@KPAVUIElement@@KKKJJJJ@Z
4596B0 ?ProcessUIMessageRemovalData@UIElementManager@@IAEXXZ
459770 ?StartTooltip@UIElementManager@@QAEXPAVUIElement@@0@Z
459880 ?StopDragandDrop@UIElementManager@@QAEXXZ
459960 ?UnregisterActivatable@UIElementManager@@QAEXPAVUIElement@@@Z
459980 ?ActivateNext@UIElementManager@@QAEX_N@Z
4599E0 ??0SurfaceUsageSummary@@QAE@XZ
459A00 ?GetElement@UIElementManager@@QAEPAVUIElement@@K@Z
459A40 ?set@?$DBObjGrabber@VLayoutDesc@@@@QAE_NV?$IDClass@U_tagDataID@@$0CA@$0A@@@@Z
459A80 ??_E?$IntrusiveHashTable@KPAV?$HashTableData@KV?$AutoGrowHashTable@KV?$SmartArray@UUIMessageData@@$00@@@@@@$00@@UAEPAXI@Z
459AC0 ??_G?$IntrusiveHashTable@KPAV?$HashTableData@KV?$SmartArray@UUIMessageData@@$00@@@@$00@@UAEPAXI@Z
459B00 ??_G?$IntrusiveHashTable@KPAV?$HashTableData@KV?$SmartArray@PAVUIElement@@$00@@@@$00@@UAEPAXI@Z
459B40 ??_E?$IntrusiveHashTable@KPAV?$HashTableData@KP6APAVUIElement@@ABVLayoutDesc@@ABVElementDesc@@@Z@@$0A@@@UAEPAXI@Z
459B80 ??_E?$IntrusiveHashTable@KPAV?$HashSetData@K@@$00@@UAEPAXI@Z
459BC0 ??_ESurfaceUsageSummary@@QAEPAXI@Z
459C70 ??4SurfaceUsageSummary@@QAEAAU0@ABU0@@Z
459CE0 ??0UIElementMessageInfo@@QAE@ABU0@@Z
459D30 ?grow@?$SmartArray@VBox2D@@$00@@QAE_NK@Z
459E20 ?grow@?$SmartArray@VLOAD_UVPAIR@@$00@@QAE_NK@Z
459EC0 ?pop_front@?$List@UUIElementMessageInfo@@@@QAE_NAAUUIElementMessageInfo@@@Z
459F40 ?Reset@?$SmartArray@USurfaceUsageSummary@@$00@@QAEXXZ
45A000 ?swap@_STL@@YAXAAUSurfaceUsageSummary@@0@Z
45A080 ?__unguarded_linear_insert@_STL@@YAXPAUSurfaceUsageSummary@@U2@U?$less@USurfaceUsageSummary@@@1@@Z
45A170 ?__push_heap@_STL@@YAXPAUSurfaceUsageSummary@@HHU2@U?$less@USurfaceUsageSummary@@@1@@Z
45A2B0 ?__copy_backward@_STL@@YAPAUSurfaceUsageSummary@@PAU2@00ABUrandom_access_iterator_tag@1@PAH@Z
45A350 ?CleanDeleteQueue@UIElementManager@@IAEXXZ
45A3B0 ?remove@?$List@UUIElementMessageInfo@@@@IAE_NPAV?$ListNode@UUIElementMessageInfo@@@@@Z
45A420 ??4?$SmartArray@VBox2D@@$00@@QAEAAV0@ABV0@@Z
45A4E0 ??4?$SmartArray@UUIMessageData@@$00@@QAEAAV0@ABV0@@Z
45A580 ?grow@?$SmartArray@USurfaceUsageSummary@@$00@@QAE_NK@Z
45A660 ?__median@_STL@@YAABUSurfaceUsageSummary@@ABU2@00U?$less@USurfaceUsageSummary@@@1@@Z
45A720 ?__unguarded_insertion_sort_aux@_STL@@YAXPAUSurfaceUsageSummary@@00U?$less@USurfaceUsageSummary@@@1@@Z
45A790 ?__adjust_heap@_STL@@YAXPAUSurfaceUsageSummary@@HHU2@U?$less@USurfaceUsageSummary@@@1@@Z
45A910 ?SetCursor@UIElementManager@@QAEXV?$IDClass@U_tagDataID@@$0CA@$0A@@@JJ_N@Z
45A9B0 ?push_back@?$List@UUIElementMessageInfo@@@@QAE_NABUUIElementMessageInfo@@@Z
45AA40 ?__unguarded_partition@_STL@@YAPAUSurfaceUsageSummary@@PAU2@0U2@U?$less@USurfaceUsageSummary@@@1@@Z
45AB20 ?__pop_heap@_STL@@YAXPAUSurfaceUsageSummary@@00U2@U?$less@USurfaceUsageSummary@@@1@PAH@Z
45ABC0 ?__make_heap@_STL@@YAXPAUSurfaceUsageSummary@@0U?$less@USurfaceUsageSummary@@@1@0PAH@Z
45AC50 ?BroadcastElementMessage@UIElementManager@@QAE_NABUUIElementMessageInfo@@@Z
45AD00 ?CheckCursor@UIElementManager@@QAEXXZ
45AD80 ?DrawRegionWithObject@UIElementManager@@QAEXPAVUIElement@@AAPAVUIObject@@@Z
45AE70 ?find@?$HashTable@KP6APAVUIElement@@ABVLayoutDesc@@ABVElementDesc@@@Z$0A@@@QBE_NABKAAP6APAVUIElement@@ABVLayoutDesc@@ABVElementDesc@@@Z@Z
45AEC0 ?CallFunctions@?$HierarchyNotifier@UMouseOverNotificationLogic@@@@SAHPAVUIElement@@0@Z
45B0C0 ?grow@?$IntrusiveHashTable@KPAV?$HashSetData@K@@$00@@QAE_NXZ
45B110 ??1?$List@UUIElementMessageInfo@@@@UAE@XZ
45B150 ?begin@?$HashList@PAVUIRegion@@PAV1@$00@@QBE?AV?$HashListIterator@V?$HashList@PAVUIRegion@@PAV1@$00@@@@XZ
45B180 ??_G?$List@UUIElementMessageInfo@@@@UAEPAXI@Z
45B1A0 ?CreateElementRecursiveFromFullDesc@UIElementManager@@IAEPAVUIElement@@ABVLayoutDesc@@ABVElementDesc@@@Z
45B350 ?AddElementToDeleteQueue@UIElementManager@@QAEXPAVUIElement@@@Z
45B3A0 ?BroadcastElementMessage@UIElementManager@@QAE_NKPAVUIElement@@KJ@Z
45B450 ?BroadcastElementMessage@UIElementManager@@QAE_NPAVUIElement@@KKK@Z
45B4C0 ?BroadcastGlobalMessage@UIElementManager@@QAEXKJ@Z
45B540 ?UnRegisterForMessageInternal@UIElementManager@@IAEXPAVUIListener@@PAV?$AutoGrowHashTable@KV?$SmartArray@UUIMessageData@@$00@@@@K@Z
45B5D0 ?UnRegisterForAllMessagesInternal@UIElementManager@@IAEXPAVUIListener@@AAV?$SmartArray@UUIMessageData@@$00@@@Z
45B640 ?SwitchMouseOver@UIElementManager@@IAEXPAVUIElement@@@Z
45B740 ?DoVisibilityToggleAction@UIElementManager@@QAE_NK@Z
45B7C0 ?CheckTooltip@UIElementManager@@IAEXXZ
45B8A0 ?DrawRegion@UIElementManager@@QAEXPAVUIElement@@AAPAVUIObject@@@Z
45B900 ?DrawDirtyRegions@UIElementManager@@QAEXXZ
45B970 ?SetFocusElement@UIElementManager@@QAEXPAVUIElement@@@Z
45B9E0 ?add@?$SmartArray@USurfaceUsageSummary@@$00@@QAE_NABUSurfaceUsageSummary@@@Z
45BA30 ??0?$IntrusiveHashTable@KPAV?$HashTableData@KP6APAVUIElement@@ABVLayoutDesc@@ABVElementDesc@@@Z@@$0A@@@QAE@I@Z
45BAC0 ??0?$IntrusiveHashTable@KPAV?$HashSetData@K@@$00@@QAE@I@Z
45BB50 ??0?$IntrusiveHashTable@KPAV?$HashTableData@KV?$AutoGrowHashTable@KV?$SmartArray@UUIMessageData@@$00@@@@@@$00@@QAE@I@Z
45BBE0 ??0?$IntrusiveHashTable@KPAV?$HashTableData@KV?$SmartArray@UUIMessageData@@$00@@@@$00@@QAE@I@Z
45BC70 ??0?$IntrusiveHashTable@KPAV?$HashTableData@KV?$SmartArray@PAVUIElement@@$00@@@@$00@@QAE@I@Z
45BD00 ?grow@?$IntrusiveHashTable@KPAV?$HashTableData@KV?$AutoGrowHashTable@KV?$SmartArray@UUIMessageData@@$00@@@@@@$00@@QAE_NXZ
45BD50 ?grow@?$IntrusiveHashTable@KPAV?$HashTableData@KV?$SmartArray@UUIMessageData@@$00@@@@$00@@QAE_NXZ
45BDA0 ?grow@?$IntrusiveHashTable@KPAV?$HashTableData@KV?$SmartArray@PAVUIElement@@$00@@@@$00@@QAE_NXZ
45BDF0 ?resize_internal@?$IntrusiveHashTable@KPAV?$HashSetData@K@@$00@@IAE_NK@Z
45BF30 ?__linear_insert@_STL@@YAXPAUSurfaceUsageSummary@@0U2@U?$less@USurfaceUsageSummary@@@1@@Z
45BFF0 ?sort_heap@_STL@@YAXPAUSurfaceUsageSummary@@0U?$less@USurfaceUsageSummary@@@1@@Z
45C090 ?CreateElementRecursiveFromPartialDesc@UIElementManager@@IAEPAVUIElement@@ABVLayoutDesc@@ABVElementDesc@@@Z
45C160 ?RemoveAndDeleteRootElement@UIElementManager@@QAEXPAVUIElement@@@Z
45C1B0 ?UnRegisterForElementMessage@UIElementManager@@QAEXPAVUIListener@@KK@Z
45C1F0 ?UnRegisterForGlobalMessage@UIElementManager@@QAEXPAVUIListener@@K@Z
45C210 ?UnRegisterForAllMessages@UIElementManager@@QAEXPAVUIListener@@@Z
45C380 ?MouseLeaveEvent@UIElementManager@@QAEXXZ
45C390 ?UpdateMouseOver@UIElementManager@@IAEXJJ@Z
45C3E0 ?KeyPressEvent@UIElementManager@@IAEXKM@Z
45C440 ?ResetTooltip@UIElementManager@@QAEXXZ
45C4A0 ?RegisterActivatable@UIElementManager@@QAEXPAVUIElement@@@Z
45C540 ?ActivationAlert@UIElementManager@@QAEXPAVUIElement@@_N@Z
45C610 ?RefreshEvent@UIElementManager@@QAE_NXZ
45C6A0 ?add@?$IntrusiveHashTable@KPAV?$HashSetData@K@@$00@@QAE_NPAV?$HashSetData@K@@@Z
45C720 ?delete_contents@?$IntrusiveHashTable@KPAV?$HashTableData@KV?$SmartArray@PAVUIElement@@$00@@@@$00@@QAEXXZ
45C7C0 ?resize_internal@?$IntrusiveHashTable@KPAV?$HashTableData@KV?$AutoGrowHashTable@KV?$SmartArray@UUIMessageData@@$00@@@@@@$00@@IAE_NK@Z
45C900 ?resize_internal@?$IntrusiveHashTable@KPAV?$HashTableData@KV?$SmartArray@UUIMessageData@@$00@@@@$00@@IAE_NK@Z
45CA40 ?resize_internal@?$IntrusiveHashTable@KPAV?$HashTableData@KV?$SmartArray@PAVUIElement@@$00@@@@$00@@IAE_NK@Z
45CB80 ?__insertion_sort@_STL@@YAXPAUSurfaceUsageSummary@@0U?$less@USurfaceUsageSummary@@@1@@Z
45CBF0 ?__partial_sort@_STL@@YAXPAUSurfaceUsageSummary@@000U?$less@USurfaceUsageSummary@@@1@@Z
45CCF0 ?CreateElement@UIElementManager@@IAEPAVUIElement@@ABVLayoutDesc@@ABVElementDesc@@@Z
45CD20 ?HandlePreferenceCallback@UIElementManager@@SAXABV?$PStringBase@D@@@Z
45CD80 ?ActionHandler@UIElementManager@@UAEXABVInputEvent@@@Z
45CDE0 ?DoMouseUpdate@UIElementManager@@IAEXXZ
45CE40 ?RefreshEvent_g@@YA_NXZ
45CE60 ?add@?$HashSet@K@@QAE_NABK@Z
45CED0 ?add@?$IntrusiveHashTable@KPAV?$HashTableData@KV?$AutoGrowHashTable@KV?$SmartArray@UUIMessageData@@$00@@@@@@$00@@QAE_NPAV?$HashTableData@KV?$AutoGrowHashTable@KV?$SmartArray@UUIMessageData@@$00@@@@@@@Z
45CF50 ?add@?$IntrusiveHashTable@KPAV?$HashTableData@KV?$SmartArray@UUIMessageData@@$00@@@@$00@@QAE_NPAV?$HashTableData@KV?$SmartArray@UUIMessageData@@$00@@@@@Z
45CFD0 ?add@?$IntrusiveHashTable@KPAV?$HashTableData@KV?$SmartArray@PAVUIElement@@$00@@@@$00@@QAE_NPAV?$HashTableData@KV?$SmartArray@PAVUIElement@@$00@@@@@Z
45D050 ?__final_insertion_sort@_STL@@YAXPAUSurfaceUsageSummary@@0U?$less@USurfaceUsageSummary@@@1@@Z
45D0B0 ?UseTime@UIElementManager@@QAEXXZ
45D100 ?CreateRootElement@UIElementManager@@QAEPAVUIElement@@ABVLayoutDesc@@ABVElementDesc@@@Z
45D160 ?CreateChildElement@UIElementManager@@QAEPAVUIElement@@PAV2@ABVLayoutDesc@@ABVElementDesc@@@Z
45D1C0 ?CreateHollowElement@UIElementManager@@QAEPAVUIElement@@PAV2@@Z
45D310 ?RegisterElementClass@UIElementManager@@QAEXKP6APAVUIElement@@ABVLayoutDesc@@ABVElementDesc@@@Z@Z
45D350 ?SetMouseCapture@UIElementManager@@QAEXPAVUIElement@@@Z
45D390 ?ReleaseMouseCapture@UIElementManager@@QAEXPAVUIElement@@@Z
45D3E0 ?add@?$HashTable@KV?$SmartArray@UUIMessageData@@$00@@$00@@QAE_NABKABV?$SmartArray@UUIMessageData@@$00@@@Z
45D470 ?add@?$HashTable@KV?$SmartArray@PAVUIElement@@$00@@$00@@QAE_NABKABV?$SmartArray@PAVUIElement@@$00@@@Z
45D500 ??_E?$HashTable@KV?$SmartArray@PAVUIElement@@$00@@$00@@UAEPAXI@Z
45D560 ??_E?$HashTable@KP6APAVUIElement@@ABVLayoutDesc@@ABVElementDesc@@@Z$0A@@@UAEPAXI@Z
45D5C0 ??_E?$HashSet@K@@UAEPAXI@Z
45D620 ??4?$HashTable@KV?$SmartArray@UUIMessageData@@$00@@$00@@QAEAAV0@ABV0@@Z
45D770 ?__introsort_loop@_STL@@YAXPAUSurfaceUsageSummary@@00HU?$less@USurfaceUsageSummary@@@1@@Z
45D880 ?CreateRootElement@UIElementManager@@QAEPAVUIElement@@ABVLayoutDesc@@K@Z
45D8B0 ?CreateChildElement@UIElementManager@@QAEPAVUIElement@@PAV2@ABVLayoutDesc@@K@Z
45D8E0 ?RegisterElementForInputAction@UIElementManager@@QAEXKPAVUIElement@@@Z
45D970 ?UnRegisterElementForAllInputActions@UIElementManager@@QAEXPAVUIElement@@@Z
45DBA0 ?RegisterForMessageInternal@UIElementManager@@IBEXPAVUIListener@@PAV?$AutoGrowHashTable@KV?$SmartArray@UUIMessageData@@$00@@@@K@Z
45DC40 ?MouseDownEvent@UIElementManager@@IAEXKM@Z
45DE30 ?MouseUpEvent@UIElementManager@@IAEXKPAVIInputActionCallback@@@Z
45DF70 ?StartTooltip@UIElementManager@@QAEXABVStringInfo@@PAVUIElement@@KV?$IDClass@U_tagDataID@@$0CA@$0A@@@K@Z
45E120 ?StartDragandDrop@UIElementManager@@QAE_NPAVUIElement@@JJ@Z
45E3B0 ??_G?$AutoGrowHashTable@KV?$SmartArray@UUIMessageData@@$00@@@@UAEPAXI@Z
45E410 ?sort@_STL@@YAXPAUSurfaceUsageSummary@@0@Z
45E470 ??1?$AutoGrowHashTable@KV?$SmartArray@UUIMessageData@@$00@@@@UAE@XZ
45E4B0 ?CreateRootElementByDataID@UIElementManager@@QAEPAVUIElement@@V?$IDClass@U_tagDataID@@$0CA@$0A@@@K@Z
45E520 ?CreateChildElementByEnum@UIElementManager@@QAEPAVUIElement@@PAV2@KK@Z
45E580 ?CreateChildElementByDid@UIElementManager@@QAEPAVUIElement@@PAV2@V?$IDClass@U_tagDataID@@$0CA@$0A@@@K@Z
45E600 ?DeletingElement@UIElementManager@@QAEXPAVUIElement@@@Z
45E760 ?RegisterForGlobalMessage@UIElementManager@@QAEXPAVUIListener@@K@Z
45E780 ?OnAction@UIElementManager@@UAE_NABVInputEvent@@@Z
45E7F0 ?MouseMoveHandler@UIElementManager@@UAEXJJ@Z
45E930 ?ConsoleCommand_PrintUISurfaceUsage@UIElementManager@@SA_NXZ
45EE30 ?delete_contents@?$IntrusiveHashTable@KPAV?$HashTableData@KV?$AutoGrowHashTable@KV?$SmartArray@UUIMessageData@@$00@@@@@@$00@@QAEXXZ
45EEF0 ?Init@UIElementManager@@QAE_NXZ
45F140 ?add@?$HashTable@KV?$AutoGrowHashTable@KV?$SmartArray@UUIMessageData@@$00@@@@$00@@QAE_NABKABV?$AutoGrowHashTable@KV?$SmartArray@UUIMessageData@@$00@@@@@Z
45F200 ?Cleanup@UIElementManager@@QAEXXZ
45F380 ?RegisterForElementMessage@UIElementManager@@QAEXPAVUIListener@@KK@Z
45F4C0 ??1UIElementManager@@UAE@XZ
45F6B0 ??0UIElementManager@@QAE@XZ
45F8D0 ??_EUIElementManager@@UAEPAXI@Z
45F900 ?CreateUIElementManager@UIElementManager@@SAXXZ
45F940 ??0Box2D@@QAE@JJJJ@Z
45F970 ?MouseOver@UIRegion@@UAEX_N@Z
45F990 ?MouseOverTop@UIRegion@@UAEX_N@Z
45F9B0 ?SetTooltipOn@UIRegion@@QAEX_N@Z
45F9D0 ?SetDragable@UIElement@@QAEX_N@Z
45F9F0 ?SetActivateOnShow@UIElement@@QAEX_N@Z
45FA10 ?SetSaveLocation@UIElement@@QAEX_N@Z
45FA30 ?SetSaveSize@UIElement@@QAEX_N@Z
45FA50 ?SetNotifyOnResize@UIElement@@QAEX_N@Z
45FA70 ?SetNotifyOnMove@UIElement@@QAEX_N@Z
45FA90 ?SetContextMenu@UIElement@@QAEX_N@Z
45FAB0 ?SetNotifyOnCreate@UIElement@@QAEX_N@Z
45FAD0 ??9Vector3@@QBE_NABV0@@Z
45FB30 ?GetRootElement@UIElement@@QAEPAV1@XZ
45FB80 ?GetAncestorByID@UIElement@@UBEPAV1@K@Z
45FBB0 ?IsAncestorOfMe@UIElement@@QBE_NPBV1@@Z
45FBE0 ?RegisterInputMaps@UIElement@@UAE_NJ@Z
45FC50 ?UnregisterInputMaps@UIElement@@UAE_NXZ
45FCA0 ?OnAction@UIElement@@UAE_NABVInputEvent@@@Z
45FCE0 ?OnChildAction@UIElement@@UAE_NABV1@ABVInputEvent@@@Z
45FD10 ?DefElementMessageHandler@UIElement@@MAE_NABUUIElementMessageInfo@@@Z
45FD40 ?CompareZLevel@UIElement@@UBEJPBVUIRegion@@@Z
45FD80 ?StartResizing@UIElement@@QAEXW4BorderLocation@@JJ@Z
45FE40 ?StopResizing@UIElement@@QAEXXZ
45FE90 ?StartMovement@UIElement@@QAEXJJ@Z
45FF00 ?StopMovement@UIElement@@QAEXXZ
45FF10 ?MouseMoveElement@UIElement@@IAEXJJ@Z
460030 ?SetCursor@UIElement@@QAEXV?$IDClass@U_tagDataID@@$0CA@$0A@@@JJ@Z
460060 ?UnSetCursor@UIElement@@QAEXXZ
460090 ?InqImageSize@UIElement@@QAE?B_NAAJ0@Z
4600D0 ?CenterAt@UIElement@@QAEXJJ@Z
460110 ?GetOriginalPosition@UIElement@@IAEXAAVBox2D@@AAJ@Z
460180 ?GetCurrentPosition@UIElement@@IAEXAAVBox2D@@AAJ@Z
4601D0 ?GetShouldOwnObject@UIElement@@QBE_NXZ
4601E0 ?SetIsRootElement@UIElement@@QAEX_N@Z
460250 ?AddToDeleteQueue@UIElement@@QAEXXZ
460270 ?RegisterElementClass@UIElement@@KAXKP6APAV1@ABVLayoutDesc@@ABVElementDesc@@@Z@Z
460290 ?GetShouldBeMouseVisible@UIElement@@MAE_NXZ
4602C0 ?TakeFocus@UIElement@@UAE_NXZ
460310 ?GetHasFocus@UIElement@@QBE_NXZ
460330 ?GetFocusDescendant@UIElement@@QAEPAV1@XZ
460340 ?UpdateMouseVisibility@UIElement@@QAEXXZ
460370 ?SetClampGameViewEdge@UIElement@@UAEXK@Z
4603A0 ?IsVisible@UIElement@@QBE_NXZ
460410 ?BroadcastElementMessage@UIElement@@QAE_NKKK@Z
460470 ?SetAttribute_Enum@UIElement@@QAE_NKK@Z
460530 ?SetAttribute_InstanceID@UIElement@@QAE_NKK@Z
4605F0 ?SetAttribute_StringInfo@UIElement@@QAE_NKVStringInfo@@@Z
4606B0 ?SetAttribute_Int@UIElement@@QAE_NKJ@Z
460760 ?SetAttribute_Float@UIElement@@QAE_NKM@Z
460820 ?SetAttribute_Bool@UIElement@@QAE_NK_N@Z
4608D0 ?SetAttribute_DataID@UIElement@@QAE_NKV?$IDClass@U_tagDataID@@$0CA@$0A@@@@Z
460990 ?GetAttribute_Enum@UIElement@@QBE_NKAAK@Z
460A60 ?GetAttribute_InstanceID@UIElement@@QBE_NKAAK@Z
460B30 ?GetAttribute_Int@UIElement@@QBE_NKAAJ@Z
460BF0 ?GetAttribute_Float@UIElement@@QBE_NKAAM@Z
460CC0 ?GetAttribute_Bool@UIElement@@QBE_NKAA_N@Z
460D80 ?GetAttribute_DataID@UIElement@@QBE_NKAAV?$IDClass@U_tagDataID@@$0CA@$0A@@@@Z
460E50 ?StartTooltipAtMouse@UIElement@@QAEPAV1@N@Z
460FF0 ?MouseDown@UIElement@@UAEXKKK@Z
4610C0 ?MouseTap@UIElement@@MAEXKKK@Z
461140 ?KeyUp@UIElement@@UAE_NK@Z
4611A0 ?KeyDown@UIElement@@UAE_NKM@Z
461210 ?MouseResizeElement@UIElement@@IAEXJJ@Z
461680 ?MouseOver@UIElement@@UAEX_N@Z
4616B0 ?MouseOverTop@UIElement@@UAEX_N@Z
4616E0 ?DragItem@UIElement@@UAE_NAAPAV1@@Z
4617D0 ?GetDragAndDropCatcher@UIElement@@UAEPAV1@PAV1@@Z
461860 ?CatchDroppedItem@UIElement@@UAE_NPAVDragDropInfo@@@Z
461880 ?DragAndDropComplete@UIElement@@UAEXPAVDragDropInfo@@@Z
4618A0 ?SetTooltip@UIElement@@QAEXABVStringInfo@@@Z
461920 ?MakeUIObject@UIElement@@MAE_NAAPAVUIObject@@@Z
461BA0 ?SetUIObject@UIElement@@MAE_NPAVUIObject@@@Z
461CB0 ?SetShouldOwnObject@UIElement@@QAEX_N@Z
461D60 ?Activate@UIElement@@UAE_NXZ
461E30 ?Deactivate@UIElement@@UAE_NXZ
461EC0 ?RelinquishFocus@UIElement@@UAE_NXZ
461F10 ?SetMouseVisible@UIElement@@UAEX_N@Z
461FB0 ?GetCurrentUIObjectMode@UIElement@@QBEXAAK@Z
462040 ?GetObjectScale@UIElement@@QBE?AVVector3@@XZ
4620C0 ?UpdateObjectScale@UIElement@@QAE_NXZ
462220 ?GetSurfaceBox@UIElement@@UBE?AVBox2D@@XZ
462270 ?UpdateSurfaceBox@UIElement@@QAE_N_N@Z
462350 ??_G?$IntrusiveHashTable@PAVUIListener@@PAV?$HashSetData@PAVUIListener@@@@$00@@UAEPAXI@Z
462390 ?SetVisible@UIElement@@UAEX_N@Z
462420 ?ListenToElementMessage@UIElement@@MAE?AW4UIElementMessageListenResult@@ABUUIElementMessageInfo@@@Z
4625B0 ?InqAvailableProperties@UIElement@@UBE_NAAVAvailablePropertySet@@@Z
462600 ?MouseHover@UIElement@@UAE_NJJ@Z
4626C0 ?ClearTooltip@UIElement@@QAEXXZ
462720 ?UpdateForParentSizeChange@UIElement@@QAE_NXZ
462AE0 ??M?$CTimestamp@K$0A@@@QBE_NABV0@@Z
462B30 ?SetParent@UIElement@@UAEXPAVUIRegion@@@Z
462C00 ?ForwardElementMessage@UIElement@@MAE?AW4UIElementMessageListenResult@@ABUUIElementMessageInfo@@W42@@Z
462D70 ?Initialize@UIElement@@UAEXXZ
462E60 ?OnSetAttribute@UIElement@@UAEXABVBaseProperty@@@Z
4633F0 ?MouseMove@UIElement@@UAEXJJ@Z
4634C0 ?MoveTo@UIElement@@UAEXJJ@Z
463650 ?contains@?$IntrusiveHashList@PAVUIRegion@@PAUHashListData@?$HashList@PAVUIRegion@@PAV1@$00@@$00@@QBE_NABQAVUIRegion@@@Z
463690 ?GetLastChildElement@UIElement@@QAEPAV1@XZ
4636C0 ?contains@?$HashSet@K@@QBE_NABK@Z
463700 ?find@?$HashTable@KVBaseProperty@@$00@@QBE_NABKAAVBaseProperty@@@Z
463750 ?grow@?$IntrusiveHashTable@PAVUIListener@@PAV?$HashSetData@PAVUIListener@@@@$00@@QAE_NXZ
4637A0 ?AddToEnd@?$SmartArray@PAVUIElement_Button@@$00@@QAE_NABQAVUIElement_Button@@@Z
4637F0 ?IsMouseDown@UIRegion@@QBE_NK@Z
463830 ?OnVisibilityChanged@UIElement@@MAEX_N@Z
4639A0 ?PostInit@UIElement@@UAEXXZ
463A00 ?InqProperty@UIElement@@UBE_NKAAVBaseProperty@@@Z
463A70 ?MouseUp@UIElement@@UAEXKKK@Z
463BA0 ?GetChild@UIElement@@QBEPAV1@K@Z
463C00 ?GetChildRecursive@UIElement@@QBEPAV1@K@Z
463C80 ?SetMediaImage@UIElement@@QAEXV?$IDClass@U_tagDataID@@$0CA@$0A@@@K@Z
463D10 ?SetMediaImageForState@UIElement@@QAEXV?$IDClass@U_tagDataID@@$0CA@$0A@@@KK@Z
463D60 ?ResizeTo@UIElement@@UAEXJJ@Z
463FB0 ?UpdateForScreenPositionChange@UIElement@@MAEXXZ
464090 ?UpdateForParentVisibilityChange@UIElement@@UAEX_N@Z
464110 ?GetFirstChildElement@UIElement@@QAEPAV1@XZ
464140 ??0?$IntrusiveHashTable@PAVUIListener@@PAV?$HashSetData@PAVUIListener@@@@$00@@QAE@I@Z
4641D0 ?resize_internal@?$IntrusiveHashTable@PAVUIListener@@PAV?$HashSetData@PAVUIListener@@@@$00@@IAE_NK@Z
464310 ?resize_internal@?$IntrusiveHashTable@PAVUIRegion@@PAUHashListData@?$HashList@PAVUIRegion@@PAV1@$00@@$00@@IAE_NK@Z
4643E0 ?ContainsProperty@PropertyCollection@@QBE_NK@Z
464430 ?ContainsProperty@UIElement@@UBE_NK@Z
464490 ?GetNextChildElement@UIElement@@QAEPAV1@PAV1@@Z
4644F0 ?GetPrevChildElement@UIElement@@QAEPAV1@PAV1@@Z
464550 ?add@?$IntrusiveHashTable@PAVUIListener@@PAV?$HashSetData@PAVUIListener@@@@$00@@QAE_NPAV?$HashSetData@PAVUIListener@@@@@Z
4645D0 ?remove@?$IntrusiveHashTable@PAVUIRegion@@PAUHashListData@?$HashList@PAVUIRegion@@PAV1@$00@@$00@@QAEPAUHashListData@?$HashList@PAVUIRegion@@PAV1@$00@@ABQAVUIRegion@@@Z
464640 ?grow@?$IntrusiveHashTable@PAVUIRegion@@PAUHashListData@?$HashList@PAVUIRegion@@PAV1@$00@@$00@@QAE_NXZ
464690 ?FindRelative@UIElement@@QBEPAV1@K@Z
464770 ?add@?$HashSet@PAVUIListener@@@@QAE_NABQAVUIListener@@@Z
4647E0 ??_E?$HashSet@PAVUIListener@@@@UAEPAXI@Z
464840 ?remove@?$IntrusiveHashList@PAVUIRegion@@PAUHashListData@?$HashList@PAVUIRegion@@PAV1@$00@@$00@@QAEPAUHashListData@?$HashList@PAVUIRegion@@PAV1@$00@@ABQAVUIRegion@@@Z
4648B0 ?add_internal@?$IntrusiveHashTable@PAVUIRegion@@PAUHashListData@?$HashList@PAVUIRegion@@PAV1@$00@@$00@@AAEXPAUHashListData@?$HashList@PAVUIRegion@@PAV1@$00@@@Z
464900 ??0UIElement@@QAE@ABVLayoutDesc@@ABVElementDesc@@@Z
464A80 ?SetShouldEraseBackground@UIRegion@@UAEX_N@Z
464AA0 ?GetActivatable@UIElement@@UBE_NXZ
464AB0 ?HasCursor@UIElement@@UBE_NXZ
464AD0 ?RegisterForElementMessages@UIElement@@QAEXPAVUIListener@@@Z
464B00 ?UnregisterForElementMessages@UIElement@@QAEXPAVUIListener@@@Z
464B50 ?flush@?$HashList@PAVUIRegion@@PAV1@$00@@QAEXXZ
464BD0 ?add@?$IntrusiveHashTable@PAVUIRegion@@PAUHashListData@?$HashList@PAVUIRegion@@PAV1@$00@@$00@@QAE_NPAUHashListData@?$HashList@PAVUIRegion@@PAV1@$00@@@Z
464C90 ?SetProperty@UIElement@@UAE_NABVBaseProperty@@@Z
464CD0 ?DeleteChildren@UIElement@@QAEXXZ
464D30 ?move_to_tail@?$HashList@PAVUIRegion@@PAV1@$00@@QAE_NABQAVUIRegion@@@Z
464D80 ?push_tail@?$IntrusiveHashList@PAVUIRegion@@PAUHashListData@?$HashList@PAVUIRegion@@PAV1@$00@@$00@@QAE_NPAUHashListData@?$HashList@PAVUIRegion@@PAV1@$00@@@Z
464DE0 ??_EPropertyCollection@@UAEPAXI@Z
464E00 ??1UIElement@@UAE@XZ
464FA0 ?SetState@UIElement@@UAE_NK@Z
465330 ?MatchElement@UIElement@@UAEXABV1@@Z
465550 ?push_tail@?$HashList@PAVUIRegion@@PAV1@$00@@QAE_NABQAVUIRegion@@0@Z
4655F0 ??_EUIElement@@UAEPAXI@Z
465610 ?BringChildToTop@UIElement@@QAEXPAV1@@Z
465650 ?Update_Pause@MediaMachine@@IAE_NPAVMD_Data_Pause@@@Z
4656E0 ?Update_Jump@MediaMachine@@IAE_NPAVMD_Data_Jump@@@Z
465730 ?Update_Message@MediaMachine@@IAE_NPAVMD_Data_Message@@@Z
465790 ?Update_State@MediaMachine@@IAE_NPAVMD_Data_State@@@Z
4657E0 ?Update_Movie@MediaMachine@@IAE_NPAVMD_Data_Movie@@@Z
465810 ?Update_Anim@MediaMachine@@IAE_NPAVMD_Data_Anim@@@Z
465960 ?Update_Alpha@MediaMachine@@IAE_NPAVMD_Data_Alpha@@@Z
4659A0 ?Update_Image@MediaMachine@@IAE_NPAVMD_Data_Image@@@Z
4659E0 ?Update_Sound@MediaMachine@@IAE_NPAVMD_Data_Sound@@@Z
465A60 ?Update_Fade@MediaMachine@@IAE_NPAVMD_Data_Fade@@@Z
465BB0 ?Update_Cursor@MediaMachine@@IAE_NPAVMD_Data_Cursor@@@Z
465BF0 ??0MediaMachine@@QAE@XZ
465C20 ?Cleanup@MediaMachine@@QAEXXZ
465CD0 ?Update@MediaMachine@@QAEXXZ
465E20 ?ListenToGlobalMessage@MediaMachine@@UAEXKJ@Z
465E30 ??1MediaMachine@@UAE@XZ
465E70 ??_GMediaMachine@@UAEPAXI@Z
465EC0 ?Reset@MediaMachine@@QAEXABV?$SmartArray@PAVMediaDesc@@$00@@@Z
465F50 ?RegisterForElementMessage@UIListener@@QAEXKK@Z
465F70 ?UnRegisterForElementMessage@UIListener@@QAEXKK@Z
465F90 ?RegisterForGlobalMessage@UIListener@@QAEXK@Z
465FB0 ?UnRegisterForGlobalMessage@UIListener@@QAEXK@Z
465FD0 ??_E?$IntrusiveHashTable@PAVUIElement@@PAV?$HashSetData@PAVUIElement@@@@$00@@UAEPAXI@Z
466010 ?grow@?$IntrusiveHashTable@PAVUIElement@@PAV?$HashSetData@PAVUIElement@@@@$00@@QAE_NXZ
466060 ??0?$IntrusiveHashTable@PAVUIElement@@PAV?$HashSetData@PAVUIElement@@@@$00@@QAE@I@Z
4660F0 ?resize_internal@?$IntrusiveHashTable@PAVUIElement@@PAV?$HashSetData@PAVUIElement@@@@$00@@IAE_NK@Z
466230 ?add@?$IntrusiveHashTable@PAVUIElement@@PAV?$HashSetData@PAVUIElement@@@@$00@@QAE_NPAV?$HashSetData@PAVUIElement@@@@@Z
4662B0 ?add@?$HashSet@PAVUIElement@@@@QAE_NABQAVUIElement@@@Z
466320 ??_E?$HashSet@PAVUIElement@@@@UAEPAXI@Z
466380 ??0UIListener@@QAE@XZ
4663B0 ??1UIListener@@UAE@XZ
466470 ?OnRegisteredWithElement@UIListener@@IAEXPAVUIElement@@@Z
466480 ?OnUnregisteredWithElement@UIListener@@IAEXPAVUIElement@@@Z
4664A0 ??_GUIListener@@UAEPAXI@Z
4664C0 ?IsValid@Box2D@@QBE_NXZ
4664E0 ?NameInputFilter@@YA_NG@Z
466520 ?NumberInputFilter@@YA_NG@Z
466540 ?ClearSelection@UIElement_Text@@QAE_NXZ
466570 ?ScrollPage@UIElement_Text@@QAEX_N@Z
4665B0 ??_G?$ListIterator@VGlyph@@@@UAEPAXI@Z
4665D0 ?Reset@?$SmartArray@VGlyph@@$00@@QAEXXZ
466680 ?Intersection@Box2D@@QBE_NABV1@AAV1@@Z
466730 ?SetNoIme@UIElement_Text@@IAEX_N@Z
466760 ?SetOutline@UIElement_Text@@IAEX_N@Z
466790 ?IMETurnOn@UIElement_Text@@IAE_NXZ
4667D0 ?CleanupStringDownloads@UIElement_Text@@IAEXXZ
466830 ?GetText@UIElement_Text@@QBE?AV?$PStringBase@G@@XZ
4668A0 ?GetPreParsedText@UIElement_Text@@QBE?AV?$PStringBase@G@@XZ
466910 ?SetSelecting@UIElement_Text@@IAEX_N@Z
466980 ?SetDirty@UIElement_Text@@IAEX_N@Z
4669D0 ?DetermineMarginValues@UIElement_Text@@AAEXXZ
466A90 ?SetFontDIDHelper@UIElement_Text@@IAEXKAAPAVFont@@K@Z
466BF0 ?SetFontColorHelper@UIElement_Text@@IAEXKAAVRGBAColor@@K@Z
466E80 ?SetFontDID@UIElement_Text@@QAEXV?$IDClass@U_tagDataID@@$0CA@$0A@@@@Z
466FE0 ?SetFontDIDWithoutChangingExistingText@UIElement_Text@@QAEXV?$IDClass@U_tagDataID@@$0CA@$0A@@@@Z
467000 ?ChangeExistingTextToNewFont@UIElement_Text@@QAEXPAVFont@@@Z
467040 ?MoveBeginEndLine@UIElement_Text@@IAE_N_NKAAK@Z
4670F0 ?SetSelectionStart@UIElement_Text@@QAE_NK@Z
467150 ?SetSelectionEnd@UIElement_Text@@QAE_NK@Z
4671B0 ?GetSelection@UIElement_Text@@QBE_NAAK0@Z
467210 ?RecalculateTruncation@UIElement_Text@@QAEXAAJ0@Z
467490 ?SetHorizontalJustification@UIElement_Text@@QAE?B_NK@Z
4674C0 ?SetVerticalJustification@UIElement_Text@@QAE?B_NK@Z
4674F0 ?CalcJustification@UIElement_Text@@QAEJK_N@Z
4675E0 ?RegisterInputMaps@UIElement_Text@@UAE_NJ@Z
467660 ?UnregisterInputMaps@UIElement_Text@@UAE_NXZ
4676D0 ?AdjustToScrollableXYChange@UIElement_Text@@UAEXXZ
4676F0 ?GetShouldBeMouseVisible@UIElement_Text@@MAE_NXZ
467710 ?SetTruncateTextToFit@UIElement_Text@@IAEX_N@Z
467780 ?SetLoseFocusOnEscape@UIElement_Text@@IAEX_N@Z
4677B0 ?SetLoseFocusOnAcceptInput@UIElement_Text@@IAEX_N@Z
4677E0 ?ResizeToPaper@UIElement_Text@@IAEXXZ
467890 ??1?$SmartArray@VGlyph@@$00@@QAE@XZ
4678E0 ?grow@?$SmartArray@VGlyph@@$00@@QAE_NK@Z
4679F0 ??1UIElement_Text@@UAE@XZ
467A70 ?DynamicCast@UIElement_Text@@UAEPAVUIElement@@K@Z
467A90 ?InqAvailableProperties@UIElement_Text@@UBE_NAAVAvailablePropertySet@@@Z
467AE0 ?ClearAllText@UIElement_Text@@QAEXXZ
467B60 ?SelectAll@UIElement_Text@@QAEXXZ
467BC0 ?Deselect@UIElement_Text@@QAEXXZ
467C30 ?GetSelectedText@UIElement_Text@@QBE?AV?$PStringBase@G@@XZ
467CC0 ?ResizeTo@UIElement_Text@@UAEXJJ@Z
467D30 ?DrawSelf@UIElement_Text@@UAEXABVBox2D@@0ABV?$SmartArray@VBox2D@@$00@@PAVUISurface@@@Z
468360 ?SetEditable@UIElement_Text@@IAEX_N@Z
468400 ?SetOneLine@UIElement_Text@@IAEX_N@Z
468450 ?SetSelectable@UIElement_Text@@IAEX_N@Z
468520 ?SetFontDIDNum@UIElement_Text@@QAEXK@Z
468540 ?SetFontColorNum@UIElement_Text@@QAEXK@Z
468570 ?MoveUpDown@UIElement_Text@@IAE_N_NKAAK@Z
4686B0 ?RecalculateGlyphList@UIElement_Text@@QAE_NXZ
4687D0 ?SetFitToText@UIElement_Text@@IAEX_N@Z
468800 ??0UIElement_Text@@QAE@ABVLayoutDesc@@ABVElementDesc@@@Z
468A00 ??_EUIElement_Text@@UAEPAXI@Z
468A20 ?Create@UIElement_Text@@SAPAVUIElement@@ABVLayoutDesc@@ABVElementDesc@@@Z
468A50 ?ListenToElementMessage@UIElement_Text@@UAE?AW4UIElementMessageListenResult@@ABUUIElementMessageInfo@@@Z
468B20 ?DrawStart@UIElement_Text@@UAEXXZ
468B30 ?Copy@UIElement_Text@@AAEXXZ
468B80 ?DeterminePositionFromXY@UIElement_Text@@IAEKJJ@Z
468C40 ?InqScrollDelta@UIElement_Text@@UAEJ_N00@Z
468D20 ?Register@UIElement_Text@@SAXXZ
468D30 ?IsPositionInView@UIElement_Text@@QAE?B_NABJ@Z
468E20 ?SetCursorPosition@UIElement_Text@@IAE_NKW4CursorMovementFlags@1@@Z
468F60 ?SetCursorPositionFromXY@UIElement_Text@@IAE_NJJW4CursorMovementFlags@1@@Z
468F90 ?MoveCursor@UIElement_Text@@IAE_NW4Direction@TextDefs@@@Z
469100 ?MoveCursorToEnd@UIElement_Text@@QAEXXZ
469120 ?MoveCursorToPosition@UIElement_Text@@QAEXJ@Z
469130 ?InqGlyphs@UIElement_Text@@IAE_NABV?$PStringBase@G@@AAV?$SmartArray@VGlyph@@$00@@@Z
469440 ?ScrollToPosition@UIElement_Text@@QAEXJ@Z
4695E0 ?IsAtVerticalEnd@UIElement_Text@@QAE_NXZ
469600 ?MouseDown@UIElement_Text@@MAEXKKK@Z
469780 ?MouseUp@UIElement_Text@@MAEXKKK@Z
469880 ?MouseMove@UIElement_Text@@MAEXJJ@Z
4698F0 ?InqSizewMargins@UIElement_Text@@QAE_NABVStringInfo@@AAJ1W4UIText_InqSize_Flag@1@@Z
469A90 ?DeleteSection@UIElement_Text@@IAEXKK_N@Z
469C00 ?BeheadText@UIElement_Text@@QAEXK_N@Z
469C20 ?DeleteChar@UIElement_Text@@IAEXXZ
469C40 ?DeleteSelection@UIElement_Text@@IAEXXZ
469CC0 ?AddText_Internal@UIElement_Text@@AAEXV?$PStringBase@G@@K@Z
469DF0 ?Cut@UIElement_Text@@AAEXXZ
469E20 ?CharacterHandler@UIElement_Text@@UAEXG@Z
469F70 ?AppendText@UIElement_Text@@QAEXABV?$PStringBase@G@@@Z
469FA0 ?AppendStringInfo@UIElement_Text@@QAEXABVStringInfo@@@Z
46A000 ?AppendTextWithFont@UIElement_Text@@QAEXABV?$PStringBase@G@@JJ@Z
46A070 ?AppendStringInfoWithFont@UIElement_Text@@QAEXABVStringInfo@@JJ@Z
46A100 ?CheckStringDownloads@UIElement_Text@@IAEXXZ
46A250 ?Global_Loop@UIElement_Text@@IAEXXZ
46A350 ?SetStringInfo@UIElement_Text@@QAEXABVStringInfo@@@Z
46A370 ?SetStringInfoWithFont@UIElement_Text@@QAEXABVStringInfo@@JJ@Z
46A3A0 ?Paste@UIElement_Text@@AAEXXZ
46A4F0 ?OnAction@UIElement_Text@@UAE_NABVInputEvent@@@Z
46A730 ?ListenToGlobalMessage@UIElement_Text@@UAEXKJ@Z
46A740 ?SetText@UIElement_Text@@QAEXABV?$PStringBase@G@@@Z
46A790 ?SetTextWithFont@UIElement_Text@@QAEXABV?$PStringBase@G@@JJ@Z
46A7F0 ?DoFontReset@UIElement_Text@@QAEXXZ
46A870 ?MatchElement@UIElement_Text@@UAEXABVUIElement@@@Z
46A8D0 ?OnSetAttribute@UIElement_Text@@UAEXABVBaseProperty@@@Z
46AE90 ?DynamicCast@UIElement_GroupBox@@UAEPAVUIElement@@K@Z
46AEB0 ?Create@UIElement_GroupBox@@SAPAVUIElement@@ABVLayoutDesc@@ABVElementDesc@@@Z
46AEF0 ?PostInit@UIElement_GroupBox@@UAEXXZ
46AF30 ?OnSetAttribute@UIElement_GroupBox@@UAEXABVBaseProperty@@@Z
46AFB0 ?ListenToElementMessage@UIElement_GroupBox@@UAE?AW4UIElementMessageListenResult@@ABUUIElementMessageInfo@@@Z
46B030 ??_EUIElement_GroupBox@@UAEPAXI@Z
46B060 ?Register@UIElement_GroupBox@@SAXXZ
46B070 ?InqAvailableProperties@UIElement_GroupBox@@UBE_NAAVAvailablePropertySet@@@Z
46B0C0 ??0UIElement_ColorPicker@@QAE@ABVLayoutDesc@@ABVElementDesc@@@Z
46B120 ?DynamicCast@UIElement_ColorPicker@@UAEPAVUIElement@@K@Z
46B140 ?Create@UIElement_ColorPicker@@SAPAVUIElement@@ABVLayoutDesc@@ABVElementDesc@@@Z
46B170 ?SetCurrentSelectedColor@UIElement_ColorPicker@@QAE_NABVRGBAColor@@@Z
46B300 ?GetShouldBeMouseVisible@UIElement_ColorPicker@@MAE_NXZ
46BDA0 ?MakeUIObject@UIElement_Viewport@@MAE_NAAPAVUIObject@@@Z
46BE10 ?SetCamera@UIElement_Viewport@@QAEXABVVector3@@0@Z
46BE40 ?SetLight@UIElement_Viewport@@QAEXW4LightType@LIGHTINFO@@MABVVector3@@@Z
46BF20 ??_E?$IntrusiveHashTable@KPAV?$HashTableData@KK@@$0A@@@UAEPAXI@Z
46BF60 ?InqAvailableProperties@UIElement_Panel@@UBE_NAAVAvailablePropertySet@@@Z
46BFF0 ?Update@UIElement_Panel@@IAEXKK@Z
46C110 ?OpenTab@UIElement_Panel@@QAE_NK@Z
46C1A0 ?InqTabFromPage@UIElement_Panel@@QBE_NKAAK@Z
46C1F0 ??0?$IntrusiveHashTable@KPAV?$HashTableData@KK@@$0A@@@QAE@I@Z
46C280 ?resize_internal@?$IntrusiveHashTable@KPAV?$HashTableData@KVAvailableProperty@@@@$0A@@@IAE_NK@Z
46C370 ?ListenToElementMessage@UIElement_Panel@@UAE?AW4UIElementMessageListenResult@@ABUUIElementMessageInfo@@@Z
46C4F0 ??_G?$HashTable@KK$0A@@@UAEPAXI@Z
46C550 ??0UIElement_Panel@@QAE@ABVLayoutDesc@@ABVElementDesc@@@Z
46C5B0 ?DynamicCast@UIElement_Panel@@UAEPAVUIElement@@K@Z
46C5D0 ??1UIElement_Panel@@UAE@XZ
46C690 ?Create@UIElement_Panel@@SAPAVUIElement@@ABVLayoutDesc@@ABVElementDesc@@@Z
46C6C0 ?SetupTabPageHash@UIElement_Panel@@IAEXXZ
46CA70 ??_EUIElement_Panel@@UAEPAXI@Z
46CA90 ?Register@UIElement_Panel@@SAXXZ
46CAA0 ?OnSetAttribute@UIElement_Panel@@UAEXABVBaseProperty@@@Z
46CAD0 ?DynamicCast@UIElement_Dragbar@@UAEPAVUIElement@@K@Z
46CAF0 ?CheckOverOverride@UIElement_Dragbar@@MBE_NXZ
46CB00 ?Create@UIElement_Dragbar@@SAPAVUIElement@@ABVLayoutDesc@@ABVElementDesc@@@Z
46CB40 ?StartMouseMoving@UIElement_Dragbar@@IAEXABUUIElementMessageInfo@@@Z
46CBA0 ?StopMouseMoving@UIElement_Dragbar@@IAEXABUUIElementMessageInfo@@@Z
46CBF0 ??_GUIElement_Dragbar@@UAEPAXI@Z
46CC20 ?Register@UIElement_Dragbar@@SAXXZ
46CC30 ?ListenToElementMessage@UIElement_Dragbar@@UAE?AW4UIElementMessageListenResult@@ABUUIElementMessageInfo@@@Z
46CD20 ?InqAvailableProperties@UIElement_Dragbar@@UBE_NAAVAvailablePropertySet@@@Z
46CD70 ??0UIElement_Menu@@QAE@ABVLayoutDesc@@ABVElementDesc@@@Z
46CDC0 ?DynamicCast@UIElement_Menu@@UAEPAVUIElement@@K@Z
46CDF0 ?Create@UIElement_Menu@@SAPAVUIElement@@ABVLayoutDesc@@ABVElementDesc@@@Z
46CE20 ?Flush@UIElement_Menu@@QAEXXZ
46CE30 ?GetItem@UIElement_Menu@@QBEPAVUIElement@@J@Z
46CE50 ?GetSelectedItem@UIElement_Menu@@QBEPAVUIElement@@XZ
46CE70 ?InsertItem@UIElement_Menu@@IAE_NPAVUIElement@@J@Z
46CEB0 ?UpdateState@UIElement_Menu@@IAEXXZ
46CED0 ?RecalculatePopupSize@UIElement_Menu@@IAEXXZ
46CF60 ?GetSelectedIndex@UIElement_ListBox@@QBEJXZ
46CFA0 ?Register@UIElement_Menu@@SAXXZ
46CFB0 ?GetNumItems@UIElement_Menu@@QBEJXZ
46CFD0 ?GetSelectedIndex@UIElement_Menu@@QBEJXZ
46D010 ?Open@UIElement_Menu@@IAEXXZ
46D100 ?Close@UIElement_Menu@@IAEXXZ
46D140 ?NewSelection@UIElement_Menu@@IAEX_N@Z
46D220 ??1UIElement_Menu@@UAE@XZ
46D2A0 ?InqAvailableProperties@UIElement_Menu@@UBE_NAAVAvailablePropertySet@@@Z
46D2F0 ?InsertTextItem@UIElement_Menu@@QAEPAVUIElement_Text@@ABVStringInfo@@J@Z
46D420 ?ReplaceTextItem@UIElement_Menu@@QAEPAVUIElement_Text@@ABVStringInfo@@J@Z
46D4B0 ?SetSelectedItem@UIElement_Menu@@QAEXPAVUIElement@@_N@Z
46D4E0 ?SetVisible@UIElement_Menu@@UAEX_N@Z
46D510 ?Deactivate@UIElement_Menu@@UAE_NXZ
46D560 ?ListenToElementMessage@UIElement_Menu@@UAE?AW4UIElementMessageListenResult@@ABUUIElementMessageInfo@@@Z
46D6F0 ?MakePopup@UIElement_Menu@@IAEXXZ
46D7E0 ??_GUIElement_Menu@@UAEPAXI@Z
46D800 ?AddTextItem@UIElement_Menu@@QAEPAVUIElement_Text@@ABVStringInfo@@@Z
46D820 ?Initialize@UIElement_Menu@@UAEXXZ
46D8F0 ?SetState@UIElement_ListBox@@UAE_NK@Z
46D920 ?DrawStart@UIElement_ListBox@@UAEXXZ
46D930 ?ScrollToY@UIElement_ListBox@@QAEXJ@Z
46D950 ?ScrollToX@UIElement_ListBox@@QAEXJ@Z
46D970 ?SetHorizontal@UIElement_ListBox@@IAEX_N@Z
46D9A0 ?SetClickSelect@UIElement_ListBox@@IAEX_N@Z
46D9D0 ?SetDragSelect@UIElement_ListBox@@IAEX_N@Z
46DA00 ?SetDragRollover@UIElement_ListBox@@IAEX_N@Z
46DA30 ?SetSelectedItemStateChange@UIElement_ListBox@@IAEX_N@Z
46DA60 ?OnSetAttribute@UIElement_ListBox@@UAEXABVBaseProperty@@@Z
46DB70 ?ResizeTo@UIElement_ListBox@@UAEXJJ@Z
46DBD0 ?UpdateForChildSizeChange@UIElement_ListBox@@UAEXPAVUIElement@@@Z
46DC50 ?GetItem@UIElement_ListBox@@QAEPAVUIElement@@K@Z
46DC70 ?SetSelectedItem@UIElement_ListBox@@QAEXPAVUIElement@@_N@Z
46DE80 ?RemoveItem@UIElement_ListBox@@QAEPAVUIElement@@K@Z
46DFC0 ?AdjustToScrollableXYChange@UIElement_ListBox@@UAEXXZ
46DFD0 ?InqScrollDelta@UIElement_ListBox@@UAEJ_N00@Z
46E070 ??0UIElement_ListBox@@QAE@ABVLayoutDesc@@ABVElementDesc@@@Z
46E240 ?InqAvailableProperties@UIElement_ListBox@@UBE_NAAVAvailablePropertySet@@@Z
46E290 ?MouseOverTop@UIElement_ListBox@@MAEX_N@Z
46E2F0 ?MouseUp@UIElement_ListBox@@MAEXKKK@Z
46E360 ?GetItemAtPoint@UIElement_ListBox@@QAEPAVUIElement@@JJ@Z
46E3A0 ?RemoveItem@UIElement_ListBox@@QAEPAVUIElement@@PAV2@@Z
46E3E0 ?DeleteItem@UIElement_ListBox@@QAE_NPAVUIElement@@@Z
46E430 ?DeleteItem@UIElement_ListBox@@QAE_NJ@Z
46E460 ?Flush@UIElement_ListBox@@QAEXXZ
46E520 ??_EUIElement_ListBox@@UAEPAXI@Z
46E5E0 ?GetItemUnderMouse@UIElement_ListBox@@QAEPAVUIElement@@XZ
46E710 ?ListenToElementMessage@UIElement_ListBox@@MAE?AW4UIElementMessageListenResult@@ABUUIElementMessageInfo@@@Z
46E760 ?MouseDown@UIElement_ListBox@@MAEXKKK@Z
46E7D0 ?MouseMove@UIElement_ListBox@@MAEXJJ@Z
46E820 ?UpdateLayout@UIElement_ListBox@@UAEXXZ
46EB20 ?InsertItem@UIElement_ListBox@@QAE_NPAVUIElement@@J@Z
46ED00 ?ScrollToShow@UIElement_ListBox@@QAEXJ@Z
46EDB0 ?ScrollToView@UIElement_ListBox@@QAEXJ@Z
46F130 ?AddItem@UIElement_ListBox@@QAE_NPAVUIElement@@@Z
46F1E0 ?StartUpActive@UIElement_ListBox@@UAE_NXZ
46F220 ?StartDownActive@UIElement_ListBox@@UAE_NXZ
46F250 ?StartLeftActive@UIElement_ListBox@@UAE_NXZ
46F290 ?StartRightActive@UIElement_ListBox@@UAE_NXZ
46F2C0 ?AddItemFromTemplateListByID@UIElement_ListBox@@QAEPAVUIElement@@KPAV2@@Z
46F670 ?AddItemFromTemplateList@UIElement_ListBox@@QAEPAVUIElement@@KPAV2@@Z
46F770 ?AddItemFromTemplateList@UIElement_ListBox@@QAEPAVUIElement@@KJ@Z
471C30 ?ListenToElementMessage@UIElement_Scrollbar@@UAE?AW4UIElementMessageListenResult@@ABUUIElementMessageInfo@@@Z
471F10 ??0UIElement_Button@@QAE@ABVLayoutDesc@@ABVElementDesc@@@Z
471F60 ?DynamicCast@UIElement_Button@@UAEPAVUIElement@@K@Z
471F80 ??1UIElement_Button@@UAE@XZ
471FC0 ?Create@UIElement_Button@@SAPAVUIElement@@ABVLayoutDesc@@ABVElementDesc@@@Z
472020 ?ListenToGlobalMessage@UIElement_Button@@UAEXKJ@Z
4720B0 ?UpdateState_@UIElement_Button@@IAEXXZ
472160 ?SetState@UIElement_Button@@UAE_NK@Z
472210 ?HandleButtonClick@UIElement_Button@@IAE?B_NABUUIElementMessageInfo@@@Z
472290 ??_GUIElement_Button@@UAEPAXI@Z
4722E0 ?Register@UIElement_Button@@SAXXZ
4722F0 ?PostInit@UIElement_Button@@UAEXXZ
472300 ?OnSetAttribute@UIElement_Button@@UAEXABVBaseProperty@@@Z
4723B0 ?MouseDown@UIElement_Button@@UAEXKKK@Z
4724A0 ?MouseUp@UIElement_Button@@UAEXKKK@Z
4725B0 ?MouseOverTop@UIElement_Button@@UAEX_N@Z
4725D0 ?ListenToElementMessage@UIElement_Button@@UAE?AW4UIElementMessageListenResult@@ABUUIElementMessageInfo@@@Z
472620 ?InqAvailableProperties@UIElement_Button@@UBE_NAAVAvailablePropertySet@@@Z
472670 ??0UIElement_Field@@QAE@ABVLayoutDesc@@ABVElementDesc@@@Z
4726A0 ?DynamicCast@UIElement_Field@@UAEPAVUIElement@@K@Z
4726C0 ??1UIElement_Field@@UAE@XZ
472720 ?MouseOverTop@UIElement_Field@@UAEX_N@Z
472810 ?CatchDroppedItem@UIElement_Field@@UAE_NPAVDragDropInfo@@@Z
472850 ??_GUIElement_Field@@UAEPAXI@Z
472890 ?InqAvailableProperties@UIElement_Field@@UBE_NAAVAvailablePropertySet@@@Z
472AB0 ?FindCurrentLine@GlyphList@@QAE_NKAAK0@Z
472B30 ?FindLineFromY@GlyphList@@QAE_NJAAK@Z
472BB0 ?FindCompleteLineFromY@GlyphList@@QAE_NJAAK@Z
472C00 ?FindNextLine@GlyphList@@QAE_NKAAK0@Z
472C60 ?FindPrevLine@GlyphList@@QAE_NKAAK0@Z
472CC0 ?GetGlyphLineHeight@GlyphList@@QAE_NKAAJ@Z
472CF0 ?GetGlyphLineWidth@GlyphList@@QAE_NKAAJ@Z
472E40 ?FindNextWord@GlyphList@@QAE_NKAAK@Z
472EA0 ?FindPrevWord@GlyphList@@QAE_NKAAK@Z
472F00 ?FindPixelsFromPos@GlyphList@@QAE_NKAAJ@Z
4732A0 ?FindXYFromPosition@GlyphList@@QAE_NKAAJ0@Z
4733E0 ?Flush@GlyphList@@QAEXXZ
473410 ?Insert@GlyphList@@QAEKKABVGlyph@@@Z
473460 ?Delete@GlyphList@@QAEKKK@Z
473550 ?AddText@GlyphList@@QAEJKABV?$SmartArray@VGlyph@@$00@@@Z
473690 ?FindPosFromLineAndPixels@GlyphList@@QAE_NKK_NAAK@Z
473860 ??0GlyphList@@QAE@XZ
4738A0 ??1GlyphList@@UAE@XZ
473920 ?InqText@GlyphList@@QBE_NKK_NAAV?$PStringBase@G@@@Z
473BC0 ?Recalculate@GlyphList@@QAE_NJ_NAAJ1@Z
474130 ?InqText@GlyphList@@QBE_N_NAAV?$PStringBase@G@@@Z
474150 ??0UIElement_Scrollable@@QAE@ABVLayoutDesc@@ABVElementDesc@@@Z
474210 ?RegisterInputMaps@UIElement_Scrollable@@UAE_NJ@Z
474250 ?UnregisterInputMaps@UIElement_Scrollable@@UAE_NXZ
474280 ?GetScrollbarPointer_@UIElement_Scrollable@@IAEPAVUIElement_Scrollbar@@_N@Z
474430 ?InqAvailableProperties@UIElement_Scrollable@@UBE_NAAVAvailablePropertySet@@@Z
474480 ?SetScrollableXY@UIElement_Scrollable@@IAEXJJ_N@Z
474870 ?PostInit@UIElement_Scrollable@@UAEXXZ
474920 ?ListenToElementMessage@UIElement_Scrollable@@UAE?AW4UIElementMessageListenResult@@ABUUIElementMessageInfo@@@Z
4749F0 ?OnSetAttribute@UIElement_Scrollable@@UAEXABVBaseProperty@@@Z
474A80 ?ResizeTo@UIElement_Scrollable@@UAEXJJ@Z
474BC0 ??0Glyph@@QAE@XZ
474BE0 ??1Glyph@@QAE@XZ
474C30 ??4Glyph@@QAEAAV0@ABV0@@Z
474EC0 ??0Glyph@@QAE@GABVRGBAColor@@PAVFont@@PAVTextTag@@KK@Z
474FF0 ?SetVisible@ContextMenu@@QAEX_N@Z
4753D0 PropertyCollection::AddProperty
476820 ?GetChildRecursiveTemplate@?$@VUIElement_Text@@@UIElement@@QBEPAVUIElement_Text@@K@Z
4772D0 ?flush@?$List@UDialogInfo@@@@QAEXXZ
477380 ?find@?$HashTable@KP6AXABVPropertyCollection@@@Z$0A@@@QBEPAP6AXABVPropertyCollection@@@ZABK@Z
4773C0 ?find@?$HashTable@KUDialogInfo@@$0A@@@QBE_NABKAAUDialogInfo@@@Z
477430 ??_G?$List@UDialogInfo@@@@UAEPAXI@Z
477460 ?IsDialogOpen@DialogFactory@@SA_NK@Z
4774B0 ??0?$IntrusiveHashTable@KPAV?$HashTableData@KV?$List@UDialogInfo@@@@@@$0A@@@QAE@I@Z
477540 ??0?$IntrusiveHashTable@KPAV?$HashTableData@KUDialogInfo@@@@$0A@@@QAE@I@Z
4775D0 ??0?$IntrusiveHashTable@KPAV?$HashTableData@KP6AXABVPropertyCollection@@@Z@@$0A@@@QAE@I@Z
477660 ?delete_contents@?$IntrusiveHashTable@KPAV?$HashTableData@KV?$List@UDialogInfo@@@@@@$0A@@@QAEXXZ
4776F0 ?delete_contents@?$IntrusiveHashTable@KPAV?$HashTableData@KUDialogInfo@@@@$0A@@@QAEXXZ
477780 ?erase@?$HashTable@KV?$List@UDialogInfo@@@@$0A@@@QAE_NABK@Z
4777C0 ?DialogDone@DialogFactory@@KAXAAUDialogInfo@@@Z
477870 ??_G?$HashTable@KV?$List@UDialogInfo@@@@$0A@@@UAEPAXI@Z
477D50 ?Reset@DialogFactory@@SAXXZ
478290 ?MakeDialog@DialogFactory@@SAKPAVUIFramework@@ABVPropertyCollection@@@Z
478560 ?CloseDialog@DialogFactory@@SAXK@Z
478810 ?MakeDialogInCurrentUI@DialogFactory@@SAKABVPropertyCollection@@@Z
478830 ?MakeCallbackDialogInCurrentUI@DialogFactory@@SAKABVPropertyCollection@@P6AX0@Z@Z
478880 ?MakeTag@TextTagFactory@@SAPAVTextTag@@ABV?$PStringBase@G@@@Z
478B40 ?HandleClick@TextTag_DID@@UAE_NK@Z
478B60 ??0TextTag_DID@@QAE@XZ
478B80 ?to_uint32@?$PStringBase@G@@QBEKXZ
479380 ??0TextTag@@QAE@XZ
4797C0 ?QueueUIMode@UIFlow@@UAEXK@Z
4797F0 ?QueueUIModeWithError@UIFlow@@UAEXKABVStringInfo@@@Z
479830 ?Update@UIFlow@@UAEXXZ
479840 ??1UIFlow@@UAE@XZ
4798E0 ?QueryInterface@UIFlow@@UAE?AVTResult@@ABUTurbine_GUID@@PAPAX@Z
479940 ?AddRef@UIFlow@@UBEKXZ
479950 ?Release@UIFlow@@UBEKXZ
479980 ??_E?$IntrusiveHashTable@KPAV?$HashTableData@KP6APAVUIMainFramework@@XZ@@$0A@@@UAEPAXI@Z
4799C0 ??0UIFlow@@QAE@XZ
479A70 ??_EUIFlow@@UAEPAXI@Z
479AA0 ?UseNewMode@UIFlow@@IAEXXZ
479BA0 ?ListenToGlobalMessage@UIFlow@@UAEXKJ@Z
479BC0 ??0?$IntrusiveHashTable@KPAV?$HashTableData@KP6APAVUIMainFramework@@XZ@@$0A@@@QAE@I@Z
479C50 ?RegisterFrameworkClass@UIFlow@@SAXKP6APAVUIMainFramework@@XZ@Z
479CA0 ??_E?$HashTable@KP6APAVUIMainFramework@@XZ$0A@@@UAEPAXI@Z
479D00 ?RecvNotice_CharacterSet@UIPersistantData@@UAEXABVCharacterSet@@@Z
479D30 ??0CharacterSet@@QAE@XZ
479D80 ??1CharacterSet@@UAE@XZ
479E00 ??0UIPersistantData@@QAE@XZ
479E40 ??1UIPersistantData@@QAE@XZ
479E70 ??_ECharacterSet@@UAEPAXI@Z
479E90 ?SendNotice_ClearChatBuffer@CM_UI@@YA_NK@Z
479EE0 ?SendNotice_EnableChatTargetSelection@CM_UI@@YA_NK_N@Z
479F40 ?SendNotice_EndCharacterSession@CM_UI@@YA_NH@Z
479F90 ?SendNotice_FillComponentBuyList@CM_UI@@YA_NW4SpellComponentCategory@@J@Z
479FF0 ?SendNotice_FontSettingsChanged@CM_UI@@YA_NKK@Z
47A050 ?SendNotice_FullMergingItem@CM_UI@@YA_NKK@Z
47A0B0 ?SendNotice_GameplayOptionChanged@CM_UI@@YA_NABVBaseProperty@@K@Z
47A110 ?SendNotice_LoadUI@CM_UI@@YA_NABV?$PStringBase@D@@@Z
47A160 ?SendNotice_NewParentContainer@CM_UI@@YA_NK@Z
47A1B0 ?SendNotice_OpenContainedContainer@CM_UI@@YA_NK@Z
47A200 ?SendNotice_PlayerDescReceived@CM_UI@@YA_NABVCACQualities@@ABVCPlayerModule@@@Z
47A260 ?SendNotice_PlayerOptionChanged@CM_UI@@YA_NW4PlayerOption@@@Z
47A2B0 ?SendNotice_RefreshOptionsPanel@CM_UI@@YA_NXZ
47A300 ?SendNotice_SaveUI@CM_UI@@YA_NABV?$PStringBase@D@@@Z
47A350 ?SendNotice_SelectionChanged@CM_UI@@YA_NXZ
47A3A0 ?SendNotice_SetChatWindowTitle@CM_UI@@YA_NKABVStringInfo@@@Z
47A400 ?SendNotice_SetDisplayInventory@CM_UI@@YA_NH@Z
47A450 ?SendNotice_SetFramerateDisplay@CM_UI@@YA_N_N@Z
47A4A0 ?SendNotice_SetPanelVisibility@CM_UI@@YA_NK_N@Z
47A500 ?SendNotice_SplitStack@CM_UI@@YA_NK@Z
47A550 ?SendNotice_StackSliderChanged@CM_UI@@YA_NKK@Z
47A5B0 ?SendNotice_StartTell@CM_UI@@YA_NABV?$PStringBase@G@@@Z
47A600 ?SendNotice_ToggleChatEntry@CM_UI@@YA_N_N@Z
47A650 ?SendNotice_UpdateRadarVisibility@CM_UI@@YA_N_N@Z
47A6A0 ?SendNotice_UpdateSquelchPanel@CM_UI@@YA_NXZ
47A6F0 ?SendNotice_UpdateToolbarSelectionDisplay@CM_UI@@YA_NXZ
47A740 ?SendNotice_UserPreferenceChanged@CM_UI@@YA_NABV?$PStringBase@D@@@Z
47A790 ?SendNotice_UserPreferenceChanged_Menu@CM_UI@@YA_NABV?$PStringBase@D@@KK@Z
47A7F0 ??0gmGlobalEventHandler@@QAE@XZ
47A810 ?gmGetGlobalEventHandler@gmGlobalEventHandler@@SAPAV1@XZ
47A820 ??_GgmGlobalEventHandler@@UAEPAXI@Z
47A850 ?RecvNotice_StartBarberNotice@gmNoticeHandler@@UAEXV?$IDClass@U_tagDataID@@$0CA@$0A@@@0000000000000JJ@Z
47A860 ?RegisterElements@gmUIHelper@@YAXXZ
47AA10 ??0gmUIFlow@@QAE@XZ
47AB20 ??1gmUIFlow@@UAE@XZ
47AB90 ??_EgmUIFlow@@UAEPAXI@Z
47ABC0 ?RecvNotice_CharacterError@gmUIFlow@@UAEXW4charError@@@Z
47ADA0 ?RecvNotice_ServerDied@gmUIFlow@@UAEXXZ
47AE10 ?RecvNotice_CharacterError@gmUIFlow@@WBCI@AEXW4charError@@@Z
47AE20 ?RecvNotice_ServerDied@gmUIFlow@@WBCI@AEXXZ
47AE30 ?QueryInterface@ClassFactoryForceUIFlow_ClassType@@UAE?AVTResult@@ABUTurbine_GUID@@PAPAX@Z
47AEC0 ?CreateInstance@ClassFactoryForceUIFlow_ClassType@@UAE?AVTResult@@PAVInterface@@ABUTurbine_GUID@@PAPAX@Z
47AF90 ?_QueryInterface@?$InterfacePtr@VInterface@@@@AAE?AVTResult@@PAVgmUIFlow@@@Z
47B030 ??0gmCGSummaryPage@@QAE@ABVLayoutDesc@@ABVElementDesc@@@Z
47B0A0 ?DynamicCast@gmCGSummaryPage@@UAEPAVUIElement@@K@Z
47B0C0 ?GetUIElementType@gmCGSummaryPage@@UBEKXZ
47B0D0 ?PostInit@gmCGSummaryPage@@UAEXXZ
47B110 ?Create@gmCGSummaryPage@@SAPAVUIElement@@ABVLayoutDesc@@ABVElementDesc@@@Z
47B140 ?RecvNotice_CloseDialog@gmCGSummaryPage@@UAEXKABVPropertyCollection@@@Z
47B160 ??_GgmCGSummaryPage@@UAEPAXI@Z
47B1C0 ?Register@gmCGSummaryPage@@SAXXZ
47B1E0 ?SetHowToText@gmCGSummaryPage@@IAEXXZ
47B520 ?append_int32@?$PStringBase@G@@QAEXJ@Z
47B590 ?SetSummaryText@gmCGSummaryPage@@IAEXXZ
47BE60 ?Update@gmCGSummaryPage@@QAEXXZ
47BFB0 ?InitializePage@gmCGSummaryPage@@QAEXPAVgmCharGenMainUI@@@Z
47C140 ?DoNameLimitDialog@gmCGSummaryPage@@IAEXXZ
47C300 ?ListenToElementMessage@gmCGSummaryPage@@UAE?AW4UIElementMessageListenResult@@ABUUIElementMessageInfo@@@Z
47C490 ?DynamicCast@gmCGTownPage@@UAEPAVUIElement@@K@Z
47C4B0 ?GetUIElementType@gmCGTownPage@@UBEKXZ
47C4C0 ?Create@gmCGTownPage@@SAPAVUIElement@@ABVLayoutDesc@@ABVElementDesc@@@Z
47C520 ??_EgmCGTownPage@@UAEPAXI@Z
47C580 ?Register@gmCGTownPage@@SAXXZ
47C5A0 ?SetTownString@gmCGTownPage@@IAEXW4ETown@1@@Z
47C830 ?ListenToElementMessage@gmCGTownPage@@UAE?AW4UIElementMessageListenResult@@ABUUIElementMessageInfo@@@Z
47CA80 ?InitializePage@gmCGTownPage@@QAEXPAVgmCharGenMainUI@@@Z
47CB80 ?PostInit@gmCGAppearancePage@@UAEXXZ
47CBC0 ?DynamicCast@gmCGAppearancePage@@UAEPAVUIElement@@K@Z
47CBE0 ?GetUIElementType@gmCGAppearancePage@@UBEKXZ
47CBF0 ?RecvNotice_PlayerObjDescChanged@gmCGAppearancePage@@UAEXXZ
47D030 ?ShouldDeallocate_@?$SmartArray@H$00@@IBE_NXZ
47D1F0 ??_EgmCGAppearancePage@@UAEPAXI@Z
47D280 ?ListenToGlobalMessage@gmCGAppearancePage@@UAEXKJ@Z
47D540 ??_E?$IntrusiveHashTable@KPAV?$HashTableData@KVSex_CG@@@@$0A@@@UAEPAXI@Z
47D580 ??1?$SmartArray@V?$IDClass@U_tagDataID@@$0CA@$0A@@@$00@@QAE@XZ
47D710 ??_EStyle_CG@@QAEPAXI@Z
47D7D0 ??1Template_CG@@QAE@XZ
47D840 ?Register@gmCGAppearancePage@@SAXXZ
47D9B0 ??_ETemplate_CG@@QAEPAXI@Z
47DAA0 ??1Sex_CG@@QAE@XZ
47E210 ?delete_contents@?$IntrusiveHashTable@KPAV?$HashTableData@KVSex_CG@@@@$0A@@@QAEXXZ
47E2A0 ??_E?$HashTable@KVSex_CG@@$0A@@@UAEPAXI@Z
47E300 ??1HeritageGroup_CG@@QAE@XZ
47F2E0 ?ListenToElementMessage@gmCGAppearancePage@@UAE?AW4UIElementMessageListenResult@@ABUUIElementMessageInfo@@@Z
480180 ?InitializePage@gmCGAppearancePage@@QAEXPAVgmCharGenMainUI@@@Z
480710 ??0SkillFormula@@QAE@ABV0@@Z
480750 ?PostInit@gmCGSkillsPage@@UAEXXZ
480760 ??0?$PStringBase@D@AC1Legacy@@QAE@ABV01@@Z
480780 ?WhatNum@UIElement_ListBox@@QBE?BJPAVUIElement@@@Z
4807B0 ??0tagSkillRecord@gmCGSkillsPage@@QAE@XZ
480810 ??1tagSkillRecord@gmCGSkillsPage@@QAE@XZ
480880 ??0tagSkillRecord@gmCGSkillsPage@@QAE@ABU01@@Z
480980 ??0?$PStringBase@G@@QAA@W4_Formatted@@PBGZZ
480D10 ?UpdateAllTrainingValues@gmCGSkillsPage@@IAEXXZ
480E00 ?InsertEntrySorted@gmCGSkillsPage@@IAEXAAUtagSkillRecord@1@PAVUIElement@@1@Z
480F20 ??0?$IntrusiveHashTable@IPAV?$HashTableData@IUtagSkillRecord@gmCGSkillsPage@@@@$0A@@@QAE@I@Z
480FB0 ?UpdateSkillEntry@gmCGSkillsPage@@IAEXAAUtagSkillRecord@1@@Z
481060 ?IncreaseSkillLevel@gmCGSkillsPage@@IAEXPAVUIElement@@@Z
481120 ?DecreaseSkillLevel@gmCGSkillsPage@@IAEXPAVUIElement@@@Z
4811D0 ?MakeSkillFormula@gmCGSkillsPage@@IAEXAAUtagSkillRecord@1@@Z
481610 ?ShowSkillsText@gmCGSkillsPage@@IAEXPAVUIElement@@@Z
4817F0 ?delete_contents@?$IntrusiveHashTable@IPAV?$HashTableData@IUtagSkillRecord@gmCGSkillsPage@@@@$0A@@@QAEXXZ
481880 ?ListenToElementMessage@gmCGSkillsPage@@UAE?AW4UIElementMessageListenResult@@ABUUIElementMessageInfo@@@Z
481930 ?add@?$HashTable@IUtagSkillRecord@gmCGSkillsPage@@$0A@@@QAE_NABIABUtagSkillRecord@gmCGSkillsPage@@@Z
4819A0 ??_G?$HashTable@IUtagSkillRecord@gmCGSkillsPage@@$0A@@@UAEPAXI@Z
481A00 ??0gmCGSkillsPage@@QAE@ABVLayoutDesc@@ABVElementDesc@@@Z
481A70 ?DynamicCast@gmCGSkillsPage@@UAEPAVUIElement@@K@Z
481A90 ?GetUIElementType@gmCGSkillsPage@@UBEKXZ
481AA0 ??1gmCGSkillsPage@@UAE@XZ
481B30 ?Create@gmCGSkillsPage@@SAPAVUIElement@@ABVLayoutDesc@@ABVElementDesc@@@Z
481B60 ??_GgmCGSkillsPage@@UAEPAXI@Z
481B80 ?Register@gmCGSkillsPage@@SAXXZ
481BA0 ?DoSkillRecords@gmCGSkillsPage@@IAEXXZ
482180 ?Update@gmCGSkillsPage@@QAEXXZ
482190 ?InitializePage@gmCGSkillsPage@@QAEXPAVgmCharGenMainUI@@@Z
482550 ?Register@gmCGProfessionPage@@SAXXZ
4827A0 ?append_uint32@?$PStringBase@G@@QAEXK@Z
483110 ?InitializePage@gmCGProfessionPage@@QAEXPAVgmCharGenMainUI@@@Z
4835B0 ?Register@gmCGHeritagePage@@SAXXZ
483DD0 ?InitializePage@gmCGHeritagePage@@QAEXPAVgmCharGenMainUI@@@Z
484720 ?Register@UIOption_Menu@@SAXXZ
484B90 ?SetUIPreference@UIOption_CheckboxSlider@@QAEXABV?$PStringBase@D@@0@Z
484DF0 ?Register@UIOption_CheckboxSlider@@SAXXZ
484F80 ?GetCurrentValue@UIOption_Slider@@QAEMXZ
484F90 ?SetCurrentValue@UIOption_Slider@@QAEXM@Z
485090 ?SetUIPreference@UIOption_Slider@@QAEXABV?$PStringBase@D@@@Z
485200 ?GetClassObject@@YA?AV?$InterfacePtr@VInterface@@@@ABUTurbine_GUID@@@Z
485260 ?_QueryInterface@?$InterfacePtr@VCPlayerModule@@@@AAE?AVTResult@@V?$InterfacePtr@VInterface@@@@@Z
4855A0 ??0?$InterfacePtr@VCPlayerModule@@@@QAE@ABV?$InterfacePtr@VInterface@@@@@Z
4855E0 ?Register@UIOption_Slider@@SAXXZ
485A50 j_?PostInit@UIElement_Scrollable@@UAEXXZ
4861B0 ?CreateChildren@UIOption_CheckboxBitfield64@@QAEXXZ
486290 ?Register@UIOption_CheckboxBitfield64@@SAXXZ
4862B0 ?SetGameplayOptionProperty@UIOption_CheckboxBitfield64@@QAEXKW4PropertyType@1@@Z
486660 ?AddChild@UIOption_CheckboxBitfield64@@QAEX_KKK@Z
486830 ?Register@UIOption_CheckboxBitfield@@SAXXZ
486EC0 ??1UIOption_Checkbox@@UAE@XZ
486FE0 ??_GUIOption_Checkbox@@UAEPAXI@Z
487000 ?Register@UIOption_Checkbox@@SAXXZ
487020 ?Apply@UIOption_Checkbox@@UAE_N_N@Z
487240 ?SetPlayerOption@UIOption_Checkbox@@QAEXW4PlayerOption@@@Z
487320 ?GetValue@UIOption_Checkbox@@UAE_NXZ
487400 ?SetLabel@UIOption_Checkbox@@UAEXABVStringInfo@@@Z
487410 ?SetTooltip@UIOption_Slider@@UAEXABVStringInfo@@@Z
487420 ?RecvNotice_RefreshOptionsPanel@UIOption_ActionKeyMap@@MAEXXZ
487430 ?CloseMapWarnDialog@UIOption_ActionKeyMap@@IAEXXZ
487460 ??0?$pair@VQualifiedControl@@K@_STL@@QAE@XZ
487480 ?vsprintf@?$PStringBase@D@AC1Legacy@@QAEJPBDPAD@Z
4874F0 ?push_back@?$List@VQualifiedControl@@@@QAE_NABVQualifiedControl@@@Z
487620 ?sprintf@?$PStringBase@D@AC1Legacy@@QAAJPBDZZ
487B40 ?EraseBinding@UIOption_ActionKeyMap@@IAE_NJ@Z
488200 ?ClearAllBindings@UIOption_ActionKeyMap@@IAE_NXZ
488250 ??4?$List@VQualifiedControl@@@@QAEAAV0@ABV0@@Z
4882F0 ?AddTextToScroll@ClientSystem@@QAEXPBDK_NK@Z
488BF0 ?Register@UIOption_ActionKeyMap@@SAXXZ
489630 ?OpenCantOverwriteBindingDialog@UIOption_ActionKeyMap@@IAE_NXZ
4898A0 ?KeyHitHandler@UIOption_ActionKeyMap@@MAE_NABVQualifiedControl@@AAK@Z
489D00 ?InitiateBinding@UIOption_ActionKeyMap@@IAE_NJ@Z
489DB0 ?ListenToElementMessage@UIOption_ActionKeyMap@@MAE?AW4UIElementMessageListenResult@@ABUUIElementMessageInfo@@@Z
489EC0 ?to_int32@?$PStringBase@G@@QBEJXZ
489EE0 ??0SpellComponentBase@@QAE@XZ
489F20 ??1SpellComponentBase@@UAE@XZ
489F70 ?RecvNotice_SelectionChanged@gmSpellComponentUI@@UAEXXZ
48A060 ??_E?$IntrusiveHashTable@V?$IDClass@U_tagDataID@@$0CA@$0A@@@PAV?$HashTableData@V?$IDClass@U_tagDataID@@$0CA@$0A@@@PAVSpellComponentRegion@@@@$0A@@@UAEPAXI@Z
48A0A0 ??4?$PStringBase@G@AC1Legacy@@QAEAAV01@ABV01@@Z
48A0F0 ??_GSpellComponentBase@@UAEPAXI@Z
48A150 ??4SpellComponentBase@@QAEAAV0@ABV0@@Z
48A1F0 ?InqSpellComponentBase@SpellComponentTable@@QAEHKAAVSpellComponentBase@@@Z
48A250 ?MakeIcon@gmSpellComponentUI@@IAEXV?$IDClass@U_tagDataID@@$0CA@$0A@@@PAVUIElement@@@Z
48A310 ?UpdateBuyRates@gmSpellComponentUI@@IAEXV?$IDClass@U_tagDataID@@$0CA@$0A@@@@Z
48A4C0 ?PostInit@gmSpellComponentUI@@UAEXXZ
48A650 ?RecvNotice_PlayerDescReceived@gmSpellComponentUI@@UAEXABVCACQualities@@ABVCPlayerModule@@@Z
48A670 ??0?$IntrusiveHashTable@V?$IDClass@U_tagDataID@@$0CA@$0A@@@PAV?$HashTableData@V?$IDClass@U_tagDataID@@$0CA@$0A@@@PAVSpellComponentRegion@@@@$0A@@@QAE@I@Z
48A700 ?ListenToElementMessage@gmSpellComponentUI@@UAE?AW4UIElementMessageListenResult@@ABUUIElementMessageInfo@@@Z
48A900 ?SyncComponentRegionWithData@gmSpellComponentUI@@IAEXPBVUIElement@@PBVComponentData@@@Z
48A9F0 ??_G?$HashTable@V?$IDClass@U_tagDataID@@$0CA@$0A@@@PAVSpellComponentRegion@@$0A@@@UAEPAXI@Z
48AA50 ??0gmSpellComponentUI@@QAE@ABVLayoutDesc@@ABVElementDesc@@@Z
48AAD0 ?DynamicCast@gmSpellComponentUI@@UAEPAVUIElement@@K@Z
48AAF0 ?GetUIElementType@gmSpellComponentUI@@UBEKXZ
48AB00 ??1gmSpellComponentUI@@UAE@XZ
48ABC0 ?Create@gmSpellComponentUI@@SAPAVUIElement@@ABVLayoutDesc@@ABVElementDesc@@@Z
48ABF0 ?UpdateComponents@gmSpellComponentUI@@IAEXW4ComponentTrackerUpdate@@@Z
48B0B0 ??_GgmSpellComponentUI@@UAEPAXI@Z
48B0D0 ?Register@gmSpellComponentUI@@SAXXZ
48B0F0 ?RecvNotice_UpdateSpellComponents@gmSpellComponentUI@@UAEXJ@Z
48B100 ?DynamicCast@gmSpellbookUI@@UAEPAVUIElement@@K@Z
48B120 ?GetUIElementType@gmSpellbookUI@@UBEKXZ
48B130 ?Create@gmSpellbookUI@@SAPAVUIElement@@ABVLayoutDesc@@ABVElementDesc@@@Z
48B190 ?IsFilteredOut@gmSpellbookUI@@IAE_NAAVCSpellBase@@@Z
48B270 ?ResetFilterButtons@gmSpellbookUI@@IAEXXZ
48B400 ?ScrollToHome@UIElement_ListBox@@QAEXXZ
48B420 ??0CSpellBase@@QAE@XZ
48B4D0 ??1CSpellBase@@UAE@XZ
48B530 ??_EgmSpellbookUI@@UAEPAXI@Z
48B590 ?PostInit@gmSpellbookUI@@UAEXXZ
48B700 ?Register@gmSpellbookUI@@SAXXZ
48B720 ?GetSortedInsertionPlace@gmSpellbookUI@@IAEKAAVCSpellBase@@@Z
48B820 ?SetSelected@gmSpellbookUI@@IAEXK@Z
48B8C0 ?UpdateFilter@gmSpellbookUI@@IAEXK@Z
48B9F0 ?Pack@?$PackableList@K@@UAEIAAPAXI@Z
48BA40 ?pack_size@?$PackableList@K@@IAEIXZ
48BA60 ??_GCSpellBase@@UAEPAXI@Z
48BA80 ?AddSpell@gmSpellbookUI@@IAEXK@Z
48BB00 ?_QueryInterface@?$InterfacePtr@VPlayerDesc@@@@AAE?AVTResult@@V?$InterfacePtr@VInterface@@@@@Z
48BBB0 ?RecvNotice_SpellAdded@gmSpellbookUI@@MAEXK@Z
48BC30 ?Flush@?$PackableList@K@@QAEXXZ
48BC80 ??0?$InterfacePtr@VPlayerDesc@@@@QAE@ABV?$InterfacePtr@VInterface@@@@@Z
48BCC0 ??1?$PackableList@K@@UAE@XZ
48BCE0 ?UnPack@?$PackableList@K@@UAEHAAPAXI@Z
48BD40 ?InsertTail@?$PackableList@K@@QAEKABK@Z
48BDA0 ??_E?$PackableList@K@@UAEPAXI@Z
48BDD0 ?UpdateFromPlayerDesc@gmSpellbookUI@@IAEXXZ
48BEE0 ?RecvNotice_SpellRemoved@gmSpellbookUI@@MAEXK@Z
48BEF0 ?DeleteSpellDialogCallback@gmSpellbookUI@@KAXABVPropertyCollection@@@Z
48C020 ?RecvNotice_PlayerDescReceived@gmSpellbookUI@@MAEXABVCACQualities@@ABVCPlayerModule@@@Z
48C030 ?DeleteSpell@gmSpellbookUI@@IAE_NXZ
48C2B0 ?ListenToElementMessage@gmSpellbookUI@@UAE?AW4UIElementMessageListenResult@@ABUUIElementMessageInfo@@@Z
48C3E0 ??0?$PStringBase@D@AC1Legacy@@QAE@PBD@Z
48C520 ?UpdateButtons@gmSquelchUI@@IAEXXZ
48C6C0 ?AddSquelchDisplay@gmSquelchUI@@IAE_NABV?$PStringBase@G@@K_N@Z
48C760 ??_E?$PList@K@@WBA@AEPAXI@Z
48C770 ?Pack@?$PList@K@@UAEIAAPAXI@Z
48C7D0 ?GetPackSize@?$PList@K@@UAEIXZ
48C7F0 ?UnPack@?$PList@K@@UAEHAAPAXI@Z
48C8F0 ??_E?$List@K@AC1Legacy@@UAEPAXI@Z
48C960 ??1FriendData@@UAE@XZ
48C9D0 ??_EFriendData@@UAEPAXI@Z
48C9F0 ?RefreshSquelchDisplay@gmSquelchUI@@IAE_NXZ
48CAD0 ??0?$PStringBase@D@@QAE@W4_WidthConvert@@ABV?$PStringBase@G@@@Z
48CB40 ?ListenToElementMessage@gmSquelchUI@@UAE?AW4UIElementMessageListenResult@@ABUUIElementMessageInfo@@@Z
48CE40 ?RecvNotice_UpdateSquelchPanel@gmSquelchUI@@UAEXXZ
48CE50 ?flush@?$List@VFriendData@@@AC1Legacy@@QAEXXZ
48CF70 ??_EFriendDataList@@WBA@AEPAXI@Z
48CF80 ?Pack@?$PList@VFriendData@@@@UAEIAAPAXI@Z
48CFD0 ?GetPackSize@?$PList@VFriendData@@@@UAEIXZ
48D010 ?UnPack@?$PList@VFriendData@@@@UAEHAAPAXI@Z
48D0D0 ?push_back@?$List@VFriendData@@@AC1Legacy@@QAEHABVFriendData@@@Z
48D140 ??_G?$List@VFriendData@@@AC1Legacy@@UAEPAXI@Z
48D170 ??_G?$PList@VFriendData@@@@UAEPAXI@Z
48D1B0 ??0gmSquelchUI@@QAE@ABVLayoutDesc@@ABVElementDesc@@@Z
48D240 ?DynamicCast@gmSquelchUI@@UAEPAVUIElement@@K@Z
48D260 ?GetUIElementType@gmSquelchUI@@UBEKXZ
48D270 ??1gmSquelchUI@@UAE@XZ
48D2D0 ?Create@gmSquelchUI@@SAPAVUIElement@@ABVLayoutDesc@@ABVElementDesc@@@Z
48D300 ??_GgmSquelchUI@@UAEPAXI@Z
48D320 ?Register@gmSquelchUI@@SAXXZ
48D340 ?RemoveFriendDisplay@gmFriendsUI@@IAE_NK@Z
48D3D0 ?PostInit@gmFriendsUI@@UAEXXZ
48D520 ?Request_AddFriend@gmFriendsUI@@IAE_NABV?$PStringBase@D@@@Z
48D580 ?UpdateButtons@gmFriendsUI@@IAEXXZ
48D650 ?FindSortedInsertPosition@gmFriendsUI@@IAEPAVUIElement@@ABV?$PStringBase@G@@_N@Z
48D750 ?RecvNotice_ChatCommand_AddFriend@gmFriendsUI@@MAEXABV?$PStringBase@D@@@Z
48D760 ?AddFriendDisplay@gmFriendsUI@@IAE_NABV?$PStringBase@G@@K_N@Z
48D800 ?ListenToElementMessage@gmFriendsUI@@UAE?AW4UIElementMessageListenResult@@ABUUIElementMessageInfo@@@Z
48DA40 ?RecvNotice_ChatCommand_DisplayFriends@gmFriendsUI@@MAEX_N@Z
48DDA0 ?RecvNotice_ChatCommand_RemoveFriend@gmFriendsUI@@MAEXABV?$PStringBase@D@@@Z
48DF20 ?RefreshFriendsDisplay@gmFriendsUI@@IAE_NXZ
48DFB0 ?ServerSays_UpdateFriend@gmFriendsUI@@IAE_NABVFriendDataList@@@Z
48E080 ?insert@?$List@VFriendData@@@AC1Legacy@@IAEHPAV?$ListNode@VFriendData@@@2@ABVFriendData@@@Z
48E110 ?remove@?$List@VFriendData@@@AC1Legacy@@IAEHPAV?$ListNode@VFriendData@@@2@@Z
48E180 ?remove@?$List@VFriendData@@@AC1Legacy@@QAEHAAVFriendData@@@Z
48E1D0 ?ServerSays_AddFriend@gmFriendsUI@@IAE_NABVFriendDataList@@@Z
48E290 ?ServerSays_RemoveFriend@gmFriendsUI@@IAE_NABVFriendDataList@@_N@Z
48E300 ?RecvNotice_ChatCommand_RemoveAllFriends@gmFriendsUI@@MAEXXZ
48E380 ??0gmFriendsUI@@QAE@ABVLayoutDesc@@ABVElementDesc@@@Z
48E410 ?DynamicCast@gmFriendsUI@@UAEPAVUIElement@@K@Z
48E430 ?GetUIElementType@gmFriendsUI@@UBEKXZ
48E440 ??1gmFriendsUI@@UAE@XZ
48E4A0 ?Create@gmFriendsUI@@SAPAVUIElement@@ABVLayoutDesc@@ABVElementDesc@@@Z
48E4D0 ??_EgmFriendsUI@@UAEPAXI@Z
48E4F0 ?Register@gmFriendsUI@@SAXXZ
48E510 ??4FriendDataList@@QAEAAV0@ABV0@@Z
48E550 ?RecvNotice_UpdateFriendsList@gmFriendsUI@@MAEXABVFriendDataList@@J@Z
48E5F0 ?GetPlayerID@@YAKXZ
48E610 ??0gmFellowshipUI@@QAE@ABVLayoutDesc@@ABVElementDesc@@@Z
48E6B0 ?DynamicCast@gmFellowshipUI@@UAEPAVUIElement@@K@Z
48E6D0 ?GetUIElementType@gmFellowshipUI@@UBEKXZ
48E6E0 ?Create@gmFellowshipUI@@SAPAVUIElement@@ABVLayoutDesc@@ABVElementDesc@@@Z
48E710 ?RecvNotice_AbortConfirmationRequest@gmFellowshipUI@@UAEXJK@Z
48E740 ?OnVisibilityChanged@gmFellowshipUI@@MAEX_N@Z
48E750 ?DismissFellow@gmFellowshipUI@@IAEXK@Z
48E810 ?RecruitFellow@gmFellowshipUI@@IAEXK@Z
48E8F0 ??_E?$PackableHashIterator@KVFellow@@@@UAEPAXI@Z
48E910 ??1gmFellowshipUI@@UAE@XZ
48E980 ?Register@gmFellowshipUI@@SAXXZ
48E9A0 ?UpdateButtons@gmFellowshipUI@@IAEXXZ
48ECC0 ?begin@?$PackableHashTable@KVFellow@@@@QBE?AV?$PackableHashIterator@KVFellow@@@@XZ
48ED20 ??1Fellow@@UAE@XZ
48ED50 ??_EFellow@@UAEPAXI@Z
48EDA0 ?GetFellow@Fellowship@@QBEPAVFellow@@K@Z
48EDE0 ??_EgmFellowshipUI@@UAEPAXI@Z
48EE00 ?UpdateFellowStats@gmFellowshipUI@@IAEXK@Z
48F040 ?UpdateFellowVitals@gmFellowshipUI@@IAEXK@Z
48F3D0 ?UpdateFellowSelection@gmFellowshipUI@@IAEXXZ
48F4A0 ?RecvNotice_SelectionChanged@gmFellowshipUI@@UAEXXZ
48F4C0 ?AssignLeadershipToFellow@gmFellowshipUI@@IAEXK@Z
48F5A0 ?RecvNotice_CloseDialog@gmFellowshipUI@@UAEXKABVPropertyCollection@@@Z
48F720 ?Update@gmFellowshipUI@@IAEXXZ
48FA10 ?CreateFellowship@gmFellowshipUI@@IAEXXZ
48FB80 ?FellowshipDisbanded@gmFellowshipUI@@IAEXXZ
48FC50 ?FellowDismissed@gmFellowshipUI@@IAEXK@Z
48FDC0 ?FellowQuit@gmFellowshipUI@@IAEXK@Z
48FF00 ?FellowAdded@gmFellowshipUI@@IAEXK@Z
48FFB0 ?FellowUpdated@gmFellowshipUI@@IAEXKABVFellow@@K@Z
490020 ?PostInit@gmFellowshipUI@@UAEXXZ
4904A0 ?ListenToElementMessage@gmFellowshipUI@@UAE?AW4UIElementMessageListenResult@@ABUUIElementMessageInfo@@@Z
490770 ?RecvNotice_FellowshipUpdate@gmFellowshipUI@@UAEXABVCFellowship@@@Z
4908B0 ?RecvNotice_FellowshipDisbanded@gmFellowshipUI@@UAEXXZ
4908C0 ?RecvNotice_FellowQuit@gmFellowshipUI@@UAEXK@Z
4908D0 ?RecvNotice_FellowDismissed@gmFellowshipUI@@UAEXK@Z
4908E0 ?RecvNotice_FellowAdded@gmFellowshipUI@@UAEXK@Z
4908F0 ?RecvNotice_FellowUpdated@gmFellowshipUI@@UAEXKABVFellow@@K@Z
490900 ?MakeFellowRequestDialog@gmFellowshipUI@@IAE_NV?$PStringBase@D@@K@Z
490B60 ?RecvNotice_FellowshipRequest@gmFellowshipUI@@UAEXABV?$PStringBase@D@AC1Legacy@@K@Z
490B90 ?ListenToGlobalMessage@gmAllegianceUI@@UAEXKJ@Z
490BC0 ?UpdateSwearButton@gmAllegianceUI@@IAEXXZ
490CB0 ?UpdateBreakButton@gmAllegianceUI@@IAEXXZ
490D30 ?CloseAcceptSwearConfirmationDialog@gmAllegianceUI@@IAE_N_N@Z
490D70 ?CloseBreakConfirmationDialog@gmAllegianceUI@@IAE_N_N@Z
490DE0 ?CloseKickConfirmationDialog@gmAllegianceUI@@IAE_N_N@Z
490E20 ??0gmAllegianceUI@@QAE@ABVLayoutDesc@@ABVElementDesc@@@Z
490EF0 ?DynamicCast@gmAllegianceUI@@UAEPAVUIElement@@K@Z
490F10 ?GetUIElementType@gmAllegianceUI@@UBEKXZ
490F20 ??1gmAllegianceUI@@UAE@XZ
490FF0 ?Create@gmAllegianceUI@@SAPAVUIElement@@ABVLayoutDesc@@ABVElementDesc@@@Z
491020 ?RecvNotice_PlayerDescReceived@gmAllegianceUI@@UAEXABVCACQualities@@ABVCPlayerModule@@@Z
491050 ?RecvNotice_SelectionChanged@gmAllegianceUI@@UAEXXZ
491060 ?RecvNotice_AbortConfirmationRequest@gmAllegianceUI@@UAEXJK@Z
491090 ?OnQualityRemoved@gmAllegianceUI@@UAEXPAVCWeenieObject@@W4StatType@@K@Z
4910C0 ?append_n_chars@?$PStringBase@D@AC1Legacy@@QAEXPBDI@Z
491150 ??_EgmAllegianceUI@@UAEPAXI@Z
491170 ?PostInit@gmAllegianceUI@@UAEXXZ
4914D0 ?Register@gmAllegianceUI@@SAXXZ
4914F0 ??Y?$PStringBase@D@AC1Legacy@@QAEAAV01@ABV01@@Z
491520 ?OnVisibilityChanged@gmAllegianceUI@@MAEX_N@Z
491610 ?UpdatePlayerData@gmAllegianceUI@@IAEXXZ
491AA0 ?UpdatePatronData@gmAllegianceUI@@IAEXXZ
491E20 ?UpdateMonarchData@gmAllegianceUI@@IAEXXZ
492330 ?RecvNotice_EnchantmentsChanged@gmAllegianceUI@@UAEXXZ
492340 ?RecvNotice_CloseDialog@gmAllegianceUI@@UAEXKABVPropertyCollection@@@Z
492500 ?RecvNotice_AllegianceLogin@gmAllegianceUI@@UAEXK_N@Z
492620 ?UpdateVassalsData@gmAllegianceUI@@IAEXXZ
492950 ?Update@gmAllegianceUI@@IAEXXZ
492A60 ?RecvNotice_AllegianceUpdate@gmAllegianceUI@@UAEXABVCAllegianceProfile@@K@Z
492A70 ?RecvNotice_AllegianceUpdateAborted@gmAllegianceUI@@UAEXK@Z
492A90 ?MakeSwearConfirmationDialog@gmAllegianceUI@@IAE_NXZ
492C70 ?MakeAcceptSwearConfirmationDialog@gmAllegianceUI@@IAE_NV?$PStringBase@D@@K@Z
492ED0 ?MakeBreakConfirmationDialog@gmAllegianceUI@@IAE_NXZ
4930F0 ?MakeKickConfirmationDialog@gmAllegianceUI@@IAE_NXZ
493310 ?ListenToElementMessage@gmAllegianceUI@@UAE?AW4UIElementMessageListenResult@@ABUUIElementMessageInfo@@@Z
4933F0 ?RecvNotice_SwearAllegianceRequest@gmAllegianceUI@@UAEXABV?$PStringBase@D@AC1Legacy@@K@Z
493420 ?CheckForDoubleClick@gmPageListUI@@IAE_NJ@Z
493480 ?__uninitialized_copy@_STL@@YAPAVPageInfo@@PAV2@00ABU__false_type@1@@Z
4934B0 ?__copy_backward@_STL@@YAPAVPageInfo@@PAV2@00ABUrandom_access_iterator_tag@1@PAH@Z
4934F0 ?__copy@_STL@@YAPAVPageInfo@@PAV2@00ABUrandom_access_iterator_tag@1@PAH@Z
493530 ??1LookFile@@QAE@XZ
4935A0 ?__unguarded_linear_insert@_STL@@YAXPAVPageInfo@@V2@P6A_NABV2@2@Z@Z
493600 ?__push_heap@_STL@@YAXPAVPageInfo@@HHV2@P6A_NABV2@2@Z@Z
493680 ?PostInit@gmPageListUI@@UAEXXZ
4936F0 ?RefreshPageListbox@gmPageListUI@@IAEXXZ
493870 ?__unguarded_insertion_sort_aux@_STL@@YAXPAVPageInfo@@00P6A_NABV2@1@Z@Z
4938B0 ?__adjust_heap@_STL@@YAXPAVPageInfo@@HHV2@P6A_NABV2@2@Z@Z
493960 ?AddPageToListbox@gmPageListUI@@IAEXABVPageInfo@@@Z
493B10 ?__unguarded_partition@_STL@@YAPAVPageInfo@@PAV2@0V2@P6A_NABV2@2@Z@Z
493C20 ?__destroy_aux@_STL@@YAXPAVPageInfo@@0ABU__false_type@1@@Z
493CA0 ?__linear_insert@_STL@@YAXPAVPageInfo@@0V2@P6A_NABV2@2@Z@Z
4945A0 ?Register@gmPageListUI@@SAXXZ
4948F0 ?sort@_STL@@YAXPAVPageInfo@@0P6A_NABV2@1@Z@Z
494CC0 ?PageInfoSortPageNumber@@YA_NABVPageInfo@@0@Z
494E10 ??9?$PStringBase@G@@QBE_NABV0@@Z
4951D0 ??0PageInfo@@QAE@ABV0@@Z
495300 ??4PageInfo@@QAEAAV0@ABV0@@Z
495410 ?Register@gmJournalUI@@SAXXZ
495640 ?SaveThisPage@gmJournalUI@@QAEXXZ
495980 ?GetTimerText@@YA?AV?$PStringBase@G@@_NN@Z
495B70 ?UpdateRunningTimer@gmJournalUI@@IAEXXZ
496710 ?GotoPage@gmJournalUI@@QAEXK@Z
496B60 ?NewPage@gmJournalUI@@QAEXXZ
496DA0 ?LoadPages@gmJournalUI@@IAEXV?$PStringBase@D@@@Z
497550 ?SavePages@gmJournalUI@@IAEXV?$PStringBase@D@@@Z
497AC0 ?ListenToGlobalMessage@gmJournalUI@@UAEXKJ@Z
497BD0 ?OnVisibilityChanged@gmJournalUI@@MAEX_N@Z
497C80 ?inbound_valid_cellid@LandDefs@@SAHK@Z
497CF0 ?CheckForDoubleClick@gmContractsUI@@IAE_NJ@Z
497D50 ??_G?$PackableHashIterator@KVCContractTracker@@@@UAEPAXI@Z
497D70 ?gid_to_lcoord@LandDefs@@SAHKAAJ0@Z
497EF0 ?begin@?$PackableHashTable@KVCContractTracker@@@@QBE?AV?$PackableHashIterator@KVCContractTracker@@@@XZ
498270 ?add@?$PackableHashTable@KVCContractTracker@@@@QAEHABKABVCContractTracker@@@Z
498600 ?Pack@?$PackableHashTable@KVGeneratorRegistryNode@@@@UAEIAAPAXI@Z
499F60 ?Register@gmContractsUI@@SAXXZ
49AC80 ??_GCharacterTitleTable@@UAEPAXI@Z
49AE10 ?Register@gmCharacterTitleUI@@SAXXZ
49B020 ??0Skill@@QAE@XZ
49B040 ??0gmSkillUI@@QAE@ABVLayoutDesc@@ABVElementDesc@@@Z
49B090 ?DynamicCast@gmSkillUI@@UAEPAVUIElement@@K@Z
49B0B0 ?GetUIElementType@gmSkillUI@@UBEKXZ
49B0C0 ?PostInit@gmSkillUI@@UAEXXZ
49B100 ?Create@gmSkillUI@@SAPAVUIElement@@ABVLayoutDesc@@ABVElementDesc@@@Z
49B130 ?GetCostToRaise10@gmSkillUI@@MBEKABVCACQualities@@@Z
49B210 ?MessageIsFromSelectedElement@gmSkillUI@@MBE_NW4StatType@@K@Z
49B230 ??_G?$PackableHashIterator@KVSkillBase@@@@UAEPAXI@Z
49B250 ??_GgmSkillUI@@UAEPAXI@Z
49B290 ?Register@gmSkillUI@@SAXXZ
49B2B0 ?SetSelection@gmSkillUI@@MAE_NPAVUIElement@@@Z
49B380 ?DisplayDefaultFooter@gmSkillUI@@IAE_NABVCACQualities@@@Z
49B5C0 ?DisplaySelectionFooter_Untrained@gmSkillUI@@IAE_NABVCACQualities@@@Z
49B830 ?begin@?$PackableHashTable@KVSkillBase@@@@QBE?AV?$PackableHashIterator@KVSkillBase@@@@XZ
49B890 ??1?$DBObjGrabber@VStringTable@@@@QAE@XZ
49B8B0 ?GetSkillBase@SkillTable@@QBEPAVSkillBase@@K@Z
49B8F0 ?GetCostToRaise@gmSkillUI@@MBEKABVCACQualities@@@Z
49B9D0 ?Raise10Selection@gmSkillUI@@MAE_NXZ
49BAD0 ?DisplaySelectionFooter_Trained@gmSkillUI@@IAE_NABVCACQualities@@@Z
49C040 ?AddSortedSkill@gmSkillUI@@IAE_NKABVSkillBase@@PAVUIElement@@1@Z
49C310 ?UpdateSelection@gmSkillUI@@MAE_NXZ
49C480 ?TrainSkillDialogCallback@gmSkillUI@@KAXABVPropertyCollection@@@Z
49C610 ?RebuildSkillList@gmSkillUI@@IAE_NXZ
49C840 ?RecvNotice_PlayerDescReceived@gmSkillUI@@UAEXABVCACQualities@@ABVCPlayerModule@@@Z
49C850 ?RecvNotice_SkillAdvancementClassChanged@gmSkillUI@@UAEXXZ
49C860 ?TrainSkill@gmSkillUI@@IAE_NABVCACQualities@@@Z
49CB30 ?RaiseSelection@gmSkillUI@@MAE_NXZ
49CC40 ?DynamicCast@gmAttributeUI@@UAEPAVUIElement@@K@Z
49CC60 ?GetUIElementType@gmAttributeUI@@UBEKXZ
49CC70 ?Create@gmAttributeUI@@SAPAVUIElement@@ABVLayoutDesc@@ABVElementDesc@@@Z
49CCD0 ??_GgmAttributeUI@@UAEPAXI@Z
49CD10 ?Register@gmAttributeUI@@SAXXZ
49CD30 ?SetSelection@gmAttributeUI@@MAE_NPAVUIElement@@@Z
49CDF0 ?GetCostToRaise@gmAttributeUI@@MBEKABVCACQualities@@@Z
49CEE0 ?GetCostToRaise10@gmAttributeUI@@MBEKABVCACQualities@@@Z
49D000 ?MessageIsFromSelectedElement@gmAttributeUI@@MBE_NW4StatType@@K@Z
49D050 ?DisplayDefaultFooter@gmAttributeUI@@IAE_NABVCACQualities@@@Z
49D290 ?RaiseSelection@gmAttributeUI@@MAE_NXZ
49D3C0 ?Raise10Selection@gmAttributeUI@@MAE_NXZ
49D4F0 ?DisplaySelectionFooter_Attribute@gmAttributeUI@@IAE_NABVCACQualities@@@Z
49D920 ?DisplaySelectionFooter_Vital@gmAttributeUI@@IAE_NABVCACQualities@@@Z
49DDE0 ?PostInit@gmAttributeUI@@UAEXXZ
49E150 ?UpdateSelection@gmAttributeUI@@MAE_NXZ
49E2A0 ?DynamicCast@gmGameplayOptionsUI@@UAEPAVUIElement@@K@Z
49E2C0 ?GetUIElementType@gmGameplayOptionsUI@@UBEKXZ
49E2D0 ?PostInit@gmGameplayOptionsUI@@UAEXXZ
49E2E0 ?Create@gmGameplayOptionsUI@@SAPAVUIElement@@ABVLayoutDesc@@ABVElementDesc@@@Z
49E330 ??_GgmGameplayOptionsUI@@UAEPAXI@Z
49E370 ?Register@gmGameplayOptionsUI@@SAXXZ
49E390 ?ListenToElementMessage@gmGameplayOptionsUI@@UAE?AW4UIElementMessageListenResult@@ABUUIElementMessageInfo@@@Z
49E540 ?DynamicCast@gmConfigUI@@UAEPAVUIElement@@K@Z
49E560 ?GetUIElementType@gmConfigUI@@UBEKXZ
49E570 ??1gmConfigUI@@UAE@XZ
49E5C0 ?Create@gmConfigUI@@SAPAVUIElement@@ABVLayoutDesc@@ABVElementDesc@@@Z
49E620 ?ListenToElementMessage@gmChatOptionsUI@@UAE?AW4UIElementMessageListenResult@@ABUUIElementMessageInfo@@@Z
49E680 ?InitOptions@gmConfigUI@@MAEXXZ
49EAA0 ??_EgmConfigUI@@UAEPAXI@Z
49EAC0 ?PostInit@gmConfigUI@@UAEXXZ
49EB50 ?Register@gmConfigUI@@SAXXZ
49EB70 ?SetMouseTurningDefaults@gmConfigUI@@QAEXXZ
49EE10 ?ListenToGlobalMessage@gmConfigUI@@UAEXKJ@Z
49EE20 ?RecvNotice_UserPreferenceChanged_Menu@gmConfigUI@@UAEXABV?$PStringBase@D@@KK@Z
49F000 ??_G?$ListIterator@PAV?$DualHashData@PAVUIOption_Slider@@PAV1@@@@@UAEPAXI@Z
49F020 ?AddCheckboxBitfield64Option@gmChatOptionsUI@@IAEPAVUIOption_CheckboxBitfield64@@ABKK@Z
49F270 ?init@?$DualHash@PAVUIOption_Slider@@PAV1@@@IAEXK@Z
49F320 ?start_bucket@?$DualHashIter@PAVUIOption_Slider@@PAV1@@@IAEXXZ
49F380 ?PostInit@gmChatOptionsUI@@UAEXXZ
49F850 ?flush@?$List@PAVSkillRecord@@@@QAEXXZ
49FF00 ?Register@gmChatOptionsUI@@SAXXZ
49FF20 ?InitOptions@gmChatOptionsUI@@MAEXXZ
4A0460 ?DynamicCast@gmCharacterSettingsUI@@UAEPAVUIElement@@K@Z
4A0480 ?GetUIElementType@gmCharacterSettingsUI@@UBEKXZ
4A0490 ?Create@gmCharacterSettingsUI@@SAPAVUIElement@@ABVLayoutDesc@@ABVElementDesc@@@Z
4A04F0 ??_EgmCharacterSettingsUI@@UAEPAXI@Z
4A0540 ?PostInit@gmCharacterSettingsUI@@UAEXXZ
4A0590 ?Register@gmCharacterSettingsUI@@SAXXZ
4A05B0 ?InitOptions@gmCharacterSettingsUI@@MAEXXZ
4A1BA0 ?RecvNotice_UpdateHouseData@gmMapUI@@UAEXABVHouseData@@@Z
4A1BD0 ?RecvNotice_FailedHouseTransaction@gmMapUI@@UAEXK@Z
4A1BE0 ?PlaceMarkerOnMap@gmMapUI@@IAE_NPAVUIElement@@NN@Z
4A1CD0 ?lcoord_to_gid@LandDefs@@SAKJJ@Z
4A1D20 ??0gmMapUI@@QAE@ABVLayoutDesc@@ABVElementDesc@@@Z
4A1DD0 ?DynamicCast@gmMapUI@@UAEPAVUIElement@@K@Z
4A1DF0 ?GetUIElementType@gmMapUI@@UBEKXZ
4A1E00 ??1gmMapUI@@UAE@XZ
4A1E70 ?Create@gmMapUI@@SAPAVUIElement@@ABVLayoutDesc@@ABVElementDesc@@@Z
4A1EA0 ??_GgmMapUI@@UAEPAXI@Z
4A1EC0 ?Register@gmMapUI@@SAXXZ
4A1EE0 ?AddMapNote@gmMapUI@@IAEXPAVUIElement@@KPBVLayoutDesc@@ABULocationRolloverInfo@1@@Z
4A1FA0 ?PostInit@gmMapUI@@UAEXXZ
4A2170 ??0?$PStringBase@G@@QAE@W4_WidthConvert@@ABV?$PStringBase@D@@@Z
4A21E0 ?Update@gmMapUI@@IAE_NXZ
4A2650 ?ListenToGlobalMessage@gmMapUI@@UAEXKJ@Z
4A2680 ?ListenToElementMessage@gmMapUI@@UAE?AW4UIElementMessageListenResult@@ABUUIElementMessageInfo@@@Z
4A28D0 ?DynamicCast@gmHouseUI@@UAEPAVUIElement@@K@Z
4A28F0 ?GetUIElementType@gmHouseUI@@UBEKXZ
4A2900 ?Create@gmHouseUI@@SAPAVUIElement@@ABVLayoutDesc@@ABVElementDesc@@@Z
4A2960 ??0HousePayment@@QAE@XZ
4A29B0 ??1HousePayment@@UAE@XZ
4A2A00 ??_GgmHouseUI@@UAEPAXI@Z
4A2A40 ?PostInit@gmHouseUI@@UAEXXZ
4A2AC0 ?Register@gmHouseUI@@SAXXZ
4A2AE0 ?GetHouseLocation@gmHouseUI@@IBE_NAAJ0@Z
4A2B40 ?AddHousePanelText@gmHouseUI@@IAEXABV?$PStringBase@G@@W4HousePanelTextColor@@@Z
4A2B90 ??H?$PStringBase@D@AC1Legacy@@QBE?AV01@ABV01@@Z
4A2C40 ??_GHousePayment@@UAEPAXI@Z
4A2CA0 ?RemoveHead@?$PackableList@VHousePayment@@@@QAEHAAVHousePayment@@@Z
4A2D40 ?Flush@?$PackableList@VHousePayment@@@@QAEXXZ
4A2DF0 ??4?$PackableList@VHousePayment@@@@QAEAAV0@ABV0@@Z
4A2E60 ?DisplayBuyPayment@gmHouseUI@@IAEXXZ
4A2F50 ?DisplayRentPayment@gmHouseUI@@IAEXXZ
4A2FF0 ?DisplayBuyTime@gmHouseUI@@IAEXXZ
4A3090 ?DisplayRentTimes@gmHouseUI@@IAEXXZ
4A3210 ?DisplayLocation@gmHouseUI@@IAEXXZ
4A3350 ?DisplayWarningText@gmHouseUI@@IAEXXZ
4A3440 ?DisplayPurchaseTimeText@gmHouseUI@@IAEXXZ
4A36B0 ?DisplayHouseData@gmHouseUI@@IAEXXZ
4A3700 ?Update@gmHouseUI@@IAE_NABVHouseData@@@Z
4A3790 ?Update@gmHouseUI@@IAE_NK@Z
4A3800 ?RecvNotice_UpdateHouseData@gmHouseUI@@MAEXABVHouseData@@@Z
4A3810 ?RecvNotice_FailedHouseTransaction@gmHouseUI@@MAEXK@Z
4A3820 ?RecvNotice_UpdateRentTime@gmHouseUI@@MAEXJ@Z
4A3850 ?RecvNotice_UpdateRentPayment@gmHouseUI@@MAEXABVHousePaymentList@@@Z
4A3880 ?Pack@InventoryPlacement@@UAEIAAPAXI@Z
4A38C0 ?UnPack@InventoryPlacement@@UAEHAAPAXI@Z
4A38F0 ?OnItemListDragOver@ItemListDragHandler@@UAE_NPAVUIElement_UIItem@@KKW4DropItemFlags@@@Z
4A3900 ??1gmPaperDollUI@@UAE@XZ
4A3B30 ?DynamicCast@gmPaperDollUI@@UAEPAVUIElement@@K@Z
4A3B50 ?GetUIElementType@gmPaperDollUI@@UBEKXZ
4A3B60 ?GetLocationInfoFromElementID@gmPaperDollUI@@IAEXKAAKAAW4UI_SLOT_SIDE@@@Z
4A3DE0 ?HandlePaperDollDragOver@gmPaperDollUI@@IAEXPAVUIElement@@@Z
4A3E80 ?AcceptDragObject@gmPaperDollUI@@IAE_NKAAKAAW4UI_SLOT_SIDE@@@Z
4A3F30 ?RedressCreature@gmPaperDollUI@@IAEXXZ
4A3FE0 ?EndPartSelectionLighting@gmPaperDollUI@@IAEXXZ
4A4010 ?ApplyPartSelectionLighting@gmPaperDollUI@@IAEXKMM@Z
4A41C0 ?UpdateAetheria@gmPaperDollUI@@IAEXPAVCWeenieObject@@@Z
4A4240 ?UpdateForRace@gmPaperDollUI@@IAEXK@Z
4A4430 ??0gmPaperDollUI@@QAE@ABVLayoutDesc@@ABVElementDesc@@@Z
4A4590 ??_GgmPaperDollUI@@UAEPAXI@Z
4A45B0 ?Create@gmPaperDollUI@@SAPAVUIElement@@ABVLayoutDesc@@ABVElementDesc@@@Z
4A45E0 ?OnItemListDragOver@gmPaperDollUI@@MAE_NPAVUIElement_UIItem@@KKW4DropItemFlags@@@Z
4A46C0 ?RecvNotice_PlayerObjDescChanged@gmPaperDollUI@@MAEXXZ
4A46D0 ?UpdatePartSelectionLighting@gmPaperDollUI@@IAEXXZ
4A4750 ?RecvNotice_PlayerDescReceived@gmPaperDollUI@@UAEXABVCACQualities@@ABVCPlayerModule@@@Z
4A4800 ?OnQualityChanged@gmPaperDollUI@@UAEXPAVCWeenieObject@@W4StatType@@K@Z
4A4820 ?DetermineHigherPriority@InventoryPlacement@@SAAAV1@AAV1@0K@Z
4A48A0 ?IsContainer@ACCWeenieObject@@QBEHXZ
4A48D0 ?Register@gmPaperDollUI@@SAXXZ
4A48F0 ?PrepareDragIcon@gmPaperDollUI@@IAE_NK@Z
4A4AC0 ?GetUpperInvObj@gmPaperDollUI@@IAEKK@Z
4A4BC0 ?CreateClickMap@gmPaperDollUI@@IAEXXZ
4A4C90 ?GetPaperDollItemUnderMouse@gmPaperDollUI@@IAEKJJ@Z
4A4DE0 ?AcceptPaperDollDragObject@gmPaperDollUI@@IAE_NK@Z
4A4EC0 ?GetSelectionMaskFromObject@gmPaperDollUI@@IAEKK@Z
4A4FC0 ?BeginPartSelectionLighting@gmPaperDollUI@@IAEXK@Z
4A5020 ?ListenToGlobalMessage@gmPaperDollUI@@UAEXKJ@Z
4A50F0 ?HandleDropRelease@gmPaperDollUI@@IAEXABUUIElementMessageInfo@@@Z
4A51E0 ?RecvNotice_SetSelectedItem@gmPaperDollUI@@UAEXKK@Z
4A5200 ?UpdateItemSlotTooltip@gmPaperDollUI@@IAEXPAVUIElement_ItemList@@K@Z
4A56D0 ?PostInit@gmPaperDollUI@@UAEXXZ
4A5FA0 ?ListenToElementMessage@gmPaperDollUI@@UAE?AW4UIElementMessageListenResult@@ABUUIElementMessageInfo@@@Z
4A6300 ?SetUIItemIntoLocation@gmPaperDollUI@@IAEXKK@Z
4A6810 ?ServerSaysMoveItem@gmPaperDollUI@@IAEXKKKKKHKK@Z
4A6930 ?RemakeCharacterInventory@gmPaperDollUI@@QAE_NXZ
4A69E0 ??0gmInventoryUI@@QAE@ABVLayoutDesc@@ABVElementDesc@@@Z
4A6A30 ?DynamicCast@gmInventoryUI@@UAEPAVUIElement@@K@Z
4A6A50 ?GetUIElementType@gmInventoryUI@@UBEKXZ
4A6A60 ?Create@gmInventoryUI@@SAPAVUIElement@@ABVLayoutDesc@@ABVElementDesc@@@Z
4A6A90 ?RecvNotice_UpdateCharacterInformation@gmInventoryUI@@MAEXABVCACQualities@@@Z
4A6AC0 ?RecvNotice_SetDisplayInventory@gmInventoryUI@@MAEXH@Z
4A6B80 ?RecvNotice_ItemAttributesChanged@gmInventoryUI@@MAEXKK@Z
4A6BB0 ?RecvNotice_ServerSaysMoveItem@gmInventoryUI@@MAEXKKKKKHKK@Z
4A6C20 ?RecvNotice_EndPendingInPlayer@gmInventoryUI@@MAEXXZ
4A6C50 ??_EgmInventoryUI@@UAEPAXI@Z
4A6CB0 ?PostInit@gmInventoryUI@@UAEXXZ
4A6DD0 ?Register@gmInventoryUI@@SAXXZ
4A6DF0 ?RecvNotice_OpenContainedContainer@gmInventoryUI@@MAEXK@Z
4A6EC0 ?RecvNotice_ShowPendingInPlayer@gmInventoryUI@@MAEXK@Z
4A6F30 ?RecvNotice_PlayerDescReceived@gmInventoryUI@@MAEXABVCACQualities@@ABVCPlayerModule@@@Z
4A7000 ?RecvNotice_NewParentContainer@gmInventoryUI@@MAEXK@Z
4A70E0 ??0gmBackpackUI@@QAE@ABVLayoutDesc@@ABVElementDesc@@@Z
4A7130 ?DynamicCast@gmBackpackUI@@UAEPAVUIElement@@K@Z
4A7150 ?GetUIElementType@gmBackpackUI@@UBEKXZ
4A7160 ?Create@gmBackpackUI@@SAPAVUIElement@@ABVLayoutDesc@@ABVElementDesc@@@Z
4A7190 ??_EgmBackpackUI@@UAEPAXI@Z
4A71F0 ?Register@gmBackpackUI@@SAXXZ
4A7210 ?SetLoadLevel@gmBackpackUI@@QAEXN@Z
4A72E0 ?PostInit@gmBackpackUI@@UAEXXZ
4A73B0 ?RecvNotice_PlayerDescReceived@gmBackpackUI@@UAEXABVCACQualities@@ABVCPlayerModule@@@Z
4A73F0 ?RecvNotice_LoadChanged@gmBackpackUI@@UAEXM@Z
4A7410 ?DynamicCast@gm3DItemsUI@@UAEPAVUIElement@@K@Z
4A7430 ?GetUIElementType@gm3DItemsUI@@UBEKXZ
4A7440 ?Create@gm3DItemsUI@@SAPAVUIElement@@ABVLayoutDesc@@ABVElementDesc@@@Z
4A74A0 j_UIElement::ListenToElementMessage
4A74B0 ??_Egm3DItemsUI@@UAEPAXI@Z
4A74F0 ?Register@gm3DItemsUI@@SAXXZ
4A7510 ?PostInit@gm3DItemsUI@@UAEXXZ
4A75C0 ?PostInit@gmVitaeUI@@UAEXXZ
4A7620 ??1gmVitaeUI@@UAE@XZ
4A7680 ?DynamicCast@gmVitaeUI@@UAEPAVUIElement@@K@Z
4A76A0 ?GetUIElementType@gmVitaeUI@@UBEKXZ
4A76B0 ??0gmVitaeUI@@QAE@ABVLayoutDesc@@ABVElementDesc@@@Z
4A7710 ??_EgmVitaeUI@@UAEPAXI@Z
4A7730 ?Create@gmVitaeUI@@SAPAVUIElement@@ABVLayoutDesc@@ABVElementDesc@@@Z
4A7760 ?Register@gmVitaeUI@@SAXXZ
4A7780 ?Update@gmVitaeUI@@IAE_NXZ
4A7A50 ?ListenToElementMessage@gmVitaeUI@@UAE?AW4UIElementMessageListenResult@@ABUUIElementMessageInfo@@@Z
4A7A80 ?RecvNotice_PlayerDescReceived@gmVitaeUI@@UAEXABVCACQualities@@ABVCPlayerModule@@@Z
4A7AA0 ?RecvNotice_VitaeChanged@gmVitaeUI@@UAEXXZ
4A7B80 ?OnQualityRemoved@gmVitaeUI@@UAEXPAVCWeenieObject@@W4StatType@@K@Z
4A7B90 ?DynamicCast@gmUrgentAssistanceUI@@UAEPAVUIElement@@K@Z
4A7BB0 ?GetUIElementType@gmUrgentAssistanceUI@@UBEKXZ
4A7BC0 ?PostInit@gmUrgentAssistanceUI@@UAEXXZ
4A7BF0 ?Create@gmUrgentAssistanceUI@@SAPAVUIElement@@ABVLayoutDesc@@ABVElementDesc@@@Z
4A7C50 ??_EgmUrgentAssistanceUI@@UAEPAXI@Z
4A7CA0 ?Register@gmUrgentAssistanceUI@@SAXXZ
4A7CC0 ?ListenToElementMessage@gmUrgentAssistanceUI@@UAE?AW4UIElementMessageListenResult@@ABUUIElementMessageInfo@@@Z
4A7EA0 ??9TCoord@@QBEHABV0@@Z
4A7EC0 ?IsValid@TCoord@@QBEHXZ
4A7EE0 ?PrepareNewMove@GameBoardGrid@@QAEXXZ
4A7F40 ??0gmMiniGameUI@@QAE@ABVLayoutDesc@@ABVElementDesc@@@Z
4A7FB0 ?DynamicCast@gmMiniGameUI@@UAEPAVUIElement@@K@Z
4A7FD0 ?GetUIElementType@gmMiniGameUI@@UBEKXZ
4A7FE0 ??1gmMiniGameUI@@UAE@XZ
4A84A0 ?Register@gmMiniGameUI@@SAXXZ
4AACD0 ?RecvNotice_GameOver@gmMiniGameUI@@MAEXKJ@Z
4AADB0 ?ListenToElementMessage@gmMiniGameUI@@UAE?AW4UIElementMessageListenResult@@ABUUIElementMessageInfo@@@Z
4AB050 ?RecvNotice_TryToQuitGame@gmMiniGameUI@@MAEX_N@Z
4AB090 ??0gmLinkStatusUI@@QAE@ABVLayoutDesc@@ABVElementDesc@@@Z
4AB100 ?DynamicCast@gmLinkStatusUI@@UAEPAVUIElement@@K@Z
4AB120 ?GetUIElementType@gmLinkStatusUI@@UBEKXZ
4AB130 ?PostInit@gmLinkStatusUI@@UAEXXZ
4AB170 ?Create@gmLinkStatusUI@@SAPAVUIElement@@ABVLayoutDesc@@ABVElementDesc@@@Z
4AB1A0 ??_GgmLinkStatusUI@@UAEPAXI@Z
4AB200 ?Register@gmLinkStatusUI@@SAXXZ
4AB220 ?Update@gmLinkStatusUI@@IAE_NXZ
4AB430 ?ListenToElementMessage@gmLinkStatusUI@@UAE?AW4UIElementMessageListenResult@@ABUUIElementMessageInfo@@@Z
4AB490 ?ListenToGlobalMessage@gmLinkStatusUI@@UAEXKJ@Z
4AB4D0 ?RecvNotice_Ping@gmLinkStatusUI@@UAEXXZ
4AB530 ?Init@ExamineSubUI@@UAEXKPAVACCWeenieObject@@@Z
4AB550 ?ModifierToString@@YAPADN@Z
4AB5C0 ?SmallModifierToString@@YAPADN@Z
4AB630 ??0gmExaminationUI@@QAE@ABVLayoutDesc@@ABVElementDesc@@@Z
4AB6B0 ?DynamicCast@gmExaminationUI@@UAEPAVUIElement@@K@Z
4AB6D0 ?GetUIElementType@gmExaminationUI@@UBEKXZ
4AB6E0 ?Create@gmExaminationUI@@SAPAVUIElement@@ABVLayoutDesc@@ABVElementDesc@@@Z
4AB710 ?OnChildAction@gmExaminationUI@@MAE_NABVUIElement@@ABVInputEvent@@@Z
4AB750 ?RecvNotice_SelectionChanged@gmExaminationUI@@MAEXXZ
4AB7A0 ?SetActiveExamineUI@gmExaminationUI@@IAEXPAVExamineSubUI@@@Z
4AB8B0 ?UseTime@gmExaminationUI@@IAEXXZ
4AB920 ?Show@CreatureExamineUI@@UAEX_N@Z
4AB950 ?Show@CharExamineUI@@UAEX_N@Z
4AB980 ?Show@ItemExamineUI@@UAEX_N@Z
4AB990 ?clear@?$PStringBase@D@AC1Legacy@@QAEXXZ
4AB9D0 ??8?$PStringBase@D@AC1Legacy@@QBE_NABV01@@Z
4ABA30 ??9?$PStringBase@D@AC1Legacy@@QBE_NABV01@@Z
4ABA90 ?cmp@?$PStringBase@D@AC1Legacy@@QBEJABV12@H@Z
4ABB00 ?Register@gmExaminationUI@@SAXXZ
4ABB20 ?ListenToGlobalMessage@gmExaminationUI@@UAEXKJ@Z
4ABB30 ?RecvNotice_ExamineObject@gmExaminationUI@@MAEXK@Z
4ABB70 ??0ItemExamineUI@@QAE@PAVgmExaminationUI@@@Z
4ABCC0 ??1ItemExamineUI@@QAE@XZ
4ABD40 ?Init@BasicCreatureExamineUI@@UAEXKPAVACCWeenieObject@@@Z
4ABF30 ?AddLineToMiscInfo@BasicCreatureExamineUI@@IAEXABV?$PStringBase@G@@0H@Z
4ABFD0 ??0SpellExamineUI@@QAE@PAVgmExaminationUI@@@Z
4AC170 ?ClearIcons@SpellExamineUI@@IAEXXZ
4AC1A0 ?UpdateComponents@SpellExamineUI@@QAEXW4ComponentTrackerUpdate@@@Z
4AC2E0 ?GetComponentObjectID@SpellExamineUI@@QAEKK@Z
4AC350 ?eq@?$PStringBase@D@AC1Legacy@@QBE_NABV12@H@Z
4AC370 ??HAC1Legacy@@YA?AV?$PStringBase@D@0@PBDABV10@@Z
4AC3C0 ?RecvNotice_UpdateSpellComponents@gmExaminationUI@@MAEXJ@Z
4AC3D0 ?AddItemInfo@ItemExamineUI@@QAEXABV?$PStringBase@G@@JH@Z
4AC460 ?HandleInscriptionGainingFocus@ItemExamineUI@@IAEXXZ
4AC5B0 ?HandleInscriptionMousePresses@ItemExamineUI@@IAEXXZ
4AC7C0 ??H@YA?AV?$PStringBase@D@@PBDABV0@@Z
4AC810 ?append_int32@?$PStringBase@D@AC1Legacy@@QAEXJ@Z
4AC880 ?InsertCommas@?$PStringBase@D@AC1Legacy@@IAE_NXZ
4ACAA0 ?SetInscriptionEditableState@ItemExamineUI@@IAEXXZ
4ACE40 ?GetAppraisalStringFromRequirements@ItemExamineUI@@IAEXKJJAAV?$PStringBase@D@AC1Legacy@@@Z
4AD010 ?AppendHelper@@YAXAAV?$PStringBase@D@AC1Legacy@@PBD@Z
4AD0B0 ??0BasicCreatureExamineUI@@QAE@PAVgmExaminationUI@@@Z
4AD660 ??1BasicCreatureExamineUI@@QAE@XZ
4AD740 ??0CharExamineUI@@QAE@PAVgmExaminationUI@@@Z
4AD7D0 ?DetermineSpellRange@SpellExamineUI@@IAEMAAVCSpellBase@@@Z
4AD950 ?convert@?$PStringBase@D@AC1Legacy@@QAE_NJH@Z
4AD9C0 ??4?$PStringBase@D@AC1Legacy@@QAEAAV01@J@Z
4ADA20 ?PostInit@gmExaminationUI@@UAEXXZ
4ADB80 ?RecvNotice_ServerSaysMoveItem@gmExaminationUI@@MAEXKKKKKHKK@Z
4ADBA0 ??0?$PStringBase@D@AC1Legacy@@QAE@J@Z
4ADBD0 ??1gmExaminationUI@@UAE@XZ
4ADCB0 ?SetTitleText@gmExaminationUI@@QAEXPBDJ@Z
4ADE60 ?SetAppraiseInfo@gmExaminationUI@@IAEXKABVAppraisalProfile@@@Z
4AE020 ?AddItemInfo@ItemExamineUI@@QAEXPBDJH@Z
4AE670 ?SetInscription@ItemExamineUI@@IAEXABVAppraisalProfile@@@Z
4AE9A0 ?HandleInscriptionLosingFocus@ItemExamineUI@@IAEXXZ
4AEC00 ?Appraisal_ShowSet@ItemExamineUI@@IAEHABVAppraisalProfile@@@Z
4B4510 ?SetLevelValueText@BasicCreatureExamineUI@@IAEXJ@Z
4B4610 ?SetAppraiseInfo@BasicCreatureExamineUI@@MAEXABVAppraisalProfile@@H@Z
4B4690 ?SetAppraiseInfo@CreatureExamineUI@@MAEXABVAppraisalProfile@@H@Z
4B4EF0 ?SetAppraiseInfo@CharExamineUI@@MAEXABVAppraisalProfile@@H@Z
4B6A60 ?SetManaText@SpellExamineUI@@IAEXJJ@Z
4B6C20 ?AddItemInfo@SpellExamineUI@@IAEXPBD@Z
4B6CC0 ??_GgmExaminationUI@@UAEPAXI@Z
4B6CE0 ?ListenToElementMessage@gmExaminationUI@@UAE?AW4UIElementMessageListenResult@@ABUUIElementMessageInfo@@@Z
4B6E20 ?RecvNotice_SetAppraiseInfo@gmExaminationUI@@MAEXKABVAppraisalProfile@@@Z
4B6E30 ?ExamineSpell@SpellExamineUI@@QAEHK@Z
4B7520 ?ExamineSpell@gmExaminationUI@@QAEXK@Z
4B75A0 ?RecvNotice_ExamineSpell@gmExaminationUI@@MAEXK@Z
4B75B0 ?Appraisal_ShowDescription@ItemExamineUI@@IAEXABVAppraisalProfile@@@Z
4B7ED0 ?SetAppraiseInfo@ItemExamineUI@@UAEXABVAppraisalProfile@@H@Z
4B8110 ??4Enchantment@@QAEAAV0@ABV0@@Z
4B8180 ?PostInit@gmEffectsUI@@UAEXXZ
4B8290 ?UpdateDurations@gmEffectsUI@@IAE_NABVCACQualities@@@Z
4B84C0 ?Register@gmEffectsUI@@SAXXZ
4B86F0 ?Flush@?$PackableList@VEnchantment@@@@QAEXXZ
4B8910 ?UnPack@?$PackableList@VEnchantment@@@@UAEHAAPAXI@Z
4B8A00 ??0Enchantment@@QAE@ABV0@@Z
4B9310 ?PostInit@gmCharacterInfoUI@@UAEXXZ
4B9370 ??1gmCharacterInfoUI@@UAE@XZ
4B93D0 ?DynamicCast@gmCharacterInfoUI@@UAEPAVUIElement@@K@Z
4B93F0 ?GetUIElementType@gmCharacterInfoUI@@UBEKXZ
4B9400 ?UpdateInnateAttributeInfo@gmCharacterInfoUI@@IAE_NABVCACQualities@@@Z
4B9550 ?UpdateFakeSkills@gmCharacterInfoUI@@IAE_NABVCACQualities@@@Z
4B9640 ?UpdateLoad@gmCharacterInfoUI@@IAE_NABVCACQualities@@@Z
4B9800 ??0gmCharacterInfoUI@@QAE@ABVLayoutDesc@@ABVElementDesc@@@Z
4B9860 ??_GgmCharacterInfoUI@@UAEPAXI@Z
4B9880 ?Create@gmCharacterInfoUI@@SAPAVUIElement@@ABVLayoutDesc@@ABVElementDesc@@@Z
4B98B0 ?Register@gmCharacterInfoUI@@SAXXZ
4B98D0 ?UpdatePlayerBirthAgeDeaths@gmCharacterInfoUI@@IAE_NABVCACQualities@@@Z
4B9B40 ?UpdateEnduranceInfo@gmCharacterInfoUI@@IAE_NABVCACQualities@@@Z
4B9C90 ?UpdateAugmentations@gmCharacterInfoUI@@IAE_NABVCACQualities@@@Z
4BB420 ?Update@gmCharacterInfoUI@@IAE_NABVCACQualities@@@Z
4BB5C0 ?RecvNotice_PlayerDescReceived@gmCharacterInfoUI@@UAEXABVCACQualities@@ABVCPlayerModule@@@Z
4BB5E0 ?Update@gmCharacterInfoUI@@IAE_NXZ
4BB690 ?ListenToElementMessage@gmCharacterInfoUI@@UAE?AW4UIElementMessageListenResult@@ABUUIElementMessageInfo@@@Z
4BB6C0 ?RecvNotice_LoadChanged@gmCharacterInfoUI@@UAEXM@Z
4BB6D0 ?OnQualityChanged@gmCharacterInfoUI@@UAEXPAVCWeenieObject@@W4StatType@@K@Z
4BB6E0 ?OnObjectRangeExit@gmBookUI@@MAEXK@Z
4BB710 ??0gmBookUI@@QAE@ABVLayoutDesc@@ABVElementDesc@@@Z
4BB7E0 ?DynamicCast@gmBookUI@@UAEPAVUIElement@@K@Z
4BB800 ?GetUIElementType@gmBookUI@@UBEKXZ
4BB810 ??1gmBookUI@@UAE@XZ
4BB8B0 ?Create@gmBookUI@@SAPAVUIElement@@ABVLayoutDesc@@ABVElementDesc@@@Z
4BB8E0 ?SetEditable@gmBookUI@@IAEXPAVUIElement_Text@@H@Z
4BB980 ?SetPageText@PageData@@QAEXABV?$PStringBase@D@AC1Legacy@@@Z
4BB9D0 ??_GgmBookUI@@UAEPAXI@Z
4BB9F0 ?PostInit@gmBookUI@@UAEXXZ
4BBB00 ?Register@gmBookUI@@SAXXZ
4BBB20 ?AddPageInfo@gmBookUI@@IAEXHABVStringInfo@@@Z
4BBBB0 ?UpdateMenuSelectionInfo@gmBookUI@@IAEXH@Z
4BBC10 ?UpdateMenu@gmBookUI@@QAEXXZ
4BBE70 ?DisplayPageData@gmBookUI@@QAEXPAVPageData@@@Z
4BBF10 ?PageTextBlank@gmBookUI@@QAEHXZ
4BBFD0 ?CloseCurPage@gmBookUI@@QAEHXZ
4BC100 ?BookPageDataResponseEvent@gmBookUI@@QAEXKHABVPageData@@@Z
4BC190 ?CloseBook@gmBookUI@@QAEXXZ
4BC200 ?SetCurPage@gmBookUI@@QAEXH@Z
4BC4A0 ?RecvNotice_BookPageDataResponse@gmBookUI@@UAEXKJABVPageData@@@Z
4BC4B0 ?BookAddPageResponseEvent@gmBookUI@@QAEXKHH@Z
4BC6A0 ?ListenToElementMessage@gmBookUI@@UAE?AW4UIElementMessageListenResult@@ABUUIElementMessageInfo@@@Z
4BC8F0 ?OnVisibilityChanged@gmBookUI@@MAEX_N@Z
4BC930 ?OpenBook@gmBookUI@@QAEXKHABVPageDataList@@ABV?$PStringBase@D@AC1Legacy@@K1@Z
4BCB20 ?RecvNotice_BookAddPageResponse@gmBookUI@@UAEXKJH@Z
4BCB30 ?RecvNotice_OpenBook@gmBookUI@@UAEXKJABVPageDataList@@ABV?$PStringBase@D@AC1Legacy@@K1@Z
4BCB40 ??0gmAbuseUI@@QAE@ABVLayoutDesc@@ABVElementDesc@@@Z
4BCB90 ?DynamicCast@gmAbuseUI@@UAEPAVUIElement@@K@Z
4BCBB0 ?GetUIElementType@gmAbuseUI@@UBEKXZ
4BCBC0 ?PostInit@gmAbuseUI@@UAEXXZ
4BCC30 ??1gmAbuseUI@@UAE@XZ
4BCC90 ?Create@gmAbuseUI@@SAPAVUIElement@@ABVLayoutDesc@@ABVElementDesc@@@Z
4BCCC0 ??_GgmAbuseUI@@UAEPAXI@Z
4BCCE0 ?Register@gmAbuseUI@@SAXXZ
4BCD00 ?HandleTextEntry@gmAbuseUI@@IAE_NXZ
4BCDC0 ?SetPageThreeText@gmAbuseUI@@IAE_NK@Z
4BCE40 ?RecvNotice_AbuseReportResponse@gmAbuseUI@@UAEXK@Z
4BCE90 ?Reset@gmAbuseUI@@IAE_NXZ
4BCF50 ?HandleSelection@gmAbuseUI@@IAE_NXZ
4BD010 ?ReportAbuse@gmAbuseUI@@IAE_NXZ
4BD250 ?ListenToElementMessage@gmAbuseUI@@UAE?AW4UIElementMessageListenResult@@ABUUIElementMessageInfo@@@Z
4BD300 ?ListenToElementMessage@gmPanelUI@@UAE?AW4UIElementMessageListenResult@@ABUUIElementMessageInfo@@@Z
4BD370 ?ResizeTo@gmPanelUI@@MAEXJJ@Z
4BD380 ?RecvNotice_SetPanelVisibility@gmPanelUI@@UAEXK_N@Z
4BD510 ??0gmPanelUI@@QAE@ABVLayoutDesc@@ABVElementDesc@@@Z
4BD570 ?DynamicCast@gmPanelUI@@UAEPAVUIElement@@K@Z
4BD590 ?GetUIElementType@gmPanelUI@@UBEKXZ
4BD5A0 ?Create@gmPanelUI@@SAPAVUIElement@@ABVLayoutDesc@@ABVElementDesc@@@Z
4BD5D0 ??1gmPanelUI@@UAE@XZ
4BD630 ?Register@gmPanelUI@@SAXXZ
4BD650 ??_EgmPanelUI@@UAEPAXI@Z
4BD670 ?SetupChildren@gmPanelUI@@IAEXXZ
4BDCA0 ?PostInit@gmPanelUI@@UAEXXZ
4BDD50 ?RecvNotice_UpdateItemMana@gmToolbarUI@@MAEXKM_N@Z
4BDDA0 ?RecvNotice_UpdateObjectHealth@gmToolbarUI@@MAEXKM@Z
4BDDE0 ?OnItemListDragOver@gmToolbarUI@@MAE_NPAVUIElement_UIItem@@KKW4DropItemFlags@@@Z
4BDE10 ?HandleInventoryButtonDragOver@gmToolbarUI@@IAEXPAVUIElement@@@Z
4BDE60 ?IsShortcutEligible@gmToolbarUI@@IAE_NPAVACCWeenieObject@@@Z
4BDEC0 ?WClassIDToDataID@@YA?AV?$IDClass@U_tagDataID@@$0CA@$0A@@@K@Z
4BDEE0 ?IsCoinstack@ACCWeenieObject@@QBE_NXZ
4BDF30 ?RecvNotice_SplitStack@gmToolbarUI@@MAEXK@Z
4BDF90 ?RecvNotice_SetPanelVisibility@gmToolbarUI@@MAEXK_N@Z
4BDFE0 ?UseShortcut@gmToolbarUI@@IAEXH_N@Z
4BE0B0 ?FlushShortcuts@gmToolbarUI@@IAEXXZ
4BE0E0 ?RemoveShortcut@gmToolbarUI@@IAEHK_N@Z
4BE180 ?RemoveShortcutInSlotNum@gmToolbarUI@@IAEKH_N@Z
4BE1F0 ?GetFirstEmptyShortcutToTheRightOf@gmToolbarUI@@IAEHK@Z
4BE270 ?IsShortcutSlotAvailable@gmToolbarUI@@IAE_NH@Z
4BE2A0 ?RecvNotice_SetCombatMode@gmToolbarUI@@MAEXW4COMBAT_MODE@@@Z
4BE3A0 ??0gmToolbarUI@@QAE@ABVLayoutDesc@@ABVElementDesc@@@Z
4BE460 ?DynamicCast@gmToolbarUI@@UAEPAVUIElement@@K@Z
4BE480 ?GetUIElementType@gmToolbarUI@@UBEKXZ
4BE490 ??1gmToolbarUI@@UAE@XZ
4BE550 ?Create@gmToolbarUI@@SAPAVUIElement@@ABVLayoutDesc@@ABVElementDesc@@@Z
4BE580 ?RecvNotice_RemoveShortcut@gmToolbarUI@@MAEXK@Z
4BE5A0 ?RecvNotice_UseShortcut@gmToolbarUI@@MAEXJ@Z
4BE5C0 ?RecvNotice_ItemListBeginDrag@gmToolbarUI@@MAEXABVUIElement@@J@Z
4BE630 ?AddShortcut@gmToolbarUI@@IAEXKH_N@Z
4BE710 ??_GgmToolbarUI@@UAEPAXI@Z
4BE730 ?Register@gmToolbarUI@@SAXXZ
4BE750 ?CreateShortcutToItem@gmToolbarUI@@IAEXKH_N0@Z
4BE9E0 ?InitShortcutArray@gmToolbarUI@@IAEXXZ
4BF170 ?ListenToGlobalMessage@gmToolbarUI@@UAEXKJ@Z
4BF450 ?HandleDropRelease@gmToolbarUI@@IAEXABUUIElementMessageInfo@@@Z
4BF620 ?RecvNotice_AddShortcut@gmToolbarUI@@MAEXKJ@Z
4BF640 ?RecvNotice_FullMergingItem@gmToolbarUI@@MAEXKK@Z
4BF670 ?UpdateAmmoNumber@gmToolbarUI@@IAEXXZ
4BF710 ?PostInit@gmToolbarUI@@UAEXXZ
4BFB20 ?ListenToElementMessage@gmToolbarUI@@UAE?AW4UIElementMessageListenResult@@ABUUIElementMessageInfo@@@Z
4BFEA0 ?UpdateAmmoID@gmToolbarUI@@IAEXXZ
4BFF40 ?RecvNotice_ServerSaysMoveItem@gmToolbarUI@@MAEXKKKKKHKK@Z
4C0010 ?HandleSelectionChanged@gmToolbarUI@@IAEXXZ
4C04A0 ?UpdateFromPlayerDesc@gmToolbarUI@@IAEXXZ
4C0580 ?RecvNotice_ItemAttributesChanged@gmToolbarUI@@MAEXKK@Z
4C0600 ?RecvNotice_SelectionChanged@gmToolbarUI@@MAEXXZ
4C0610 ?RecvNotice_PlayerDescReceived@gmToolbarUI@@MAEXABVCACQualities@@ABVCPlayerModule@@@Z
4C0620 ??0gmIndicatorsUI@@QAE@ABVLayoutDesc@@ABVElementDesc@@@Z
4C0660 ?DynamicCast@gmIndicatorsUI@@UAEPAVUIElement@@K@Z
4C0680 ?GetDBOType@QuestDefDB@@UBEKXZ
4C0690 ??1gmIndicatorsUI@@UAE@XZ
4C06C0 ?Create@gmIndicatorsUI@@SAPAVUIElement@@ABVLayoutDesc@@ABVElementDesc@@@Z
4C0710 ?ListenToElementMessage@gmIndicatorsUI@@UAE?AW4UIElementMessageListenResult@@ABUUIElementMessageInfo@@@Z
4C0740 ??_GgmIndicatorsUI@@UAEPAXI@Z
4C0780 ?Register@gmIndicatorsUI@@SAXXZ
4C07A0 ??1gmVitalsUI@@UAE@XZ
4C0850 ?DynamicCast@gmVitalsUI@@UAEPAVUIElement@@K@Z
4C0870 ?GetDBOType@ExperienceTable@@UBEKXZ
4C0880 ?ListenToElementMessage@gmVitalsUI@@UAE?AW4UIElementMessageListenResult@@ABUUIElementMessageInfo@@@Z
4C08D0 ??0gmVitalsUI@@QAE@ABVLayoutDesc@@ABVElementDesc@@@Z
4C0940 ??_GgmVitalsUI@@UAEPAXI@Z
4C0960 ?PostInit@gmVitalsUI@@UAEXXZ
4C0A60 ?Create@gmVitalsUI@@SAPAVUIElement@@ABVLayoutDesc@@ABVElementDesc@@@Z
4C0A90 ?Register@gmVitalsUI@@SAXXZ
4C0AB0 ?Update@gmVitalsUI@@IAEXXZ
4C0E70 ?OnQualityChanged@gmVitalsUI@@UAEXPAVCWeenieObject@@W4StatType@@K@Z
4C0E80 ?RecvNotice_PlayerDescReceived@gmVitalsUI@@UAEXABVCACQualities@@ABVCPlayerModule@@@Z
4C0E90 ?GetShopVendorID@VendorSubUI@@IAEKXZ
4C0EA0 ?SendShopEvent@gmVendorUI@@IAEXKAAV?$PackableList@VItemProfile@@@@V?$IDClass@U_tagDataID@@$0CA@$0A@@@W4ShopEvent@@@Z
4C0F00 ?RecvNotice_SetSelectedItem@gmVendorUI@@MAEXKK@Z
4C0F40 ?RecvNotice_CloseVendor@gmVendorUI@@MAEX_N@Z
4C0F70 ?OnObjectRangeExit@gmVendorUI@@MAEXK@Z
4C0FA0 ?VendorItemSetSellState@gmVendorUI@@IAEXKH@Z
4C0FC0 ?DeleteItem@gmVendorUI@@QAEXPAVUIElement_ItemList@@KH@Z
4C1010 ?OpenTab@gmVendorUI@@QAEXK@Z
4C1030 ?UpdateDragOver@gmVendorUI@@IAEXXZ
4C10C0 ?CloseVendor@VendorBuyUI@@MAEXXZ
4C10D0 ?CloseVendor@VendorSellUI@@MAEXXZ
4C10E0 ??_G?$PackableHashIterator@V?$IDClass@U_tagDataID@@$0CA@$0A@@@J@@UAEPAXI@Z
4C1100 ?ListenToGlobalMessage@gmVendorUI@@UAEXKJ@Z
4C1110 ?SetObjectStackSize@VendorSubUI@@IAEXPAVACCWeenieObject@@J@Z
4C1150 ??0VendorItemsUI@@QAE@PAVgmVendorUI@@@Z
4C1210 ?CloseVendor@VendorItemsUI@@MAEXXZ
4C1240 ?AddTypeFilter@VendorItemsUI@@IAEXABVStringInfo@@K@Z
4C1310 ??0VendorBuyUI@@QAE@PAVgmVendorUI@@@Z
4C13D0 ??0VendorSellUI@@QAE@PAVgmVendorUI@@@Z
4C14C0 ?InsertHead@?$PackableList@VItemProfile@@@@QAEXABVItemProfile@@@Z
4C1520 ?InsertTail@?$PackableList@VItemProfile@@@@QAEKABVItemProfile@@@Z
4C1590 ?PostInit@gmVendorUI@@UAEXXZ
4C16E0 ??4VendorProfile@@QAEAAV0@ABV0@@Z
4C1760 ?ShopHasItem@gmVendorUI@@IAE_NV?$IDClass@U_tagDataID@@$0CA@$0A@@@AAJAAK@Z
4C17C0 ?FlushSellListSellState@gmVendorUI@@IAEXAAV?$PackableList@VItemProfile@@@@@Z
4C1800 ?InqListSlotCount@gmVendorUI@@IAEXAAV?$PackableList@VItemProfile@@@@AAK1@Z
4C18B0 ?UpdateQuantityOverlay@VendorItemsUI@@IAEXXZ
4C1980 ?ListContainsType@VendorItemsUI@@IAE_NPAV?$PackableList@VItemProfile@@@@H@Z
4C1A00 ?UpdateBuyUI@VendorBuyUI@@IAEXXZ
4C1A90 ?HandleSetSelectedItem@VendorBuyUI@@MAEXKK@Z
4C1AB0 ?UpdateSellUI@VendorSellUI@@IAEXXZ
4C1B40 ?HandleSetSelectedItem@VendorSellUI@@MAEXKK@Z
4C1B60 ?RemoveTail@?$PackableList@VItemProfile@@@@QAEHAAVItemProfile@@@Z
4C1BC0 ?Remove@?$PackableList@VItemProfile@@@@QAEHAAVItemProfile@@@Z
4C1CA0 ?Flush@?$PackableList@VItemProfile@@@@QAEXXZ
4C1D10 ?UnPack@?$PackableList@VItemProfile@@@@UAEHAAPAXI@Z
4C1DA0 ?_QueryInterface@?$InterfacePtr@VClientObjMaintSystem@@@@AAE?AVTResult@@V?$InterfacePtr@VInterface@@@@@Z
4C1E50 ?RemoveProfileFromList@gmVendorUI@@QAE_NAAV?$PackableList@VItemProfile@@@@KJ@Z
4C1F00 ?RecordContents@gmVendorUI@@QAE_NPAVUIElement_ItemList@@AAV?$PackableList@VItemProfile@@@@HH@Z
4C20A0 ?AddItem@gmVendorUI@@QAEHPAVUIElement_ItemList@@KHHHHHJ@Z
4C22C0 ?OpenVendor@VendorItemsUI@@MAEX_N@Z
4C2A90 ?UpdateItemsList@VendorItemsUI@@IAEXJ_N@Z
4C2CB0 ?DragItemAcceptable@VendorSellUI@@IAE_NK_N@Z
4C2EF0 ?OnItemListDragOver@VendorSellUI@@MAE_NPAVUIElement_UIItem@@KKW4DropItemFlags@@@Z
4C2F30 ??4?$PackableList@VItemProfile@@@@QAEAAV0@ABV0@@Z
4C2FA0 ??_G?$PackableList@VItemProfile@@@@UAEPAXI@Z
4C2FD0 ??0?$InterfacePtr@VClientObjMaintSystem@@@@QAE@ABV?$InterfacePtr@VInterface@@@@@Z
4C3010 ?AddTextToScroll@ClientSystem@@QAEXABV?$PStringBase@D@@K_NK@Z
4C3060 ??0gmVendorUI@@QAE@ABVLayoutDesc@@ABVElementDesc@@@Z
4C3130 ?DynamicCast@gmVendorUI@@UAEPAVUIElement@@K@Z
4C3150 ?GetUIElementType@gmVendorUI@@UBEKXZ
4C3160 ??1gmVendorUI@@UAE@XZ
4C3290 ?Create@gmVendorUI@@SAPAVUIElement@@ABVLayoutDesc@@ABVElementDesc@@@Z
4C32C0 ?ResetShopState@gmVendorUI@@IAEX_N@Z
4C3410 ?BuySingleItem@gmVendorUI@@IAE_NK@Z
4C3730 ?SellSingleItem@gmVendorUI@@IAE_NK@Z
4C38F0 ?AdoptAsContents@gmVendorUI@@QAEXPAVUIElement_ItemList@@AAV?$PackableList@VItemProfile@@@@_N@Z
4C3A80 ?AddMissingComp@gmVendorUI@@IAEXV?$IDClass@U_tagDataID@@$0CA@$0A@@@AAV?$PStringBase@D@@@Z
4C3BA0 ?OpenVendor@VendorSellUI@@MAEX_N@Z
4C3BD0 ??_GgmVendorUI@@UAEPAXI@Z
4C3BF0 ?Register@gmVendorUI@@SAXXZ
4C3C10 ?CloseVendor@gmVendorUI@@IAEX_N@Z
4C3C70 ?CloseVendorDialogCallback@gmVendorUI@@KAXABVPropertyCollection@@@Z
4C3D40 ?UpdateTransactionValue@VendorBuyUI@@IAEXXZ
4C3FC0 ?UpdateTotalValue@VendorBuyUI@@IAEXXZ
4C41A0 ?UpdateTransactionValue@VendorSellUI@@IAEXXZ
4C4340 ?UpdateTotalValue@VendorSellUI@@IAEXXZ
4C4410 ?OnVisibilityChanged@gmVendorUI@@MAEX_N@Z
4C44D0 ?UpdateItemsUI@VendorItemsUI@@IAEXXZ
4C48D0 ?RemoveFromShop@VendorItemsUI@@IAEXPAVACCWeenieObject@@J@Z
4C49B0 ?AddToBuyList@VendorItemsUI@@IAEXPAVACCWeenieObject@@J@Z
4C4B60 ?Update@VendorBuyUI@@IAEXXZ
4C4B90 ?Update@VendorSellUI@@IAEXXZ
4C4BC0 ?ItemAttributesChanged@VendorSellUI@@IAEXKH@Z
4C4CC0 ?HandleMousePresses@gmVendorUI@@IAEXABUUIElementMessageInfo@@@Z
4C4F70 ?RecvNotice_ItemListBeginDrag@gmVendorUI@@MAEXABVUIElement@@J@Z
4C5090 ?RecvNotice_ServerSaysMoveItem@gmVendorUI@@MAEXKKKKKHKK@Z
4C50E0 ?RecvNotice_ItemAttributesChanged@gmVendorUI@@MAEXKK@Z
4C50F0 ?RecvNotice_StackSliderChanged@gmVendorUI@@MAEXKK@Z
4C5130 ?FillComponentList@gmVendorUI@@IAEXW4SpellComponentCategory@@J@Z
4C54D0 ?UpdateTotalValue@gmVendorUI@@QAEXXZ
4C55A0 ?HandleSetSelectedItem@VendorItemsUI@@MAEXKK@Z
4C55C0 ?OpenVendor@VendorBuyUI@@MAEX_N@Z
4C5610 ?AddItemToSell@VendorSellUI@@IAEXK@Z
4C56B0 ?RecvNotice_AddItemToSell@gmVendorUI@@MAEXK@Z
4C56C0 ?RecvNotice_FillComponentBuyList@gmVendorUI@@MAEXW4SpellComponentCategory@@J@Z
4C56D0 ?OnQualityChanged@gmVendorUI@@MAEXPAVCWeenieObject@@W4StatType@@K@Z
4C5750 ?OnQualityRemoved@gmVendorUI@@MAEXPAVCWeenieObject@@W4StatType@@K@Z
4C5790 ?OpenVendor@gmVendorUI@@IAEXKABVVendorProfile@@ABV?$PackableList@VItemProfile@@@@W4ShopMode@@@Z
4C5AF0 ?AcceptDragObject@VendorSellUI@@IAE_NK@Z
4C5CC0 ?HandleButtonClicks@gmVendorUI@@IAEXK@Z
4C6270 ?HandleDropRelease@gmVendorUI@@IAEXABUUIElementMessageInfo@@@Z
4C62E0 ?RecvNotice_OpenVendor@gmVendorUI@@MAEXKABVVendorProfile@@ABV?$PackableList@VItemProfile@@@@W4ShopMode@@@Z
4C62F0 ?ListenToElementMessage@gmVendorUI@@UAE?AW4UIElementMessageListenResult@@ABUUIElementMessageInfo@@@Z
4C6400 ?GetNextTabID@gmSpellcastingUI@@IAEKK@Z
4C6480 ?GetPrevTabID@gmSpellcastingUI@@IAEKK@Z
4C6500 ?GetOpenSubMenuIndex@gmSpellcastingUI@@QAEHXZ
4C6580 ?OnItemListDragOver@SpellCastSubMenu@@MAE_NPAVUIElement_UIItem@@KKW4DropItemFlags@@@Z
4C65A0 ?DeleteContents@?$NIList@K@@QAEXXZ
4C65E0 ??1gmSpellcastingUI@@UAE@XZ
4C6650 ?DynamicCast@gmSpellcastingUI@@UAEPAVUIElement@@K@Z
4C6670 ?GetUIElementType@gmSpellcastingUI@@UBEKXZ
4C6680 ?Init@SpellCastSubMenu@@QAEXPAVUIElement@@KKH@Z
4C66F0 ?SetSelected@SpellCastSubMenu@@IAEXK@Z
4C6780 ?SelectSpellFromIndex@SpellCastSubMenu@@IAE_NH@Z
4C67D0 ?UpdateShortcutOverlays@SpellCastSubMenu@@IAEXXZ
4C6830 ??0gmSpellcastingUI@@QAE@ABVLayoutDesc@@ABVElementDesc@@@Z
4C68D0 ??_EgmSpellcastingUI@@UAEPAXI@Z
4C68F0 ?PostInit@gmSpellcastingUI@@UAEXXZ
4C6BF0 ?Create@gmSpellcastingUI@@SAPAVUIElement@@ABVLayoutDesc@@ABVElementDesc@@@Z
4C6C20 ?Register@gmSpellcastingUI@@SAXXZ
4C6C40 ?Cast@gmSpellcastingUI@@IAEXXZ
4C6D10 ?UpdateEndowmentIcon@gmSpellcastingUI@@IAEXXZ
4C6FF0 ?RecvNotice_CastCurrentSpell@gmSpellcastingUI@@MAEXXZ
4C7000 ?RemoveSpellFromPlayerModule@SpellCastSubMenu@@IAEXK@Z
4C70B0 ?AddSpellToPlayerModule@SpellCastSubMenu@@IAEXKK@Z
4C7160 ?UpdateFromPlayerModule@SpellCastSubMenu@@IAEXXZ
4C74E0 ?RemoveSpellFromMenu@SpellCastSubMenu@@IAEHK@Z
4C7590 ?RecvNotice_PlayerDescReceived@gmSpellcastingUI@@MAEXABVCACQualities@@ABVCPlayerModule@@@Z
4C75C0 ?RecvNotice_RemoveSpellShortcut@gmSpellcastingUI@@MAEXK@Z
4C75F0 ?RecvNotice_SpellRemoved@gmSpellcastingUI@@MAEXK@Z
4C7620 ?UpdateCastButtonTooltip@gmSpellcastingUI@@IAEXXZ
4C7C50 ?AddFavorite@SpellCastSubMenu@@IAEXKH_N@Z
4C7E60 ?RecvNotice_SelectionChanged@gmSpellcastingUI@@MAEXXZ
4C7E70 ?RecvNotice_SetCombatMode@gmSpellcastingUI@@MAEXW4COMBAT_MODE@@@Z
4C7EC0 ?RecvNotice_ServerSaysMoveItem@gmSpellcastingUI@@MAEXKKKKKHKK@Z
4C7F10 ?AddSpellShortcut@gmSpellcastingUI@@IAEXKH_N@Z
4C7F50 ?RecvNotice_ItemListBeginDrag@gmSpellcastingUI@@MAEXABVUIElement@@J@Z
4C7FD0 ?RecvNotice_NextSpellTab@gmSpellcastingUI@@MAEXXZ
4C8010 ?RecvNotice_PrevSpellTab@gmSpellcastingUI@@MAEXXZ
4C8050 ?RecvNotice_NextSpellSelection@gmSpellcastingUI@@MAEXXZ
4C81C0 ?RecvNotice_PrevSpellSelection@gmSpellcastingUI@@MAEXXZ
4C8330 ?RecvNotice_FirstSpellTab@gmSpellcastingUI@@MAEXXZ
4C8360 ?RecvNotice_LastSpellTab@gmSpellcastingUI@@MAEXXZ
4C8390 ?RecvNotice_FirstSpellSelection@gmSpellcastingUI@@MAEXXZ
4C8410 ?RecvNotice_LastSpellSelection@gmSpellcastingUI@@MAEXXZ
4C84A0 ?RecvNotice_CastQuickslotSpell@gmSpellcastingUI@@MAEXJ@Z
4C8520 ?HandleDropRelease@gmSpellcastingUI@@IAEXABUUIElementMessageInfo@@@Z
4C8660 ?RecvNotice_AddSpellShortcut@gmSpellcastingUI@@MAEXK@Z
4C86A0 ?ListenToElementMessage@gmSpellcastingUI@@MAE?AW4UIElementMessageListenResult@@ABUUIElementMessageInfo@@@Z
4C8860 ?OnVisibilityChanged@gmSlumlordUI@@MAEX_N@Z
4C88A0 ?OnObjectRangeExit@gmSlumlordUI@@MAEXK@Z
4C88D0 ?BackupHouseProfile@gmSlumlordUI@@IAE_NXZ
4C8BD0 ?UpdateButtons@gmSlumlordUI@@IAEXXZ
4C8C70 ?CleanItemLists@gmSlumlordUI@@IAEXXZ
4C90C0 ?Register@gmSlumlordUI@@SAXXZ
4C9670 ?HandleDropRelease@gmSlumlordUI@@IAEXABUUIElementMessageInfo@@@Z
4C9CA0 ?MakeBuyHouseConfirmationDialog@gmSlumlordUI@@IAE_NXZ
4C9EA0 ?MakeRentPaymentByProxyConfirmationDialog@gmSlumlordUI@@IAE_NXZ
4CA0A0 ?ListenToElementMessage@gmSlumlordUI@@UAE?AW4UIElementMessageListenResult@@ABUUIElementMessageInfo@@@Z
4CA240 ??1gmSecureTradeUI@@UAE@XZ
4CA2C0 ?DynamicCast@gmSecureTradeUI@@UAEPAVUIElement@@K@Z
4CA2E0 ?GetUIElementType@gmSecureTradeUI@@UBEKXZ
4CA2F0 ?UpdateTradeButtonState@gmSecureTradeUI@@IAEXXZ
4CA390 ?IsValid@?$InterfacePtr@VPlayerDesc@@@@QBE_NXZ
4CA3B0 ??0gmSecureTradeUI@@QAE@ABVLayoutDesc@@ABVElementDesc@@@Z
4CA460 ??_EgmSecureTradeUI@@UAEPAXI@Z
4CA480 ?Create@gmSecureTradeUI@@SAPAVUIElement@@ABVLayoutDesc@@ABVElementDesc@@@Z
4CA4B0 ?RecvNotice_ServerSaysAttemptFailed@gmSecureTradeUI@@MAEXK@Z
4CA4C0 ?SetMyItemNumber@gmSecureTradeUI@@IAEXXZ
4CA560 ?SetOtherItemNumber@gmSecureTradeUI@@IAEXXZ
4CA600 ?AcceptTheTrade@gmSecureTradeUI@@IAEXXZ
4CA680 ?DeclineTheTrade@gmSecureTradeUI@@IAEXXZ
4CA6B0 ?FlushTradeLists@gmSecureTradeUI@@IAEXXZ
4CA7D0 ?RemoveItem@gmSecureTradeUI@@IAEXPAVACCWeenieObject@@@Z
4CA8B0 ?Register@gmSecureTradeUI@@SAXXZ
4CA8D0 ?RecvNotice_AcceptTrade@gmSecureTradeUI@@MAEXK@Z
4CA960 ?RecvNotice_DeclineTrade@gmSecureTradeUI@@MAEXK@Z
4CA9C0 ?SetTradePartner@gmSecureTradeUI@@IAEXK@Z
4CAA70 ?AddMyItem@gmSecureTradeUI@@IAE_NKK@Z
4CAB20 ?AddPartnerItem@gmSecureTradeUI@@IAE_NKK@Z
4CABB0 ?RemoveAddedItem@gmSecureTradeUI@@IAE_NK@Z
4CAC50 ?RemovePartnerItem@gmSecureTradeUI@@IAE_NK@Z
4CACF0 ?Reset@gmSecureTradeUI@@IAEXXZ
4CAD50 ?PostInit@gmSecureTradeUI@@UAEXXZ
4CB060 ?OnVisibilityChanged@gmSecureTradeUI@@MAEX_N@Z
4CB0B0 ?OnObjectRangeExit@gmSecureTradeUI@@MAEXK@Z
4CB0F0 ?RecvNotice_AddItemToTrade@gmSecureTradeUI@@MAEXKKK@Z
4CB130 ?RecvNotice_ClearTradeAcceptance@gmSecureTradeUI@@MAEXXZ
4CB140 ?RecvNotice_CloseTrade@gmSecureTradeUI@@MAEXK@Z
4CB1B0 ?RecvNotice_RegisterTrade@gmSecureTradeUI@@MAEXKKN@Z
4CB220 ?RecvNotice_RemoveItemFromTrade@gmSecureTradeUI@@MAEXKK@Z
4CB260 ?RecvNotice_ResetTrade@gmSecureTradeUI@@MAEXK@Z
4CB270 ?RecvNotice_TradeFailure@gmSecureTradeUI@@MAEXKK@Z
4CB290 ?DragItemAcceptable@gmSecureTradeUI@@IAE_NK_N@Z
4CB370 ?AddItem@gmSecureTradeUI@@IAEHKH_N00@Z
4CB570 ?OnItemListDragOver@gmSecureTradeUI@@MAE_NPAVUIElement_UIItem@@KKW4DropItemFlags@@@Z
4CB5C0 ?ItemAttributesChanged@gmSecureTradeUI@@IAEXKH@Z
4CB630 ?AcceptDragObject@gmSecureTradeUI@@IAE_NK@Z
4CB810 ?ServerSaysMoveItem@gmSecureTradeUI@@IAEXKKKKKHKK@Z
4CB920 ?RecvNotice_ServerSaysMoveItem@gmSecureTradeUI@@MAEXKKKKKHKK@Z
4CB930 ?RecvNotice_ItemAttributesChanged@gmSecureTradeUI@@MAEXKK@Z
4CB940 ?TradeAnItemForDummies@gmSecureTradeUI@@IAE_NK@Z
4CBA00 ?HandleDropRelease@gmSecureTradeUI@@IAEXABUUIElementMessageInfo@@@Z
4CBA70 ?ListenToElementMessage@gmSecureTradeUI@@UAE?AW4UIElementMessageListenResult@@ABUUIElementMessageInfo@@@Z
4CBB20 ?RecvNotice_TradeAnItemForDummies@gmSecureTradeUI@@MAEXK@Z
4CBB30 ??1gmSalvageUI@@UAE@XZ
4CBB90 ?DynamicCast@gmSalvageUI@@UAEPAVUIElement@@K@Z
4CBBB0 ?GetUIElementType@gmSalvageUI@@UBEKXZ
4CBBC0 ?RemoveItem@gmSalvageUI@@IAEXK@Z
4CBC30 ?IsItemSuitable@gmSalvageUI@@IAE_NPAVACCWeenieObject@@@Z
4CBCA0 ??0gmSalvageUI@@QAE@ABVLayoutDesc@@ABVElementDesc@@@Z
4CBD10 ??_EgmSalvageUI@@UAEPAXI@Z
4CBD30 ?PostInit@gmSalvageUI@@UAEXXZ
4CBDD0 ?Create@gmSalvageUI@@SAPAVUIElement@@ABVLayoutDesc@@ABVElementDesc@@@Z
4CBE00 ?RecvNotice_RemoveSalvageItem@gmSalvageUI@@MAEXK@Z
4CBE10 ?RecvNotice_ItemListBeginDrag@gmSalvageUI@@MAEXABVUIElement@@J@Z
4CBE60 ?ClearAllTradeStates@gmSalvageUI@@IAEXPAVUIElement_ItemList@@@Z
4CBEC0 ?_AddItem@gmSalvageUI@@IAE_NPAVACCWeenieObject@@@Z
4CBF50 ?Register@gmSalvageUI@@SAXXZ
4CBF70 ?OpenSalvagePanel@gmSalvageUI@@IAEXK@Z
4CBFD0 ?CloseSalvagePanel@gmSalvageUI@@IAEXXZ
4CC020 ?AddNewItem@gmSalvageUI@@IAE_NK@Z
4CC060 ?OnVisibilityChanged@gmSalvageUI@@MAEX_N@Z
4CC090 ?RecvNotice_OpenSalvagePanel@gmSalvageUI@@MAEXK@Z
4CC0A0 ?RecvNotice_AddSalvageItem@gmSalvageUI@@MAEXK@Z
4CC0E0 ?_AddContainedItems@gmSalvageUI@@IAE_NPAVACCWeenieObject@@@Z
4CC240 ?DragItemAcceptable@gmSalvageUI@@IAE_NK_N@Z
4CC330 ?OnItemListDragOver@gmSalvageUI@@MAE_NPAVUIElement_UIItem@@KKW4DropItemFlags@@@Z
4CC380 ?AcceptDragObject@gmSalvageUI@@IAE_NK@Z
4CC3C0 ?HandleDropRelease@gmSalvageUI@@IAEXABUUIElementMessageInfo@@@Z
4CC430 ?Salvage@gmSalvageUI@@IAE_NXZ
4CC540 ?ListenToElementMessage@gmSalvageUI@@UAE?AW4UIElementMessageListenResult@@ABUUIElementMessageInfo@@@Z
4CC610 ??1gmExternalContainerUI@@UAE@XZ
4CC690 ?DynamicCast@gmExternalContainerUI@@UAEPAVUIElement@@K@Z
4CC6B0 ?GetUIElementType@gmExternalContainerUI@@UBEKXZ
4CC6C0 ?ListenToElementMessage@gmExternalContainerUI@@UAE?AW4UIElementMessageListenResult@@ABUUIElementMessageInfo@@@Z
4CC6F0 ?RecvNotice_StopViewingObject@gmExternalContainerUI@@MAEXK@Z
4CC720 ?RecvNotice_ServerSaysMoveItem@gmExternalContainerUI@@MAEXKKKKKHKK@Z
4CC750 ?DragItemAcceptable@gmExternalContainerUI@@IAE_NK_N@Z
4CC7C0 ?SetGroundObject@gmExternalContainerUI@@IAEXK@Z
4CC8A0 ?CloseCurrentContainer@gmExternalContainerUI@@IAEXXZ
4CC900 ?OnObjectRangeExit@gmExternalContainerUI@@MAEXK@Z
4CC930 ??0gmExternalContainerUI@@QAE@ABVLayoutDesc@@ABVElementDesc@@@Z
4CC9B0 ??_GgmExternalContainerUI@@UAEPAXI@Z
4CC9D0 ?PostInit@gmExternalContainerUI@@UAEXXZ
4CCB10 ?Create@gmExternalContainerUI@@SAPAVUIElement@@ABVLayoutDesc@@ABVElementDesc@@@Z
4CCB40 ?OnVisibilityChanged@gmExternalContainerUI@@MAEX_N@Z
4CCB70 ?OnItemListDragOver@gmExternalContainerUI@@MAE_NPAVUIElement_UIItem@@KKW4DropItemFlags@@@Z
4CCBC0 ?RecvNotice_SetGroundObject@gmExternalContainerUI@@MAEXK@Z
4CCBD0 ?Register@gmExternalContainerUI@@SAXXZ
4CCBF0 ?DynamicCast@gmCombatUI@@UAEPAVUIElement@@K@Z
4CCC10 ?GetDBOType@ACQualityFilter@@UBEKXZ
4CCC20 ?Create@gmCombatUI@@SAPAVUIElement@@ABVLayoutDesc@@ABVElementDesc@@@Z
4CCC70 ?RecvNotice_AttackHeightChanged@gmCombatUI@@MAEXW4ATTACK_HEIGHT@@@Z
4CCCD0 ?RecvNotice_SetPowerbarLevel@gmCombatUI@@MAEXW4PowerBarMode@@M@Z
4CCD00 ?RecvNotice_DesiredAttackPowerChanged@gmCombatUI@@MAEXM@Z
4CCD30 ??_GgmCombatUI@@UAEPAXI@Z
4CCD90 ?PostInit@gmCombatUI@@UAEXXZ
4CD000 ?Register@gmCombatUI@@SAXXZ
4CD020 ?ListenToElementMessage@gmCombatUI@@UAE?AW4UIElementMessageListenResult@@ABUUIElementMessageInfo@@@Z
4CD210 ?RecvNotice_SetCombatMode@gmCombatUI@@MAEXW4COMBAT_MODE@@@Z
4CD350 ?RecvNotice_SetPanelVisibility@gmEnvPanelUI@@MAEXK_N@Z
4CD4C0 ?Reset@?$SmartArray@UPanelChildInfo@gmCombatPanelUI@@$00@@QAEXXZ
4CD540 ??0gmEnvPanelUI@@QAE@ABVLayoutDesc@@ABVElementDesc@@@Z
4CD5A0 ?DynamicCast@gmEnvPanelUI@@UAEPAVUIElement@@K@Z
4CD5C0 ?GetUIElementType@gmEnvPanelUI@@UBEKXZ
4CD5D0 ?Create@gmEnvPanelUI@@SAPAVUIElement@@ABVLayoutDesc@@ABVElementDesc@@@Z
4CD600 ??1gmEnvPanelUI@@UAE@XZ
4CD670 ?Register@gmEnvPanelUI@@SAXXZ
4CD690 ??_GgmEnvPanelUI@@UAEPAXI@Z
4CD6B0 ?SetupChildren@gmEnvPanelUI@@IAEXXZ
4CD7F0 ?PostInit@gmEnvPanelUI@@UAEXXZ
4CD850 ?DynamicCast@gmAdminQualitiesUI@@UAEPAVUIElement@@K@Z
4CD870 ?GetUIElementType@gmAdminQualitiesUI@@UBEKXZ
4CD880 ?Create@gmAdminQualitiesUI@@SAPAVUIElement@@ABVLayoutDesc@@ABVElementDesc@@@Z
4CD8D0 ??_EgmAdminQualitiesUI@@UAEPAXI@Z
4CD910 ?Register@gmAdminQualitiesUI@@SAXXZ
4CD930 ?MoveTo@gmMainChatUI@@UAEXJJ@Z
4CD9F0 ?RecvNotice_SetPanelVisibility@gmMainChatUI@@MAEXK_N@Z
4CDA80 ?RecvNotice_TextTag_IIDStringClick@gmMainChatUI@@MAEXKKABV?$PStringBase@G@@@Z
4CDAB0 ?RecvNotice_StartTell@gmMainChatUI@@MAEXABV?$PStringBase@G@@@Z
4CDAC0 ?HandleMaximizeButton@gmMainChatUI@@IAEXXZ
4CDD10 ?ResizeTo@gmMainChatUI@@UAEXJJ@Z
4CDD60 ??0gmMainChatUI@@QAE@ABVLayoutDesc@@ABVElementDesc@@@Z
4CDDD0 ?DynamicCast@gmMainChatUI@@UAEPAVUIElement@@K@Z
4CDE00 ?GetUIElementType@gmMainChatUI@@UBEKXZ
4CDE10 ??1gmMainChatUI@@UAE@XZ
4CDE70 ?Create@gmMainChatUI@@SAPAVUIElement@@ABVLayoutDesc@@ABVElementDesc@@@Z
4CDEA0 ?ToggleSquelchOnCurrentSpeakableTarget@gmMainChatUI@@IAEXXZ
4CDF90 ??_EgmMainChatUI@@UAEPAXI@Z
4CDFC0 ?Register@gmMainChatUI@@SAXXZ
4CDFE0 ?GetTalkFocusMenuItem@gmMainChatUI@@IAEPAVUIElement_Text@@K@Z
4CE050 ?IsOlthoi@@YAHXZ
4CE110 ?ResetAllTalkFocusMenuButtons@gmMainChatUI@@IAEXXZ
4CE1B0 ?HandleSelection@gmMainChatUI@@IAEXK@Z
4CE3A0 ?SetSelected@gmMainChatUI@@IAEXK@Z
4CE6B0 ?push_back@?$SmartArray@PAVUIElement_Text@@$00@@QAEXABQAVUIElement_Text@@@Z
4CE6F0 ?ListenToElementMessage@gmMainChatUI@@MAE?AW4UIElementMessageListenResult@@ABUUIElementMessageInfo@@@Z
4CE790 ?UseTime@gmMainChatUI@@IAEXXZ
4CE8C0 ?InitTalkFocusMenu@gmMainChatUI@@IAEXXZ
4CECC0 ?RecvNotice_SelectionChanged@gmMainChatUI@@MAEXXZ
4CED10 ?EnableSelection@gmMainChatUI@@IAEXK_N@Z
4CEDA0 ?PostInit@gmMainChatUI@@UAEXXZ
4CEE90 ?ListenToGlobalMessage@gmMainChatUI@@MAEXKJ@Z
4CEEE0 ?RecvNotice_EnableChatTargetSelection@gmMainChatUI@@MAEXK_N@Z
4CEEF0 ?DynamicCast@gmFloatyChatUI@@UAEPAVUIElement@@K@Z
4CF040 ?Register@gmFloatyChatUI@@SAXXZ
4CF930 j_?ListenToElementMessage@gmVitalsUI@@UAE?AW4UIElementMessageListenResult@@ABUUIElementMessageInfo@@@Z
4CF940 j_UIElement::OnChildAction
4CF950 j_UIElement::SetVisible
4CF9A0 ?Register@gmFloatyVitalsUI@@SAXXZ
4D0450 ?Register@gmFloatyToolbarUI@@SAXXZ
4D1240 ?Register@gmFloatySideVitalsUI@@SAXXZ
4D1D10 ?Register@gmFloatyPowerBarUI@@SAXXZ
4D2800 j_?ListenToElementMessage@gmPanelUI@@UAE?AW4UIElementMessageListenResult@@ABUUIElementMessageInfo@@@Z
4D2840 ?Register@gmFloatyPanelUI@@SAXXZ
4D2FE0 j_?ListenToElementMessage@gmMainChatUI@@MAE?AW4UIElementMessageListenResult@@ABUUIElementMessageInfo@@@Z
4D2FF0 j_?OnChildAction@ChatInterface@@MAE_NABVUIElement@@ABVInputEvent@@@Z
4D3280 ?Register@gmFloatyMainChatUI@@SAXXZ
4D3E20 ?Register@gmFloatyIndicatorsUI@@SAXXZ
4D4920 j_gmExaminationUI::OnChildAction
4D4B30 ?Register@gmFloatyExaminationUI@@SAXXZ
4D5510 j_gmCombatPanelUI::ListenToElementMessage
4D5720 ?Register@gmFloatyEnvPanelUI@@SAXXZ
4D5D10 ?Register@gmFloatyCombatPanelUI@@SAXXZ
4D6A30 ?Register@gmSpewBoxUI@@SAXXZ
4D6F10 j_?ListenToElementMessage@UIElement_SmartBoxWrapper@@MAE?AW4UIElementMessageListenResult@@ABUUIElementMessageInfo@@@Z
4D7000 ?UpdateFPSMeter@gmSmartBoxUI@@IAEXXZ
4D70A0 ?UpdateLockedStatus@gmSmartBoxUI@@IAEXXZ
4D71E0 ?Register@gmSmartBoxUI@@SAXXZ
4D7A90 ?UseTime@gmSmartBoxUI@@IAEXXZ
4D8140 ?ListenToGlobalMessage@gmSmartBoxUI@@UAEXKJ@Z
4D8190 ??0RadarInfo@@QAE@PAVACCWeenieObject@@@Z
4D81D0 ??0RadarInfo@@QAE@XZ
4D8210 ?ListenToElementMessage@gmRadarUI@@MAE?AW4UIElementMessageListenResult@@ABUUIElementMessageInfo@@@Z
4D82E0 ?UpdateLockedStatus@gmRadarUI@@IAEXXZ
4D8350 ?GetBlipColor@gmRadarUI@@KA?AVRGBAColor@@PAVACCWeenieObject@@@Z
4D87C0 ?GetBlipShape@gmRadarUI@@IAE?AW4RadarBlipShape@@PAVACCWeenieObject@@@Z
4D8890 ?DrawPoint@gmRadarUI@@IBEXPAVUISurface@@ABVRGBAColor@@JJ@Z
4D88D0 ?DrawEdges@gmRadarUI@@IBEXPAVUISurface@@ABVRGBAColor@@JJ@Z
4D8980 ?DrawCorners@gmRadarUI@@IBEXPAVUISurface@@ABVRGBAColor@@JJ@Z
4D8A40 ?DrawCross@gmRadarUI@@IBEXPAVUISurface@@ABVRGBAColor@@JJ@Z
4D8A90 ?DrawX@gmRadarUI@@IBEXPAVUISurface@@ABVRGBAColor@@JJ@Z
4D8AE0 ?DrawTriangle@gmRadarUI@@IBEXPAVUISurface@@ABVRGBAColor@@JJ@Z
4D8B90 ?DrawInvertedTriangle@gmRadarUI@@IBEXPAVUISurface@@ABVRGBAColor@@JJ@Z
4D8C40 ?DrawSelected@gmRadarUI@@IBEXPAVUISurface@@ABVRGBAColor@@JJ@Z
4D8D00 ?Next@?$HashBaseIter@K@@QAEXXZ
4D8D50 ?RemoveUnOrdered@?$SmartArray@URadarInfo@@$00@@QAE_NABURadarInfo@@@Z
4D8E00 ?MoveTo@gmRadarUI@@UAEXJJ@Z
4D8FF0 ?RemoveObject@gmRadarUI@@IAEXPAVACCWeenieObject@@@Z
4D9070 ?GetBlipColor@gmRadarUI@@SA?AVRGBAColor@@K@Z
4D9090 ?DrawHollow@gmRadarUI@@IBEXPAVUISurface@@ABVRGBAColor@@JJ@Z
4D90D0 ?DrawXBox@gmRadarUI@@IBEXPAVUISurface@@ABVRGBAColor@@JJ@Z
4D91A0 ?UpdateFromPlayerModule@gmRadarUI@@MAEXXZ
4D9290 ?Reset@?$SmartArray@URadarInfo@@$00@@QAEXXZ
4D9340 ?grow@?$SmartArray@URadarInfo@@$00@@QAE_NK@Z
4D9400 ??0gmRadarUI@@QAE@ABVLayoutDesc@@ABVElementDesc@@@Z
4D9510 ?DynamicCast@gmRadarUI@@UAEPAVUIElement@@K@Z
4D9530 ?GetDBOType@CContractTable@@UBEKXZ
4D9540 ??1gmRadarUI@@UAE@XZ
4D95D0 ?Create@gmRadarUI@@SAPAVUIElement@@ABVLayoutDesc@@ABVElementDesc@@@Z
4D9600 ?RecvNotice_BeingDeleted@gmRadarUI@@MAEXAAVCWeenieObject@@@Z
4D9610 ?UpdateRadarLook@gmRadarUI@@IAEXPAVACCWeenieObject@@@Z
4D9690 ?DrawBlip@gmRadarUI@@IBEXPAVUISurface@@ABURadarInfo@@MJJ_N@Z
4D97C0 ??_GgmRadarUI@@UAEPAXI@Z
4D97E0 ?Register@gmRadarUI@@SAXXZ
4D9800 ?RecvNotice_ChangeRadarLook@gmRadarUI@@MAEXAAVCWeenieObject@@@Z
4D9810 ?OnQualityChanged@gmRadarUI@@MAEXPAVCWeenieObject@@W4StatType@@K@Z
4D98C0 ?OnQualityRemoved@gmRadarUI@@MAEXPAVCWeenieObject@@W4StatType@@K@Z
4D98E0 ?UpdateCoordinates@gmRadarUI@@IAEXXZ
4D9C60 ?AddToEnd@?$SmartArray@URadarInfo@@$00@@QAE_NABURadarInfo@@@Z
4D9CC0 ?UpdateCompassTokens@gmRadarUI@@IAEXXZ
4D9FE0 ?DrawObjects@gmRadarUI@@IAEXPAVUISurface@@@Z
4DA380 ?DrawChildren@gmRadarUI@@MAEXABVBox2D@@0ABV?$SmartArray@VBox2D@@$00@@PAVUISurface@@@Z
4DA500 ?UseTime@gmRadarUI@@IAEXXZ
4DA600 ?add_unique@?$SmartArray@URadarInfo@@$00@@QAE_NABURadarInfo@@@Z
4DA640 ?ListenToGlobalMessage@gmRadarUI@@MAEXKJ@Z
4DA660 ?AddObject@gmRadarUI@@IAEXPAVACCWeenieObject@@@Z
4DA7C0 ?RecvNotice_CreateObject@gmRadarUI@@MAEXK@Z
4DA7F0 ?Init@gmRadarUI@@IAEXXZ
4DA990 ?PostInit@gmRadarUI@@UAEXXZ
4DAFE0 ?RecvNotice_PlayerDescReceived@gmRadarUI@@MAEXABVCACQualities@@ABVCPlayerModule@@@Z
4DB000 ??0gmPowerbarUI@@QAE@ABVLayoutDesc@@ABVElementDesc@@@Z
4DB040 ?DynamicCast@gmPowerbarUI@@UAEPAVUIElement@@K@Z
4DB060 ?GetUIElementType@gmPowerbarUI@@UBEKXZ
4DB070 ??1gmPowerbarUI@@UAE@XZ
4DB0A0 ?Create@gmPowerbarUI@@SAPAVUIElement@@ABVLayoutDesc@@ABVElementDesc@@@Z
4DB100 ??_EgmPowerbarUI@@UAEPAXI@Z
4DB140 ?PostInit@gmPowerbarUI@@UAEXXZ
4DB190 ?Register@gmPowerbarUI@@SAXXZ
4DB1B0 ?RecvNotice_SetPowerbarLevel@gmPowerbarUI@@UAEXW4PowerBarMode@@M@Z
4DB1E0 ?RecvNotice_FinishPowerbar@gmPowerbarUI@@UAEXW4PowerBarMode@@@Z
4DB220 ?RecvNotice_RuntimeDDDStatus@gmPowerbarUI@@UAEX_NKK@Z
4DB390 ?RecvNotice_BeginPowerbar@gmPowerbarUI@@UAEXW4PowerBarMode@@@Z
4DB49C jpt_4DA748
4DB4B0 ?RestoreDefaultValues@gmKeyboardUI@@MAE_NXZ
4DB4F0 ?OnOptionChanged@gmKeyboardUI@@MAEXPBVUIOption@@@Z
4DB540 ?GetKeymapDirectory@gmKeyboardUI@@IAE?AV?$PStringBase@D@@XZ
4DB5E0 ?GetStringInfoFromInputMapID@gmKeyboardUI@@IAE?AVStringInfo@@K@Z
4DB728 jpt_4DA9AF
4DB780 ??_E?$IntrusiveHashTable@KPAV?$HashTableData@KPAVUIElement_ListBox@@@@$0A@@@UAEPAXI@Z
4DB7C0 ??_G?$IntrusiveHashTable@KPAUHashListData@?$HashList@KVActionMapValue@@$00@@$00@@UAEPAXI@Z
4DB800 ??_E?$IntrusiveHashTable@KPAUHashListData@?$HashList@KV?$List@K@@$00@@$00@@UAEPAXI@Z
4DB840 ??_G?$IntrusiveHashTable@KPAUHashListData@?$HashList@KV?$HashList@KV?$List@K@@$00@@$00@@$00@@UAEPAXI@Z
4DB880 ?HandleCloseLoadKeymapDialog@gmKeyboardUI@@IAEXK@Z
4DB900 ??4?$List@K@AC1Legacy@@QAEAAV01@ABV01@@Z
4DB970 ?grow@?$IntrusiveHashTable@KPAUHashListData@?$HashList@KV?$List@K@@$00@@$00@@QAE_NXZ
4DB9C0 ??0?$IntrusiveHashTable@KPAV?$HashTableData@KPAVUIElement_ListBox@@@@$0A@@@QAE@I@Z
4DBA50 ??0?$IntrusiveHashTable@KPAUHashListData@?$HashList@KVActionMapValue@@$00@@$00@@QAE@I@Z
4DBAE0 ??0?$IntrusiveHashTable@KPAUHashListData@?$HashList@KV?$List@K@@$00@@$00@@QAE@I@Z
4DBB70 ??0?$IntrusiveHashTable@KPAUHashListData@?$HashList@KV?$HashList@KV?$List@K@@$00@@$00@@$00@@QAE@I@Z
4DBC00 ?resize_internal@?$IntrusiveHashTable@KPAUHashListData@?$HashList@KVActionMapValue@@$00@@$00@@IAE_NK@Z
4DBCD0 ?resize_internal@?$IntrusiveHashTable@KPAUHashListData@?$HashList@KV?$List@K@@$00@@$00@@IAE_NK@Z
4DBE00 ?resize_internal@?$IntrusiveHashTable@KPAUHashListData@?$HashList@KV?$HashList@KV?$List@K@@$00@@$00@@$00@@IAE_NK@Z
4DBED0 ?grow@?$IntrusiveHashTable@KPAUHashListData@?$HashList@KVActionMapValue@@$00@@$00@@QAE_NXZ
4DBF20 ?UpdateKeymapFilenameLabel@gmKeyboardUI@@IAEXXZ
4DBF80 ?AddActionKeyMap@gmKeyboardUI@@IAEPAVUIOption_ActionKeyMap@@PAVUIElement_ListBox@@KKABVStringInfo@@1V?$List@VQualifiedControl@@@@@Z
4DC010 ?add@?$IntrusiveHashTable@KPAUHashListData@?$HashList@KV?$List@K@@$00@@$00@@QAE_NPAUHashListData@?$HashList@KV?$List@K@@$00@@@Z
4DC090 ?grow@?$IntrusiveHashTable@KPAUHashListData@?$HashList@KV?$HashList@KV?$List@K@@$00@@$00@@$00@@QAE_NXZ
4DC0E0 ?add_internal@?$IntrusiveHashTable@KPAUHashListData@?$HashList@KVActionMapValue@@$00@@$00@@AAEXPAUHashListData@?$HashList@KVActionMapValue@@$00@@@Z
4DC120 ?place_at_tail@?$IntrusiveHashList@KPAUHashListData@?$HashList@KV?$List@K@@$00@@$00@@QAE_NPAUHashListData@?$HashList@KV?$List@K@@$00@@@Z
4DC180 ?add@?$IntrusiveHashTable@KPAUHashListData@?$HashList@KVActionMapValue@@$00@@$00@@QAE_NPAUHashListData@?$HashList@KVActionMapValue@@$00@@@Z
4DC200 ?place_at_tail@?$IntrusiveHashList@KPAUHashListData@?$HashList@KVActionMapValue@@$00@@$00@@QAE_NPAUHashListData@?$HashList@KVActionMapValue@@$00@@@Z
4DC260 ?push_tail@?$IntrusiveHashList@KPAUHashListData@?$HashList@KV?$List@K@@$00@@$00@@QAE_NPAUHashListData@?$HashList@KV?$List@K@@$00@@@Z
4DC2C0 ?move_to_tail@?$HashList@KV?$List@K@@$00@@QAE_NABK@Z
4DC310 ?add_internal@?$IntrusiveHashTable@KPAUHashListData@?$HashList@KV?$HashList@KV?$List@K@@$00@@$00@@$00@@AAEXPAUHashListData@?$HashList@KV?$HashList@KV?$List@K@@$00@@$00@@@Z
4DC350 ?push_tail@?$IntrusiveHashList@KPAUHashListData@?$HashList@KVActionMapValue@@$00@@$00@@QAE_NPAUHashListData@?$HashList@KVActionMapValue@@$00@@@Z
4DC3B0 ?move_to_tail@?$HashList@KVActionMapValue@@$00@@QAE_NABK@Z
4DC400 ?PostInit@gmKeyboardUI@@MAEXXZ
4DC7D0 ??_E?$HashTable@KPAVUIElement_ListBox@@$0A@@@UAEPAXI@Z
4DC830 ?push_tail@?$HashList@KV?$List@K@@$00@@QAE_NABKABV?$List@K@@@Z
4DC8F0 ?push_tail@?$HashList@KVActionMapValue@@$00@@QAE_NABKABVActionMapValue@@@Z
4DC9A0 ?delete_contents@?$IntrusiveHashTable@KPAUHashListData@?$HashList@KV?$List@K@@$00@@$00@@QAEXXZ
4DCA60 ?add@?$IntrusiveHashTable@KPAUHashListData@?$HashList@KV?$HashList@KV?$List@K@@$00@@$00@@$00@@QAE_NPAUHashListData@?$HashList@KV?$HashList@KV?$List@K@@$00@@$00@@@Z
4DCAE0 ?place_at_tail@?$IntrusiveHashList@KPAUHashListData@?$HashList@KV?$HashList@KV?$List@K@@$00@@$00@@$00@@QAE_NPAUHashListData@?$HashList@KV?$HashList@KV?$List@K@@$00@@$00@@@Z
4DCB40 ??0gmKeyboardUI@@QAE@ABVLayoutDesc@@ABVElementDesc@@@Z
4DCC00 ?DynamicCast@gmKeyboardUI@@UAEPAVUIElement@@K@Z
4DCC20 ?GetUIElementType@gmKeyboardUI@@UBEKXZ
4DCC30 ??1gmKeyboardUI@@UAE@XZ
4DCD10 ?Create@gmKeyboardUI@@SAPAVUIElement@@ABVLayoutDesc@@ABVElementDesc@@@Z
4DCD40 ?MakeLoadKeymapDialog@gmKeyboardUI@@IAE_NXZ
4DD240 ?MakeSaveKeymapDialog@gmKeyboardUI@@IAE_NXZ
4DD440 ?MakeCantOverwriteReadOnlyKeymapDialog@gmKeyboardUI@@IAE_NV?$PStringBase@D@@@Z
4DD6B0 ?MakeOverwriteKeymapDialog@gmKeyboardUI@@IAE_NV?$PStringBase@D@@@Z
4DD970 ??4?$HashList@KVActionMapValue@@$00@@QAEAAV0@ABV0@@Z
4DD9D0 ?delete_contents@?$IntrusiveHashList@KPAUHashListData@?$HashList@KV?$List@K@@$00@@$00@@QAEXXZ
4DDA30 ?flush@?$HashList@KV?$List@K@@$00@@QAEXXZ
4DDB30 ?move_to_tail@?$HashList@KV?$HashList@KV?$List@K@@$00@@$00@@QAE_NABK@Z
4DDB80 ?push_tail@?$IntrusiveHashList@KPAUHashListData@?$HashList@KV?$HashList@KV?$List@K@@$00@@$00@@$00@@QAE_NPAUHashListData@?$HashList@KV?$HashList@KV?$List@K@@$00@@$00@@@Z
4DDBE0 ??_EgmKeyboardUI@@UAEPAXI@Z
4DDC00 ?Register@gmKeyboardUI@@SAXXZ
4DDC20 ?SaveKeymap@gmKeyboardUI@@IAEXABV?$PStringBase@D@@_N@Z
4DDDF0 ?HandleCloseSaveKeymapDialog@gmKeyboardUI@@IAEXABV?$PStringBase@D@@@Z
4DDE30 ?HandleCloseOverwriteKeymapDialog@gmKeyboardUI@@IAEX_NABV?$PStringBase@D@@@Z
4DDE60 ??4?$HashList@KV?$List@K@@$00@@QAEAAV0@ABV0@@Z
4DDEC0 ?ListenToElementMessage@gmKeyboardUI@@MAE?AW4UIElementMessageListenResult@@ABUUIElementMessageInfo@@@Z
4DE000 ?RecvNotice_CloseDialog@gmKeyboardUI@@MAEXKABVPropertyCollection@@@Z
4DE2D6 def_4DD3E5
4DE324 jpt_4DD3E5
4DE340 ?delete_contents@?$IntrusiveHashTable@KPAUHashListData@?$HashList@KV?$HashList@KV?$List@K@@$00@@$00@@$00@@QAEXXZ
4DE3F0 ?push_tail@?$HashList@KV?$HashList@KV?$List@K@@$00@@$00@@QAE_NABKABV?$HashList@KV?$List@K@@$00@@@Z
4DE4E0 ?delete_contents@?$IntrusiveHashList@KPAUHashListData@?$HashList@KV?$HashList@KV?$List@K@@$00@@$00@@$00@@QAEXXZ
4DE540 ?InitOptions@gmKeyboardUI@@MAEXXZ
4DEDD0 ??0CharAppearanceData@@QAE@XZ
4DEE40 ??0gmBarberUI@@QAE@ABVLayoutDesc@@ABVElementDesc@@@Z
4DEF40 ?DynamicCast@gmBarberUI@@UAEPAVUIElement@@K@Z
4DEF60 ?GetUIElementType@gmBarberUI@@UBEKXZ
4DEF70 ?PostInit@gmBarberUI@@UAEXXZ
4DEFD0 ?Create@gmBarberUI@@SAPAVUIElement@@ABVLayoutDesc@@ABVElementDesc@@@Z
4DF000 ??0HairStyle_CG@@QAE@ABV0@@Z
4DF040 ?RecvNotice_PlayerObjDescChanged@gmBarberUI@@UAEXXZ
4DF060 ?SetShade@gmBarberUI@@IAEXN@Z
4DF0E0 ?DoRotation@gmBarberUI@@IAEXXZ
4DF1B0 ?Rotate@gmBarberUI@@IAEXW4ERotateDirection@1@@Z
4DF230 ??_GgmBarberUI@@UAEPAXI@Z
4DF290 ?Register@gmBarberUI@@SAXXZ
4DF2B0 ?ListenToGlobalMessage@gmBarberUI@@UAEXKJ@Z
4DF2D0 ?DoColorSpots@gmBarberUI@@IAEXH@Z
4DF510 ?DoGradDisk@gmBarberUI@@IAEX_N@Z
4DF7D0 ?SetColor@gmBarberUI@@IAEXH@Z
4DF880 ?SetupParts@gmBarberUI@@QAEXXZ
4DFA80 ?SetSelection@gmBarberUI@@IAEXW4EParts@1@@Z
4DFEF0 ?ListenToElementMessage@gmBarberUI@@UAE?AW4UIElementMessageListenResult@@ABUUIElementMessageInfo@@@Z
4E0CD0 ?InitializePage@gmBarberUI@@QAEXV?$IDClass@U_tagDataID@@$0CA@$0A@@@0000000000000JJ@Z
4E1B50 ?RecvNotice_StartBarberNotice@gmBarberUI@@UAEXV?$IDClass@U_tagDataID@@$0CA@$0A@@@0000000000000JJ@Z
4E1BD0 ??0UIElement_UIItem@@QAE@ABVLayoutDesc@@ABVElementDesc@@@Z
4E1D40 ?DynamicCast@UIElement_UIItem@@UAEPAVUIElement@@K@Z
4E1D60 ?GetUIElementType@UIElement_UIItem@@UBEKXZ
4E1D70 ?Create@UIElement_UIItem@@SAPAVUIElement@@ABVLayoutDesc@@ABVElementDesc@@@Z
4E1DA0 ?Init_UIItem@UIElement_UIItem@@QAEXKH@Z
4E1DD0 ?Init_UIItem_Spell_Shortcut@UIElement_UIItem@@QAEXK@Z
4E1E00 ?Clear_UIItem@UIElement_UIItem@@QAEXXZ
4E1E20 ?UIItem_GetState@UIElement_UIItem@@QAEKXZ
4E1E40 ?SetWaitingState@UIElement_UIItem@@QAEXH@Z
4E1E90 ?SetOpenContainerState@UIElement_UIItem@@QAEX_N@Z
4E1EC0 ?SetDelayedShortcutNum@UIElement_UIItem@@QAEXH@Z
4E1ED0 ?SetSelectedState@UIElement_UIItem@@QAEXH@Z
4E1F10 ?SetSelectableState@UIElement_UIItem@@QAEX_N@Z
4E1F20 ?SetDragAcceptState@UIElement_UIItem@@QAEXK@Z
4E1F50 ?SetQuantity@UIElement_UIItem@@QAEXJ@Z
4E1F60 ?ListenToGlobalMessage@UIElement_UIItem@@MAEXKJ@Z
4E1FA0 ??_GUIElement_UIItem@@UAEPAXI@Z
4E2000 ?Register@UIElement_UIItem@@SAXXZ
4E2020 ?ListenToElementMessage@UIElement_UIItem@@MAE?AW4UIElementMessageListenResult@@ABUUIElementMessageInfo@@@Z
4E2190 ?UIItem_SetState@UIElement_UIItem@@QAE_NK@Z
4E2220 ?SetShortcutNum@UIElement_UIItem@@QAEXH_N@Z
4E2370 ?UpdateCapacityDisplay@UIElement_UIItem@@IAEXXZ
4E2430 ?UpdateStructureDisplay@UIElement_UIItem@@IAEXXZ
4E2500 ?PostInit@UIElement_UIItem@@MAEXXZ
4E2900 ?InqAvailableProperties@UIElement_UIItem@@UBE_NAAVAvailablePropertySet@@@Z
4E2940 ?UpdateTooltip@UIElement_UIItem@@IAEXXZ
4E2A30 ?UpdateQuantityDisplay@UIElement_UIItem@@IAEXXZ
4E2AB0 ?UpdateCooldownDisplay@UIElement_UIItem@@IAEXXZ
4E2D00 j_?UpdateCooldownDisplay@UIElement_UIItem@@IAEXXZ
4E2D10 ?UIItem_SetIcon@UIElement_UIItem@@QAE_NXZ
4E2E60 ?UIItem_Update@UIElement_UIItem@@QAEXXZ
4E3130 ?IsAliasList@UIElement_ItemList@@IAE_NXZ
4E3160 ?HandleTargetedUseLeftClick@UIElement_ItemList@@IAEXPAVUIElement_UIItem@@@Z
4E31C0 ?ItemList_SetChildList@UIElement_ItemList@@QAEXPAV1@@Z
4E31D0 ?RecvNotice_BeginDrag@UIElement_ItemList@@MAEXKK_N@Z
4E3220 ?RegisterItemListDragHandler@UIElement_ItemList@@QAEXPAVItemListDragHandler@@@Z
4E3230 ?UnregisterItemListDragHandler@UIElement_ItemList@@QAEXXZ
4E3240 ?SetAsPendingItem@UIElement_ItemList@@QAEXPAVUIElement_UIItem@@@Z
4E3250 ?DeletePendingItem@UIElement_ItemList@@QAEXXZ
4E3280 ?WhatDragScrollRegion@UIElement_ItemList@@IAEHJJ@Z
4E3380 ?InqDropIconInfo@UIElement_ItemList@@SAXPBVUIElement@@AAK1AAW4DropItemFlags@@@Z
4E36E0 ?PrepareDragIcon@UIElement_ItemList@@IAE_NPAVUIElement_UIItem@@@Z
4E3B60 ?ItemList_IsInList@UIElement_ItemList@@QAEHK@Z
4E3BC0 ?ItemList_GetItem@UIElement_ItemList@@QAEPAVUIElement_UIItem@@K@Z
4E3C10 ?GetNumUIItems@UIElement_ItemList@@QAEHXZ
4E3C70 ?ItemList_SetSelectedItem@UIElement_ItemList@@IAEXKK@Z
4E3D00 ?UpdateOpenContainerIndicator@UIElement_ItemList@@IAEXK@Z
4E3D60 ?TrackDragScrolling@UIElement_ItemList@@IAEXXZ
4E3E70 ?InqAvailableProperties@UIElement_ItemList@@UBE_NAAVAvailablePropertySet@@@Z
4E3EB0 ?ListenToGlobalMessage@UIElement_ItemList@@MAEXKJ@Z
4E3EE0 ?HandleSingleSelection@UIElement_ItemList@@IAEXPAVUIElement_UIItem@@@Z
4E3F60 ?ItemList_BeginDrag@UIElement_ItemList@@QAEXHH@Z
4E4090 ?ItemList_DragOver@UIElement_ItemList@@QAEXPAVUIElement@@PAVUIElement_UIItem@@@Z
4E41C0 ?InternalDeleteItem@UIElement_ItemList@@IAE_NPAVUIElement_UIItem@@@Z
4E41F0 ?RecvNotice_SetSelectedItem@UIElement_ItemList@@MAEXKK@Z
4E4200 ?InternalCreateItem@UIElement_ItemList@@IAEPAVUIElement_UIItem@@XZ
4E42E0 ?ItemList_SetParentList@UIElement_ItemList@@QAEXPAV1@@Z
4E4340 ?ItemList_AddEmptySlot@UIElement_ItemList@@IAEXH@Z
4E4390 ?UpdateEmptySlots@UIElement_ItemList@@QAEXXZ
4E45A0 ?UpdateFixedSlots@UIElement_ItemList@@QAEXXZ
4E4670 ?ItemList_UpdateContainerListSize@UIElement_ItemList@@IAEXXZ
4E4700 ??_G?$List@PAVUIElement_UIItem@@@@UAEPAXI@Z
4E4730 ??0UIElement_ItemList@@QAE@ABVLayoutDesc@@ABVElementDesc@@@Z
4E4830 ?DynamicCast@UIElement_ItemList@@UAEPAVUIElement@@K@Z
4E4860 ?GetUIElementType@UIElement_ItemList@@UBEKXZ
4E4870 ??1UIElement_ItemList@@UAE@XZ
4E4960 ?Create@UIElement_ItemList@@SAPAVUIElement@@ABVLayoutDesc@@ABVElementDesc@@@Z
4E4990 ?OnVisibilityChanged@UIElement_ItemList@@MAEX_N@Z
4E49C0 ?ResizeTo@UIElement_ItemList@@MAEXJJ@Z
4E49F0 ?ItemList_Flush@UIElement_ItemList@@QAEXXZ
4E4A90 ?ItemList_AddItem@UIElement_ItemList@@QAEPAVUIElement_UIItem@@K@Z
4E4BD0 ?ItemList_InsertItem@UIElement_ItemList@@QAEPAVUIElement_UIItem@@KH@Z
4E4C70 ?ItemList_DeleteItem@UIElement_ItemList@@QAEXK@Z
4E4D30 ?ItemList_AddSpellShortcut@UIElement_ItemList@@QAEPAVUIElement_UIItem@@K@Z
4E4E40 ?ItemList_InsertSpellShortcut@UIElement_ItemList@@QAEPAVUIElement_UIItem@@KH@Z
4E4EE0 ?AcceptDragObject@UIElement_ItemList@@IAE_NK_N@Z
4E53E0 ??_GUIElement_ItemList@@UAEPAXI@Z
4E5400 ?Register@UIElement_ItemList@@SAXXZ
4E5420 ?HandleDropRelease@UIElement_ItemList@@IAEXABUUIElementMessageInfo@@@Z
4E54C0 ?InitItemList@UIElement_ItemList@@IAEXXZ
4E5660 ?ItemList_SetParentContainer@UIElement_ItemList@@QAEXKHH@Z
4E5770 ?ItemList_OpenContainer@UIElement_ItemList@@QAEHKH@Z
4E57F0 ?ItemList_OpenFirstContainer@UIElement_ItemList@@QAEXXZ
4E5890 ?RefreshList@UIElement_ItemList@@QAEXXZ
4E58B0 ?ServerSaysAttemptFailed@UIElement_ItemList@@IAEXK@Z
4E5930 ?PostInit@UIElement_ItemList@@MAEXXZ
4E59E0 ?ListenToElementMessage@UIElement_ItemList@@MAE?AW4UIElementMessageListenResult@@ABUUIElementMessageInfo@@@Z
4E5C20 ?ItemAttributesChanged@UIElement_ItemList@@IAEXKH@Z
4E5C90 ?ServerSaysMoveItem@UIElement_ItemList@@IAEXKKKKKHKK@Z
4E5D80 ?RecvNotice_ServerSaysAttemptFailed@UIElement_ItemList@@MAEXK@Z
4E5D90 ?RecvNotice_ItemAttributesChanged@UIElement_ItemList@@MAEXKK@Z
4E5DA0 ?RecvNotice_ServerSaysMoveItem@UIElement_ItemList@@MAEXKKKKKHKK@Z
4E5DB0 ??0UIElement_SmartBoxWrapper@@QAE@ABVLayoutDesc@@ABVElementDesc@@@Z
4E5E60 ?DynamicCast@UIElement_SmartBoxWrapper@@UAEPAVUIElement@@K@Z
4E5E80 ?GetUIElementType@UIElement_SmartBoxWrapper@@UBEKXZ
4E5E90 ??1UIElement_SmartBoxWrapper@@UAE@XZ
4E5EE0 ?Create@UIElement_SmartBoxWrapper@@SAPAVUIElement@@ABVLayoutDesc@@ABVElementDesc@@@Z
4E5F10 ?ResizeTo@UIElement_SmartBoxWrapper@@UAEXJJ@Z
4E5F60 ?MoveTo@UIElement_SmartBoxWrapper@@UAEXJJ@Z
4E5FB0 ?ApplyLighting@UIElement_SmartBoxWrapper@@IAEXKW4LightingMode@@@Z
4E6010 ?HandleTargetedUseLeftClick@UIElement_SmartBoxWrapper@@IAEXKK@Z
4E6040 ??_EUIElement_SmartBoxWrapper@@UAEPAXI@Z
4E60A0 ?Register@UIElement_SmartBoxWrapper@@SAXXZ
4E60C0 ?FindObject@UIElement_SmartBoxWrapper@@AAEXJJ_N@Z
4E6110 ?HandleDropRelease@UIElement_SmartBoxWrapper@@IAEXABUUIElementMessageInfo@@@Z
4E61A0 ?PostInit@UIElement_SmartBoxWrapper@@MAEXXZ
4E6200 ?InqAvailableProperties@UIElement_SmartBoxWrapper@@UBE_NAAVAvailablePropertySet@@@Z
4E6250 ?ListenToElementMessage@UIElement_SmartBoxWrapper@@MAE?AW4UIElementMessageListenResult@@ABUUIElementMessageInfo@@@Z
4E62B0 ?Global_Loop@UIElement_SmartBoxWrapper@@IAEXXZ
4E6350 ?MouseMove@UIElement_SmartBoxWrapper@@MAEXJJ@Z
4E6390 ?MouseDown@UIElement_SmartBoxWrapper@@MAEXKKK@Z
4E64B0 ?MouseUp@UIElement_SmartBoxWrapper@@MAEXKKK@Z
4E6580 ?PrepareDragIcon@UIElement_SmartBoxWrapper@@IAE_NK@Z
4E6750 ?ListenToGlobalMessage@UIElement_SmartBoxWrapper@@MAEXKJ@Z
4E6760 ?RecvNotice_SmartBoxObjectFound@UIElement_SmartBoxWrapper@@MAEXK@Z
4E6AF0 ?DynamicCast@gmUIElement_VitaeIndicator@@UAEPAVUIElement@@K@Z
4E6B20 ?GetUIElementType@gmUIElement_VitaeIndicator@@UBEKXZ
4E6B30 ?PostInit@gmUIElement_VitaeIndicator@@UAEXXZ
4E6B90 ?Create@gmUIElement_VitaeIndicator@@SAPAVUIElement@@ABVLayoutDesc@@ABVElementDesc@@@Z
4E6BF0 ??_EgmUIElement_VitaeIndicator@@UAEPAXI@Z
4E6C50 ?Register@gmUIElement_VitaeIndicator@@SAXXZ
4E6C70 ?Update@gmUIElement_VitaeIndicator@@IAEXXZ
4E6D70 ?RecvNotice_PlayerDescReceived@gmUIElement_VitaeIndicator@@UAEXABVCACQualities@@ABVCPlayerModule@@@Z
4E6D80 ?RecvNotice_VitaeChanged@gmUIElement_VitaeIndicator@@UAEXXZ
4E6D90 ??0gmUIElement_PortalStormIndicator@@QAE@ABVLayoutDesc@@ABVElementDesc@@@Z
4E6DE0 ?DynamicCast@gmUIElement_PortalStormIndicator@@UAEPAVUIElement@@K@Z
4E6E10 ?GetUIElementType@gmUIElement_PortalStormIndicator@@UBEKXZ
4E6E20 ?PostInit@gmUIElement_PortalStormIndicator@@UAEXXZ
4E6E60 ??1gmUIElement_PortalStormIndicator@@UAE@XZ
4E6EB0 ?Create@gmUIElement_PortalStormIndicator@@SAPAVUIElement@@ABVLayoutDesc@@ABVElementDesc@@@Z
4E6EE0 ?Update@gmUIElement_PortalStormIndicator@@IAEXM@Z
4E6F50 ??_EgmUIElement_PortalStormIndicator@@UAEPAXI@Z
4E6F70 ?Register@gmUIElement_PortalStormIndicator@@SAXXZ
4E6F90 ?ListenToGlobalMessage@gmUIElement_PortalStormIndicator@@UAEXKJ@Z
4E6FD0 ?RecvNotice_PortalStormLevel@gmUIElement_PortalStormIndicator@@UAEXM@Z
4E6FE0 ?DynamicCast@gmUIElement_MiniGameIndicator@@UAEPAVUIElement@@K@Z
4E7010 ?GetDBOType@SkillTable@@UBEKXZ
4E7020 ?PostInit@gmUIElement_MiniGameIndicator@@UAEXXZ
4E7080 ?Create@gmUIElement_MiniGameIndicator@@SAPAVUIElement@@ABVLayoutDesc@@ABVElementDesc@@@Z
4E70E0 ?RecvNotice_BeginGame@gmUIElement_MiniGameIndicator@@UAEXK@Z
4E7100 ?RecvNotice_EndGame@gmUIElement_MiniGameIndicator@@UAEXXZ
4E7120 ??_EgmUIElement_MiniGameIndicator@@UAEPAXI@Z
4E7180 ?Register@gmUIElement_MiniGameIndicator@@SAXXZ
4E71A0 ??0gmUIElement_LinkStatusIndicator@@QAE@ABVLayoutDesc@@ABVElementDesc@@@Z
4E7200 ?DynamicCast@gmUIElement_LinkStatusIndicator@@UAEPAVUIElement@@K@Z
4E7230 ?GetDBOType@Attribute2ndTable@@UBEKXZ
4E7240 ?Create@gmUIElement_LinkStatusIndicator@@SAPAVUIElement@@ABVLayoutDesc@@ABVElementDesc@@@Z
4E7270 ?SetLinkState@gmUIElement_LinkStatusIndicator@@IAEXK@Z
4E7300 ??_EgmUIElement_LinkStatusIndicator@@UAEPAXI@Z
4E7360 ?PostInit@gmUIElement_LinkStatusIndicator@@UAEXXZ
4E73A0 ?Register@gmUIElement_LinkStatusIndicator@@SAXXZ
4E73C0 ?UpdateLinkState@gmUIElement_LinkStatusIndicator@@IAEXXZ
4E7450 ?UseTime@gmUIElement_LinkStatusIndicator@@IAEXXZ
4E7500 ?ListenToGlobalMessage@gmUIElement_LinkStatusIndicator@@UAEXKJ@Z
4E7530 ??0gmUIElement_EffectsIndicator@@QAE@ABVLayoutDesc@@ABVElementDesc@@@Z
4E7580 ?DynamicCast@gmUIElement_EffectsIndicator@@UAEPAVUIElement@@K@Z
4E75B0 ?GetUIElementType@gmUIElement_EffectsIndicator@@UBEKXZ
4E75C0 ?PostInit@gmUIElement_EffectsIndicator@@UAEXXZ
4E7630 ?Create@gmUIElement_EffectsIndicator@@SAPAVUIElement@@ABVLayoutDesc@@ABVElementDesc@@@Z
4E7660 ??_EgmUIElement_EffectsIndicator@@UAEPAXI@Z
4E76C0 ?Register@gmUIElement_EffectsIndicator@@SAXXZ
4E76E0 ?Update@gmUIElement_EffectsIndicator@@IAEXXZ
4E77B0 ?RecvNotice_PlayerDescReceived@gmUIElement_EffectsIndicator@@UAEXABVCACQualities@@ABVCPlayerModule@@@Z
4E77C0 ?RecvNotice_EnchantmentsChanged@gmUIElement_EffectsIndicator@@UAEXXZ
4E77D0 ?DynamicCast@gmUIElement_BurdenIndicator@@UAEPAVUIElement@@K@Z
4E7800 ?GetUIElementType@gmEffectsUI@@UBEKXZ
4E7810 ?PostInit@gmUIElement_BurdenIndicator@@UAEXXZ
4E7870 ?Create@gmUIElement_BurdenIndicator@@SAPAVUIElement@@ABVLayoutDesc@@ABVElementDesc@@@Z
4E78D0 j_?ListenToGlobalMessage@UIElement_Button@@UAEXKJ@Z
4E78E0 j_?ListenToElementMessage@UIElement_Button@@UAE?AW4UIElementMessageListenResult@@ABUUIElementMessageInfo@@@Z
4E78F0 ??_EgmUIElement_BurdenIndicator@@UAEPAXI@Z
4E7950 ?Register@gmUIElement_BurdenIndicator@@SAXXZ
4E7970 ?Update@gmUIElement_BurdenIndicator@@IAEXXZ
4E7A80 ?RecvNotice_LoadChanged@gmUIElement_BurdenIndicator@@UAEXM@Z
4E7A90 ?RecvNotice_PlayerDescReceived@gmUIElement_BurdenIndicator@@UAEXABVCACQualities@@ABVCPlayerModule@@@Z
4E7AA0 ??_EgmUIMainFramework@@UAEPAXI@Z
4E7AD0 ?ListenToGlobalMessage@gmCreditsUI@@UAEXKJ@Z
4E7AE0 ?Shown@UIFramework@@UBE_NXZ
4E7B00 ?GetNextPictureID@gmCreditsUI@@AAE?AV?$IDClass@U_tagDataID@@$0CA@$0A@@@XZ
4E7C50 ??1gmCreditsUI@@UAE@XZ
4E7D10 ??_EgmCreditsUI@@UAEPAXI@Z
4E7D30 ?Initialize@gmCreditsUI@@AAEXXZ
4E7FA0 ??0gmCreditsUI@@QAE@XZ
4E8170 ?Create@gmCreditsUI@@SAPAVUIMainFramework@@XZ
4E8190 ?Register@gmCreditsUI@@SAXK@Z
4E81B0 ?CreateAndAddPicture@gmCreditsUI@@AAEXXZ
4E82A0 ?ScrollPictures@gmCreditsUI@@AAEXJ@Z
4E8380 ?MakePleaseWaitDialog@gmCreditsUI@@AAEXXZ
4E84E0 ?ScrollText@gmCreditsUI@@AAEJXZ
4E8630 ?OnAction@gmCreditsUI@@EAE_NABVInputEvent@@@Z
4E8660 ?Update@gmCreditsUI@@EAEXXZ
4E8680 ?RecvNotice_BeginEnterWorld@gmCharacterManagementUI@@MAEXXZ
4E86A0 ?SetProgressState@gmCharGenMainUI@@QAEXW4ECGProgress@1@@Z
4E8A00 ?DoRandom@gmCharGenMainUI@@IAEXXZ
4E8B20 ?GetIdentity@CharacterSet@@QAEPAVCharacterIdentity@@H@Z
4E8B40 ??0gmCharGenMainUI@@QAE@XZ
4E9010 ??1gmCharGenMainUI@@UAE@XZ
4E9070 ?Create@gmCharGenMainUI@@SAPAVUIMainFramework@@XZ
4E9090 ?CloseRandomizeWarningDialog@gmCharGenMainUI@@IAE_N_N@Z
4E90B0 ??_EgmCharGenMainUI@@UAEPAXI@Z
4E90D0 ?Register@gmCharGenMainUI@@SAXK@Z
4E90F0 ?Update@gmCharGenMainUI@@UAEXXZ
4E9280 ??0accountID@@QAE@ABV0@@Z
4E92E0 ?DoExit@gmCharGenMainUI@@IAE_NXZ
4E9500 ?MakeCreditWarningDialog@gmCharGenMainUI@@IAE_NXZ
4E9720 ?MakeRandomizeWarningDialog@gmCharGenMainUI@@IAE_NXZ
4E9940 ?MakeErrorMessageDialog@gmCharGenMainUI@@IAE_NABVStringInfo@@@Z
4E9AD0 ?MakeToDWarningDialog@gmCharGenMainUI@@QAE_NXZ
4E9C90 ?ListenToGlobalMessage@gmCharGenMainUI@@UAEXKJ@Z
4E9CC0 ?RecvNotice_CharGenVerificationResponse@gmCharGenMainUI@@UAEXW4CG_VERIFICATION_RESPONSE@@@Z
4E9E00 ?DoFinish@gmCharGenMainUI@@IAE_N_N@Z
4EA0E0 ?ListenToElementMessage@gmCharGenMainUI@@UAE?AW4UIElementMessageListenResult@@ABUUIElementMessageInfo@@@Z
4EA410 ?RecvNotice_CloseDialog@gmCharGenMainUI@@UAEXKABVPropertyCollection@@@Z
4EA600 ??1gmDisconnectedUI@@UAE@XZ
4EA650 ?ListenToElementMessage@gmDisconnectedUI@@UAE?AW4UIElementMessageListenResult@@ABUUIElementMessageInfo@@@Z
4EA680 ?SetErrorMsg@gmDisconnectedUI@@UAEXABVStringInfo@@@Z
4EA6A0 ??0gmDisconnectedUI@@QAE@XZ
4EA730 ??_GgmDisconnectedUI@@UAEPAXI@Z
4EA750 ?Create@gmDisconnectedUI@@SAPAVUIMainFramework@@XZ
4EA770 ?Register@gmDisconnectedUI@@SAXK@Z
4EA790 ??0gmEpilogueUI@@QAE@XZ
4EA820 ?Create@gmEpilogueUI@@SAPAVUIMainFramework@@XZ
4EA840 ??_EgmEpilogueUI@@UAEPAXI@Z
4EA8A0 ?Register@gmEpilogueUI@@SAXK@Z
4EA8C0 ?ListenToGlobalMessage@gmEpilogueUI@@UAEXKJ@Z
4EA8D0 ?ListenToElementMessage@gmEpilogueUI@@UAE?AW4UIElementMessageListenResult@@KPAVUIElement@@KJ@Z
4EA8F0 ?Show@gmGamePlayUI@@UAEX_N@Z
4EA960 ?Update@gmGamePlayUI@@UAEXXZ
4EA970 ?ListenToElementMessage@gmGamePlayUI@@UAE?AW4UIElementMessageListenResult@@ABUUIElementMessageInfo@@@Z
4EAA00 ?RecvNotice_AbortConfirmationRequest@gmGamePlayUI@@MAEXJK@Z
4EAA30 ?RecvNotice_PlayerOptionChanged@gmGamePlayUI@@MAEXW4PlayerOption@@@Z
4EAA80 ?HandleKeyPress@gmGamePlayUI@@IAEXJ@Z
4EAB10 ?CloseGameplayConfirmationDialog@gmGamePlayUI@@IAE_N_N@Z
4EAB50 ?SetupChildren@gmGamePlayUI@@QAEXXZ
4EACA0 ??0gmGamePlayUI@@QAE@XZ
4EAE20 ?Create@gmGamePlayUI@@SAPAVUIMainFramework@@XZ
4EAE40 ?EndSession@gmGamePlayUI@@IAE_N_N@Z
4EAF30 ??1gmGamePlayUI@@UAE@XZ
4EB010 ?Register@gmGamePlayUI@@SAXK@Z
4EB030 ?UseTime@gmGamePlayUI@@IAEXXZ
4EB160 ??_EgmGamePlayUI@@UAEPAXI@Z
4EB180 ?RecvNotice_CloseDialog@gmGamePlayUI@@MAEXKABVPropertyCollection@@@Z
4EB320 ?CreateScreenLayoutPath@gmGamePlayUI@@IAEXV?$PStringBase@D@@AAV2@@Z
4EB580 ?LoadScreenLayout@gmGamePlayUI@@IAEHV?$PStringBase@D@@@Z
4EB9E0 ?SaveScreenLayout@gmGamePlayUI@@IAEXV?$PStringBase@D@@@Z
4EC230 ?ListenToGlobalMessage@gmGamePlayUI@@UAEXKJ@Z
4EC290 ?RecvNotice_SaveUI@gmGamePlayUI@@MAEXABV?$PStringBase@D@@@Z
4EC2C0 ?RecvNotice_LoadUI@gmGamePlayUI@@MAEXABV?$PStringBase@D@@@Z
4EC2F0 ?RecvNotice_PlayerDescReceived@gmGamePlayUI@@MAEXABVCACQualities@@ABVCPlayerModule@@@Z
4EC330 ?MakeLogoutConfirmationDialog@gmGamePlayUI@@IAE_NABVStringInfo@@@Z
4EC520 ?MakeGameplayConfirmationDialog@gmGamePlayUI@@IAE_NABVStringInfo@@@Z
4EC700 ?RecvNotice_AlterSkill_ConfirmationRequest@gmGamePlayUI@@MAEXABV?$PStringBase@D@AC1Legacy@@K@Z
4EC7E0 ?RecvNotice_AlterAttribute_ConfirmationRequest@gmGamePlayUI@@MAEXABV?$PStringBase@D@AC1Legacy@@K@Z
4EC8C0 ?RecvNotice_Augmentation_ConfirmationRequest@gmGamePlayUI@@MAEXABV?$PStringBase@D@AC1Legacy@@K@Z
4EC9A0 ?RecvNotice_YesNo_ConfirmationRequest@gmGamePlayUI@@MAEXABV?$PStringBase@D@AC1Legacy@@K@Z
4ECA50 ?RecvNotice_CraftInteraction_ConfirmationRequest@gmGamePlayUI@@MAEXABV?$PStringBase@D@AC1Legacy@@K@Z
4ECB30 ?RecvNotice_EndCharacterSession@gmGamePlayUI@@MAEXH@Z
4ECBA0 ?RecvNotice_Logoff@gmGamePlayUI@@MAEXXZ
4ECBF0 ?RecvNotice_CharGenVerificationResponse@gmCharacterManagementUI@@MAEXW4CG_VERIFICATION_RESPONSE@@@Z
4ECC80 ?ResetPreviouslySelectedCharacterSlot@gmCharacterManagementUI@@IAEXXZ
4ECD10 ??1gmCharacterManagementUI@@UAE@XZ
4ECDB0 ?UpdateWorldName@gmCharacterManagementUI@@IAEXXZ
4ECDF0 ?SelectCharacter@gmCharacterManagementUI@@IAEXK@Z
4ECED0 ?UpdateButtons@gmCharacterManagementUI@@IAEXXZ
4ECFD0 ??_GgmCharacterManagementUI@@UAEPAXI@Z
4ECFF0 ?RecvNotice_WorldName@gmCharacterManagementUI@@MAEXABV?$PStringBase@D@AC1Legacy@@@Z
4ED030 ?RebuildCharacterList@gmCharacterManagementUI@@IAEXXZ
4ED580 ??0gmCharacterManagementUI@@QAE@XZ
4ED720 ?Create@gmCharacterManagementUI@@SAPAVUIMainFramework@@XZ
4ED740 ?Update@gmCharacterManagementUI@@UAEXXZ
4ED780 ?Register@gmCharacterManagementUI@@SAXK@Z
4ED7A0 ?MakeErrorMessageDialog@gmCharacterManagementUI@@IAE_NABVStringInfo@@@Z
4ED930 ?MakeDeleteCharacterConfirmationDialog@gmCharacterManagementUI@@IAE_NXZ
4EDB60 ?MakePleaseWaitDialog@gmCharacterManagementUI@@IAE_NXZ
4EDD20 ?MakeEnteringWorldDialog@gmCharacterManagementUI@@IAE_NXZ
4EDEE0 ?MakeConfirmExitDialog@gmCharacterManagementUI@@IAE_NXZ
4EE0A0 ?OnAction@gmCharacterManagementUI@@MAE_NABVInputEvent@@@Z
4EE0C0 ?SetErrorMsg@gmCharacterManagementUI@@UAEXABVStringInfo@@@Z
4EE0D0 ?EnterGame@gmCharacterManagementUI@@IAEXXZ
4EE130 ?CloseDeleteCharacterDialog@gmCharacterManagementUI@@IAEXABV?$PStringBase@D@@@Z
4EE230 ?ListenToElementMessage@gmCharacterManagementUI@@UAE?AW4UIElementMessageListenResult@@ABUUIElementMessageInfo@@@Z
4EE3F0 ?RecvNotice_CloseDialog@gmCharacterManagementUI@@MAEXKABVPropertyCollection@@@Z
4EE680 ?NextFrame@gmIntroUI@@IAEXXZ
4EE6E0 ?ListenToElementMessage@gmIntroUI@@UAE?AW4UIElementMessageListenResult@@ABUUIElementMessageInfo@@@Z
4EE730 ?CharacterHandler@gmIntroUI@@MAEXG@Z
4EE760 ?OnAction@gmIntroUI@@MAE_NABVInputEvent@@@Z
4EE790 ??0gmIntroUI@@QAE@XZ
4EE9D0 ??1gmIntroUI@@UAE@XZ
4EEA60 ?Create@gmIntroUI@@SAPAVUIMainFramework@@XZ
4EEA80 ??_GgmIntroUI@@UAEPAXI@Z
4EEAA0 ?Register@gmIntroUI@@SAXK@Z
4EEAC0 ?ListenToElementMessage@gmDataPatchUI@@UAE?AW4UIElementMessageListenResult@@ABUUIElementMessageInfo@@@Z
4EEAF0 ?SetConnectLevel@gmDataPatchUI@@IAEXM@Z
4EEB70 ?SetPatchLevel@gmDataPatchUI@@IAEXM@Z
4EEBA0 ?UseTime@gmDataPatchUI@@IAEXXZ
4EEC80 ?OnDDDEvent@gmDataPatchUI@@MAEXW4DDDEvent@@I@Z
4EEEA0 ?ListenToGlobalMessage@gmDataPatchUI@@UAEXKJ@Z
4EEEB0 ??1gmDataPatchUI@@UAE@XZ
4EEF30 ??_EgmDataPatchUI@@WJM@AEPAXI@Z
4EEF40 ??0gmDataPatchUI@@QAE@XZ
4EF0A0 ??_GgmDataPatchUI@@UAEPAXI@Z
4EF0C0 ?Create@gmDataPatchUI@@SAPAVUIMainFramework@@XZ
4EF0E0 ?Register@gmDataPatchUI@@SAXK@Z
4EF100 ?Init@UIGlobals@@SAXXZ
4EF1B0 ?Cleanup@UIGlobals@@SAXXZ
4EF1D0 ?GetAnimLevel@UIGlobals@@SAFM@Z
4EF220 ?SetPlayerHeading@gmCG3DView@@QAEXM@Z
4EF240 ?SetCamera@gmCG3DView@@QAEXABVVector3@AC1Legacy@@0@Z
4EF290 ?StartAnimation@gmCG3DView@@QAEXXZ
4EF2D0 ?StopAnimation@gmCG3DView@@QAEXXZ
4EF2F0 ?Get@ClothingTable@@SAPAV1@V?$IDClass@U_tagDataID@@$0CA@$0A@@@@Z
4EF310 ??0gmCG3DView@@QAE@XZ
4EF3F0 ?Initialize@gmCG3DView@@QAEXPAVUIElement_Viewport@@@Z
4EF660 ?Update@gmCG3DView@@QAEXXZ
4EFE70 ??0UIOption@@QAE@XZ
4EFED0 ??1UIOption@@UAE@XZ
4EFF00 ?SetLabel@UIOption@@QAEXKK@Z
4EFF50 ?SetTooltip@UIOption@@QAEXKK@Z
4EFFA0 ?SetConfirmChange@UIOption@@QAEX_N@Z
4EFFB0 ?SetChangeNotification@UIOption@@UAEXPAVIOptionChangeHandler@@@Z
4EFFC0 ?SetUserData@UIOption@@QAEXK@Z
4EFFD0 ??_GUIOption@@UAEPAXI@Z
4F0010 ?set@?$DBObjGrabber@VDBPropertyCollection@@@@QAE_NV?$IDClass@U_tagDataID@@$0CA@$0A@@@@Z
4F0070 ?RecvNotice_CloseDialog@UIOption@@MAEXKABVPropertyCollection@@@Z
4F0160 ?InqGameplayOptionProperty@UIOption@@IAE_NKAAVBaseProperty@@@Z
4F03E0 ?InqGameplayOptionNameAndTooltip@UIOption@@IAE_NKAAVStringInfo@@0@Z
4F0560 ?InqDefaultGameplayOptionProperty@UIOption@@IAE_NKAAVBaseProperty@@@Z
4F05D0 ?HandleDialog@UIOption@@IAEXXZ
4F0820 ?HandleDialogAndNotices@UIOption@@MAEX_N@Z
4F0870 ?ListenToElementMessage@gmStatManagementUI@@UAE?AW4UIElementMessageListenResult@@ABUUIElementMessageInfo@@@Z
4F0980 ?RecvNotice_PlayerDescReceived@gmStatManagementUI@@UAEXABVCACQualities@@ABVCPlayerModule@@@Z
4F09A0 ?RecvNotice_EnchantmentsChanged@gmStatManagementUI@@UAEXXZ
4F09C0 ?RecvNotice_UpdateCharacterTitleTable@gmStatManagementUI@@UAEXABVCharacterTitleTable@@@Z
4F09E0 ?RecvNotice_SetDisplayCharacterTitle@gmStatManagementUI@@UAEXK@Z
4F0A00 ?OnQualityRemoved@gmStatManagementUI@@UAEXPAVCWeenieObject@@W4StatType@@K@Z
4F0A20 ?PostInit@gmStatManagementUI@@UAEXXZ
4F0CB0 ?Update@gmStatManagementUI@@MAE_NABVCACQualities@@@Z
4F0D30 ?UpdatePKStatus@gmStatManagementUI@@MAE_NABVCACQualities@@@Z
4F0E00 ?GetFooterTitleLabel@gmStatManagementUI@@IBEPAVUIElement_Text@@XZ
4F0E50 ?GetFooterLineOneLabel@gmStatManagementUI@@IBEPAVUIElement_Text@@XZ
4F0EA0 ?GetFooterLineOneValue@gmStatManagementUI@@IBEPAVUIElement_Text@@XZ
4F0EF0 ?GetFooterMeter@gmStatManagementUI@@IBEPAVUIElement_Meter@@XZ
4F0F40 ?GetFooterLineTwoLabel@gmStatManagementUI@@IBEPAVUIElement_Text@@XZ
4F0F90 ?GetFooterLineTwoValue@gmStatManagementUI@@IBEPAVUIElement_Text@@XZ
4F0FE0 ?GetFooterButton@gmStatManagementUI@@IBEPAVUIElement_Button@@XZ
4F1030 ?GetFooter10Button@gmStatManagementUI@@IBEPAVUIElement_Button@@XZ
4F1080 ??0gmStatManagementUI@@QAE@ABVLayoutDesc@@ABVElementDesc@@@Z
4F1130 ?Update@gmStatManagementUI@@MAE_NXZ
4F11E0 ?FlushList@gmStatManagementUI@@IAE_NXZ
4F1270 ??1gmStatManagementUI@@UAE@XZ
4F13E0 ??_EgmStatManagementUI@@UAEPAXI@Z
4F1400 ?UpdateCharacterInfo@gmStatManagementUI@@MAE_NABVCACQualities@@@Z
4F1700 ?UpdateExperience@gmStatManagementUI@@MAE_NABVCACQualities@@@Z
4F1B00 ??1InfoRegion@@UAE@XZ
4F1B20 ?GetMouseX@CInputManager@@UAEJXZ
4F1B30 ?GetVitaeModifier@InfoRegion@@UBEJABVCACQualities@@@Z
4F1B40 ?OnQualityRemoved@InfoRegion@@UAEXPAVCWeenieObject@@W4StatType@@K@Z
4F1B70 ?SetState@InfoRegion@@UAE_NK@Z
4F1B90 ?GetLabel@AttributeInfoRegion@@UBE_NAAV?$PStringBase@G@@@Z
4F1BB0 ?GetTooltip@AttributeInfoRegion@@UBE_NAAV?$PStringBase@G@@@Z
4F1BD0 ?GetLabel@Attribute2ndInfoRegion@@UBE_NAAV?$PStringBase@G@@@Z
4F1BF0 ?GetTooltip@Attribute2ndInfoRegion@@UBE_NAAV?$PStringBase@G@@@Z
4F1C10 ?GetLabel@SkillInfoRegion@@UBE_NAAV?$PStringBase@G@@@Z
4F1C30 ?GetVitaeModifier@SkillInfoRegion@@UBEJABVCACQualities@@@Z
4F1CC0 ??_EInfoRegion@@UAEPAXI@Z
4F1CF0 ?SetID@InfoRegion@@QAEXJ@Z
4F1D90 ?GetVitaeModifier@Attribute2ndInfoRegion@@UBEJABVCACQualities@@@Z
4F1E30 ?InqAttribute2ndBase@Attribute2ndTable@@QBEHKAAVAttribute2ndBase@@@Z
4F1EF0 ??0SkillBase@@QAE@XZ
4F1F70 ??1SkillBase@@UAE@XZ
4F1FC0 ??4SkillBase@@QAEAAV0@ABV0@@Z
4F20B0 ??0InfoRegion@@QAE@PAVUIElement_ListBox@@JJW4StatType@@KV?$IDClass@U_tagDataID@@$0CA@$0A@@@@Z
4F2190 ??0AttributeInfoRegion@@QAE@PAVUIElement_ListBox@@JKV?$IDClass@U_tagDataID@@$0CA@$0A@@@_N@Z
4F22E0 ??0Attribute2ndInfoRegion@@QAE@PAVUIElement_ListBox@@JK_NV?$IDClass@U_tagDataID@@$0CA@$0A@@@1@Z
4F24E0 ?get_high_frame@AnimSequenceNode@@QBEHXZ
4F24F0 ??_ESkillBase@@UAEPAXI@Z
4F2510 ?InqSkillBase@SkillTable@@QBEHKAAVSkillBase@@@Z
4F2570 ?Update@AttributeInfoRegion@@UAE_NABVCACQualities@@@Z
4F2640 ?Update@Attribute2ndInfoRegion@@UAE_NABVCACQualities@@@Z
4F2740 ?Update@SkillInfoRegion@@UAE_NABVCACQualities@@@Z
4F2860 ?Update@EffectInfoRegion@@UAE_NN@Z
4F2940 ?Update@InfoRegion@@UAE_NXZ
4F29F0 ?Update@AttributeInfoRegion@@UAE_NABVAppraisalProfile@@@Z
4F2AE0 ?Update@Attribute2ndInfoRegion@@UAE_NABVAppraisalProfile@@@Z
4F2C40 ?GetTooltip@SkillInfoRegion@@UBE_NAAV?$PStringBase@G@@@Z
4F2DA0 ??0SkillInfoRegion@@QAE@PAVUIElement_ListBox@@JJKV?$IDClass@U_tagDataID@@$0CA@$0A@@@_N@Z
4F2FF0 ?GetDuration@EffectInfoRegion@@QAENABVCACQualities@@@Z
4F30A0 ?GetLabel@EffectInfoRegion@@UBE_NAAV?$PStringBase@G@@@Z
4F3160 ?Update@EffectInfoRegion@@UAE_NABVCACQualities@@@Z
4F31C0 ??0EffectInfoRegion@@QAE@PAVUIElement_ListBox@@JK_N@Z
4F32B0 ?get_animframe_id@PhysicsDesc@@QBEKXZ
4F32C0 ??_GAttribute2ndInfoRegion@@UAEPAXI@Z
4F32E0 ??0PlayerOptionPage@@QAE@ABVLayoutDesc@@ABVElementDesc@@@Z
4F3320 ??1PlayerOptionPage@@UAE@XZ
4F3340 ?OnVisibilityChanged@PlayerOptionPage@@MAEX_N@Z
4F3370 ?SaveCurrentValues@PlayerOptionPage@@MAE_NXZ
4F3390 ?AddSeperator@PlayerOptionPage@@IAE_NXZ
4F33B0 ?SetToggleLabel@PlayerOptionPage@@IAEXPAVUIOption_Checkbox@@KK@Z
4F3430 ?OnOptionChanged@PlayerOptionPage@@MAEXPBVUIOption@@@Z
4F34B0 ?OnOptionChangeConfirmed@PlayerOptionPage@@MAEXPBVUIOption@@_N@Z
4F34E0 ??_EPlayerOptionPage@@UAEPAXI@Z
4F3510 ?AddHeader@PlayerOptionPage@@IAE_NK@Z
4F3590 ?AddToggleWithSliderOption@PlayerOptionPage@@IAEPAVUIOption_CheckboxSlider@@ABV?$PStringBase@D@@0@Z
4F35F0 ?AddToggleOption@PlayerOptionPage@@IAEPAVUIOption_Checkbox@@ABV?$PStringBase@D@@@Z
4F3660 ?AddToggleOption@PlayerOptionPage@@IAEPAVUIOption_Checkbox@@W4PlayerOption@@@Z
4F36D0 ?AddSliderOption@PlayerOptionPage@@IAEPAVUIOption_Slider@@ABV?$PStringBase@D@@_N@Z
4F3750 ?AddMenuOption@PlayerOptionPage@@IAEPAVUIOption_Menu@@ABV?$PStringBase@D@@_N@Z
4F37E0 ?SetSliderLabel@PlayerOptionPage@@IAEXPAVUIOption_Slider@@KK@Z
4F38C0 ?SaveCurrentValues@OptionPage@@MAE_NXZ
4F3910 ?RestoreDefaultValues@OptionPage@@MAE_NXZ
4F3960 ?RestoreSavedValues@OptionPage@@MAE_NXZ
4F39C0 ?Changed@OptionPage@@QAE_NXZ
4F3A00 ??0OptionPage@@QAE@ABVLayoutDesc@@ABVElementDesc@@@Z
4F3A50 ??1OptionPage@@UAE@XZ
4F3A90 ??_EOptionPage@@UAEPAXI@Z
4F3AF0 ?RegisterOption@OptionPage@@IAEXPAVUIOption@@@Z
4F3B70 ?TypeIsActive@ChatInterface@@IAE_NK@Z
4F3BB0 ?RecvNotice_PlayerDescReceived@ChatInterface@@MAEXABVCACQualities@@ABVCPlayerModule@@@Z
4F3BC0 ?RecvNotice_ClearChatBuffer@ChatInterface@@MAEXK@Z
4F3BF0 ?ActivateChatEntry@ChatInterface@@IAEXXZ
4F3C20 ?DeactivateChatEntry@ChatInterface@@IAEXXZ
4F3C50 ?HandleCommandOrAliasKey@ChatInterface@@IAEXK@Z
4F3D00 ?IsTextEntryFocused@ChatInterface@@IAE_NXZ
4F3D40 ?RecvNotice_GameplayOptionChanged@ChatInterface@@MAEXABVBaseProperty@@K@Z
4F3D80 ?SetOpacity@ChatInterface@@IAEXM@Z
4F3DC0 ?SetUIObject@ChatInterface@@UAE_NPAVUIObject@@@Z
4F3E20 ?BuildChatColorLookupTable@ChatInterface@@IAEXXZ
4F44A0 ?ListenToGlobalMessage@ChatInterface@@MAEXKJ@Z
4F4580 ?UpdateFromPlayerModule@ChatInterface@@MAEXXZ
4F4640 ?ResizeTo@ChatInterface@@MAEXJJ@Z
4F4690 ?SelectCommandFromHistory@ChatInterface@@IAEX_N@Z
4F4790 ?OnToggleChatEntry@ChatInterface@@IAE_NXZ
4F4820 ?SetDefaultOpacity@ChatInterface@@IAEXM@Z
4F48A0 ?SetActiveOpacity@ChatInterface@@IAEXM@Z
4F4960 ?RemoveOrderedByIndex@?$SmartArray@V?$PStringBase@G@@$00@@QAE_NK@Z
4F4A30 ?PostInit@ChatInterface@@UAEXXZ
4F4BC0 ?OnSetAttribute@ChatInterface@@UAEXABVBaseProperty@@@Z
4F4C40 ?substring@?$PStringBase@G@@QBE?AV1@KK@Z
4F4CE0 ?FindChar@?$PStringBaseIter_Common@G@@QAE_NABV?$PStringBase@G@@_N@Z
4F4DC0 ??1ChatInterface@@UAE@XZ
4F4E50 ?StartTell@ChatInterface@@IAEXABV?$PStringBase@G@@@Z
4F4EF0 ?TruncateChatLog@ChatInterface@@IAEXK@Z
4F50C0 ?RecvNotice_FontSettingsChanged@ChatInterface@@MAEXKK@Z
4F51B0 ??0ChatInterface@@QAE@ABVLayoutDesc@@ABVElementDesc@@@Z
4F5270 ??_GChatInterface@@UAEPAXI@Z
4F52A0 ?RecvNotice_DisplayFinalStringInfo@ChatInterface@@MAEXKABVStringInfo@@0K@Z
4F53C0 ?SetReplyTextInChatBox@ChatInterface@@IAE_NXZ
4F57D0 ?SetMonarchReplyTextInChatBox@ChatInterface@@IAE_NXZ
4F5A80 ?SetPatronReplyTextInChatBox@ChatInterface@@IAE_NXZ
4F5D30 ?HandleTextReplacements@ChatInterface@@IAEXXZ
4F5D60 ?ProcessCommand@ChatInterface@@IAEXXZ
4F5E20 ?ListenToElementMessage@ChatInterface@@MAE?AW4UIElementMessageListenResult@@ABUUIElementMessageInfo@@@Z
4F5F30 ?HandleEnterKey@ChatInterface@@IAEXXZ
4F5FB0 ?HandleReplyKey@ChatInterface@@IAEXK@Z
4F61F0 ?OnChildAction@ChatInterface@@MAE_NABVUIElement@@ABVInputEvent@@@Z
4F62F0 ?OnAction@ChatInterface@@MAE_NABVInputEvent@@@Z
4F64C0 ?ListenToGlobalMessage@gmPanelUI@@UAEXKJ@Z
4F64D0 ?RecvNotice_SetCombatMode@gmEnvPanelUI@@MAEXW4COMBAT_MODE@@@Z
4F64F0 ?ListenToElementMessage@gmCombatPanelUI@@UAE?AW4UIElementMessageListenResult@@ABUUIElementMessageInfo@@@Z
4F6560 ?RecvNotice_SetPanelVisibility@gmCombatPanelUI@@MAEXK_N@Z
4F6680 ?grow@?$SmartArray@UPanelChildInfo@gmCombatPanelUI@@$00@@QAE_NK@Z
4F6740 ??0gmCombatPanelUI@@QAE@ABVLayoutDesc@@ABVElementDesc@@@Z
4F67A0 ?DynamicCast@gmCombatPanelUI@@UAEPAVUIElement@@K@Z
4F67C0 ?GetUIElementType@gmCombatPanelUI@@UBEKXZ
4F67D0 ??1gmCombatPanelUI@@UAE@XZ
4F6840 ?AddToEnd@?$SmartArray@UPanelChildInfo@gmEnvPanelUI@@$00@@QAE_NABUPanelChildInfo@gmEnvPanelUI@@@Z
4F68A0 ??_GgmCombatPanelUI@@UAEPAXI@Z
4F68C0 ?SetupChildren@gmCombatPanelUI@@IAEXXZ
4F6970 ?PostInit@gmCombatPanelUI@@UAEXXZ
4F6980 ?SetSelected@VividTargetIndicator@@IAEXK@Z
4F6A70 ?CopyImage@VividTargetIndicator@@IAEPAVGraphic@@PBVRenderSurface@@ABVRGBAColor@@@Z
4F6BE0 ?RecvNotice_ServerSaysMoveItem@VividTargetIndicator@@MAEXKKKKKHKK@Z
4F6BF0 ?UpdateDisplayState@VividTargetIndicator@@IAEXXZ
4F6C40 ?RecvNotice_PlayerDescReceived@VividTargetIndicator@@MAEXABVCACQualities@@ABVCPlayerModule@@@Z
4F6C90 ?RecvNotice_PlayerOptionChanged@VividTargetIndicator@@MAEXW4PlayerOption@@@Z
4F6CE0 ?SetEnabled@VividTargetIndicator@@QAEX_N@Z
4F6D40 ?RecvNotice_SelectionChanged@VividTargetIndicator@@MAEXXZ
4F6D50 ?RecvNotice_ChangeRadarLook@VividTargetIndicator@@MAEXAAVCWeenieObject@@@Z
4F6D60 ?OnQualityRemoved@VividTargetIndicator@@MAEXPAVCWeenieObject@@W4StatType@@K@Z
4F6D80 ?SetOffScreenImage@VividTargetIndicator@@IAEXKABVRGBAColor@@@Z
4F6DF0 ?SetOnScreenColor@VividTargetIndicator@@IAEXABVRGBAColor@@@Z
4F6E70 ??1VividTargetIndicator@@QAE@XZ
4F6EF0 ?OnDraw@VividTargetIndicator@@IAEXKW4ObjectSelectStatus@@ABUtagRECT@@M@Z
4F7720 ??0VividTargetIndicator@@QAE@XZ
4F7870 ?Draw@VividTargetIndicator@@KAXKW4ObjectSelectStatus@@ABUtagRECT@@M@Z
4F78A0 ?Initialized@VividTargetIndicator@@QAE_NPAVgmSmartBoxUI@@@Z
4F7A50 ?Allocator@CLandBlockInfo@@SAPAVDBObj@@XZ
4F7A70 ?Allocator@CLandBlock@@SAPAVDBObj@@XZ
4F7A90 ??0TransientArchive@@QAE@W4tagUnpacking@Archive@@PAXI@Z
4F7AF0 ?Allocator@CEnvCell@@SAPAVDBObj@@XZ
4F7B10 ?Allocator@CGfxObj@@SAPAVDBObj@@XZ
4F7B30 ?Allocator@CAnimation@@SAPAVDBObj@@XZ
4F7B50 ?Allocator@CSetup@@SAPAVDBObj@@XZ
4F7B70 ?Allocator@Palette@@SAPAVDBObj@@XZ
4F7B90 ?Allocator@ImgTex@@SAPAVDBObj@@XZ
4F7BB0 ?Allocator@CSurface@@SAPAVDBObj@@XZ
4F7BD0 ?Allocator@DBWave@@SAPAVDBObj@@XZ
4F7C00 ?Allocator@CEnvironment@@SAPAVDBObj@@XZ
4F7C20 ?Allocator@ChatPoseTable@@SAPAVDBObj@@XZ
4F7C40 ?Allocator@cWObjHierRootNode@@SAPAVDBObj@@XZ
4F7C60 ?Allocator@BadData@@SAPAVDBObj@@XZ
4F7C80 ?Allocator@TabooTable@@SAPAVDBObj@@XZ
4F7CA0 ?Allocate@DBFile2IDTable@@UBEPAVDBObj@@XZ
4F7CF0 ?GetDBOType@DBFile2IDTable@@UBEKXZ
4F7D00 ??_EDBFile2IDTable@@MAEPAXI@Z
4F7D20 ??1DBFile2IDTable@@MAE@XZ
4F7D40 ?Allocator@NameFilterTable@@SAPAVDBObj@@XZ
4F7D60 ?Allocator@PalSet@@SAPAVDBObj@@XZ
4F7D80 ?Allocator@ClothingTable@@SAPAVDBObj@@XZ
4F7DA0 ?Allocator@GfxObjDegradeInfo@@SAPAVDBObj@@XZ
4F7DC0 ?Allocator@Scene@@SAPAVDBObj@@XZ
4F7DE0 ?Allocator@CRegionDesc@@SAPAVDBObj@@XZ
4F7E00 ?Allocator@CMasterInputMap@@SAPAVDBObj@@XZ
4F7E20 ?Allocator@CSoundTable@@SAPAVDBObj@@XZ
4F7E50 ?Allocator@ActionMap@@SAPAVDBObj@@XZ
4F7E70 ?Allocator@String@@SAPAVDBObj@@XZ
4F7E90 ?Allocator@ParticleEmitterInfo@@SAPAVDBObj@@XZ
4F7EB0 ?Allocator@PhysicsScript@@SAPAVDBObj@@XZ
4F7ED0 ?Allocator@PhysicsScriptTable@@SAPAVDBObj@@XZ
4F7EF0 ?Allocator@DBPropertyCollection@@SAPAVDBObj@@XZ
4F7F20 ?GetCompressedSize@DDD_DataMessage@@QBEIXZ
4F7F40 ?ResetCache@CLCache@@UAEXXZ
4F7F50 ?BlockingGet@CLCache@@UAEPAVDBObj@@KABUQualifiedDataID@@@Z
4F7F60 ?ReloadObject@CLCache@@UAE_NV?$IDClass@U_tagDataID@@$0CA@$0A@@@K@Z
4F7F70 ?SetNetQueue@CLCache@@QAEXPAV?$NIList@PAVNetBlob@@@@@Z
4F7F80 ?WorkerExecuteRequest@CLCache@@MAEXPAUCAsyncRequest@AsyncCache@@@Z
4F7FA0 ?OnRequestFinished@CLCache@@MAEXPAUCAsyncRequest@AsyncCache@@@Z
4F7FC0 ??1?$HashBase@K@@UAE@XZ
4F7FE0 ?InternalInit@?$HashBase@K@@QAEXI@Z
4F8040 ?DeleteCurrent@?$HashBaseIter@K@@QAEXXZ
4F80D0 ?Serialize@SerializeUsingPackDBObj@@UAEXAAVArchive@@@Z
4F8190 ??1SerializeUsingPackDBObj@@UAE@XZ
4F81B0 ??0Font@@QAE@XZ
4F8200 ?GetDBOType@Font@@UBEKXZ
4F8210 ??1Font@@UAE@XZ
4F8270 ?Allocator@Font@@SAPAVDBObj@@XZ
4F82B0 ??0FontLocal@@QAE@XZ
4F8300 ?GetDBOType@FontLocal@@UBEKXZ
4F8310 ?Serialize@FakeMessageData@@UAEXAAVArchive@@@Z
4F8350 ??0DDD_DataMessage@@QAE@XZ
4F8380 ?QueryInterface@CLCache@@UAE?AVTResult@@ABUTurbine_GUID@@PAPAX@Z
4F8430 ?WorkerExecuteBeginDDDRequest@CLCache@@MAEXPAUCAsyncBeginDDDRequest@1@@Z
4F8570 ?InqDatIDStamp@CLCache@@MBE_NAAVDatIDStamp@@@Z
4F85B0 ?AdoptAndDeliverMessage@CLCache@@IAE?AVTResult@@AAVFakeMessageData@@@Z
4F8660 ??_G?$IntrusiveHashTable@UQualifiedDataID@@PAV?$HashTableData@UQualifiedDataID@@PAVMissingIteration@@@@$00@@UAEPAXI@Z
4F86A0 ??_G?$IntrusiveHashTable@_KPAV?$HashTableData@_KPAVDiskController@@@@$0A@@@UAEPAXI@Z
4F86E0 ??_E?$IntrusiveHashTable@V?$IDClass@U_tagDataID@@$0CA@$0A@@@PAV?$HashTableData@V?$IDClass@U_tagDataID@@$0CA@$0A@@@K@@$0A@@@UAEPAXI@Z
4F8720 ??0DiskConInitInfo@@QAE@ABV?$PStringBase@D@@ABV?$PStringBase@G@@W4DATFILE_TYPE@@KKJJJJ_N@Z
4F8790 ??_GCAsyncBeginDDDRequest@CLCache@@MAEPAXI@Z
4F87C0 ??_GSerializeUsingPackDBObj@@UAEPAXI@Z
4F8800 ?Allocate@FontLocal@@UBEPAVDBObj@@XZ
4F8820 ?Serialize@DDD_DataMessage@@UAEXAAVArchive@@@Z
4F88C0 ?SerializeOrWindow@Cache_Pack_t@@QAEXAAVArchive@@@Z
4F89F0 ?Serialize@DDD_RequestDataMessage@@UAEXAAVArchive@@@Z
4F8A70 ?Serialize@DDD_ErrorMessage@@UAEXAAVArchive@@@Z
4F8B00 ?LoadDataEx@CThreadsafeDiskController@@UAE_NV?$IDClass@U_tagDataID@@$0CA@$0A@@@AAVCache_Pack_t@@AAUBTEntry@@K@Z
4F8B50 ?SaveDataEx@CThreadsafeDiskController@@UAE_NAAUBTEntry@@AAVCache_Pack_t@@K@Z
4F8B90 ?DeleteData@CThreadsafeDiskController@@UAE_NV?$IDClass@U_tagDataID@@$0CA@$0A@@@J@Z
4F8BD0 ?DeleteDataByMask@CThreadsafeDiskController@@UAE_NV?$IDClass@U_tagDataID@@$0CA@$0A@@@0@Z
4F8C10 ??1CMostlyConsecutiveIntSet@@QAE@XZ
4F8C30 ??1DDD_InterrogationMessage@@QAE@XZ
4F8C50 ?AsyncGetFromOtherSources@CLCache@@MAE_NABUQualifiedDataID@@PAVDBOCache@@@Z
4F8CB0 ?NotifyDDDEvent@CLCache@@IAEXW4DDDEvent@@I@Z
4F8CF0 ??0MissingIteration@@QAE@XZ
4F8D10 ??1MissingIteration@@QAE@XZ
4F8D60 ??0CThreadsafeDiskController@@QAE@XZ
4F8D90 ?GetValidLocations@HookAppraisalProfile@@QBEKXZ
4F8DA0 ?GetGlobalTradeRoomID@ChatRoomTracker@@QBEKXZ
4F8DB0 ?GetDatFileID@DiskConBase@@UBE_KXZ
4F8DD0 ?IsInitialized@DiskConBase@@UAE_NXZ
4F8DE0 ?IsReadOnly@DiskConBase@@UAE_NXZ
4F8DF0 ?IsExpandable@DiskConBase@@UAE_NXZ
4F8E00 ?HowmuchFreeSpace@DiskController@@UAEJXZ
4F8E10 ?GetDatIDStamp@DiskController@@UBE?AVDatIDStamp@@XZ
4F8E30 ?GetFilename@DiskController@@UBEABV?$PStringBase@D@@XZ
4F8E40 ?GetMasterMapDID@DiskController@@UAE?AV?$IDClass@U_tagDataID@@$0CA@$0A@@@XZ
4F8E50 ??_GCThreadsafeDiskController@@UAEPAXI@Z
4F8E90 ?AsyncSaveDDDMessage@CLCache@@MAE?AVAsyncContext@@PBVDDD_DataMessage@@@Z
4F8F80 ??_EMissingIteration@@QAEPAXI@Z
4F9060 ??_EPTaggedIterationList@CAllIterationList@@QAEPAXI@Z
4F90F0 ??4?$SmartArray@UQualifiedDataID@@$00@@QAEAAV0@ABV0@@Z
4F9190 ?Serialize@DDD_InterrogationMessage@@UAEXAAVArchive@@@Z
4F9260 ?InitFile@CThreadsafeDiskController@@UAE_NAAUDiskConInitInfo@@@Z
4F92D0 ?SetRegion@CLCache@@UAE_NK@Z
4F95F0 ?SetLanguageInternal@CLCache@@MAE_NK_N@Z
4F9AE0 ??4MissingIteration@@QAEAAV0@ABV0@@Z
4F9B20 ??1DDD_BeginDDDMessage@@QAE@XZ
4F9B40 ?GetDiskController@CLCache@@MAEPAVDiskController@@ABUQualifiedDataID@@_K@Z
4F9C30 ?IsDatFileLoaded@CLCache@@UBE_N_K@Z
4F9C70 ??_E?$LongNIValHash@K@@UAEPAXI@Z
4F9CB0 ??_E?$LongNIValHash@PAV?$LongHash@VMotionData@@@@@@UAEPAXI@Z
4F9CF0 ??0?$IntrusiveHashTable@_KPAV?$HashTableData@_KPAVDiskController@@@@$0A@@@QAE@I@Z
4F9D80 ??0?$IntrusiveHashTable@V?$IDClass@U_tagDataID@@$0CA@$0A@@@PAV?$HashTableData@V?$IDClass@U_tagDataID@@$0CA@$0A@@@K@@$0A@@@QAE@I@Z
4F9E10 ??0?$IntrusiveHashTable@UQualifiedDataID@@PAV?$HashTableData@UQualifiedDataID@@PAVMissingIteration@@@@$00@@QAE@I@Z
4F9EA0 ?Reset@?$SmartArray@VMissingIteration@@$00@@QAEXXZ
4F9F80 ??_G?$List@PAUCAsyncRequest@AsyncCache@@@@UAEPAXI@Z
4F9FB0 ?grow@?$SmartArray@VMissingIteration@@$00@@QAE_NK@Z
4FA080 ??0CMotionTable@@QAE@XZ
4FA250 ??_ECMotionTable@@UAEPAXI@Z
4FA270 ??_ECMotionTable@@WDA@AEPAXI@Z
4FA280 ?Allocator@CMotionTable@@SAPAVDBObj@@XZ
4FA2A0 ?Serialize@DDD_InterrogationResponseMessage@@UAEXAAVArchive@@@Z
4FA350 ?resize_internal@?$IntrusiveHashTable@UQualifiedDataID@@PAV?$HashTableData@UQualifiedDataID@@PAVMissingIteration@@@@$00@@IAE_NK@Z
4FA490 ??4?$SmartArray@VMissingIteration@@$00@@QAEAAV0@ABV0@@Z
4FA5C0 ??1ThreadedCache@@UAE@XZ
4FA660 ?OnBeginDDD@CLCache@@IAEXPBVDDD_BeginDDDMessage@@@Z
4FA6E0 ?Serialize@DDD_BeginDDDMessage@@UAEXAAVArchive@@@Z
4FA740 ?Serialize@?$SmartArray@VMissingIteration@@$00@@QAEXAAVArchive@@@Z
4FA7D0 ?SetNElements@?$SmartArray@VMissingIteration@@$00@@QAE_NK_N@Z
4FA8B0 ?Init@CLCache@@UAE_NABV?$PStringBase@D@@_N111KJ@Z
4FADF0 ?LoadHighResDat@CLCache@@IAEXXZ
4FAF80 ?OnServerInterrogation@CLCache@@IAEXPBVDDD_InterrogationMessage@@@Z
4FB190 ??1?$HashTable@V?$IDClass@U_tagDataID@@$0CA@$0A@@@K$0A@@@UAE@XZ
4FB1D0 ??_E?$HashTable@_KPAVDiskController@@$0A@@@UAEPAXI@Z
4FB230 ??_E?$HashTable@V?$IDClass@U_tagDataID@@$0CA@$0A@@@K$0A@@@UAEPAXI@Z
4FB290 ?RemovePendingDownload@CLCache@@IAE_NABUQualifiedDataID@@@Z
4FB450 ?OnEndDDD@CLCache@@IAEXXZ
4FB4E0 ?OnBeginDDDRequestFinished@CLCache@@MAEXPAUCAsyncBeginDDDRequest@1@@Z
4FB7E0 ?Allocate@DualEnumIDMap@@UBEPAVDBObj@@XZ
4FB820 ??_GDualEnumIDMap@@UAEPAXI@Z
4FB850 ?Init_Internal@CLCache@@MAEXXZ
4FC9D0 ??1CLCache@@MAE@XZ
4FCB90 ?SetShouldExit@PortalThread@@UAEX_N@Z
4FCBB0 ??_ECLCache@@OBDA@AEPAXI@Z
4FCBC0 ?AddRef@CLCache@@UBEKXZ
4FCBD0 ?Release@CLCache@@UBEKXZ
4FCBE0 ?UseTime@CLCache@@UAEXXZ
4FCE71 def_4FCC70
4FCE84 jpt_4FCC70
4FCEB0 ?OnSaveRequestFinished@CLCache@@MAEXPAUCAsyncSaveRequest@@@Z
4FCF30 ??_G?$AutoGrowHashTable@UQualifiedDataID@@PAVMissingIteration@@@@UAEPAXI@Z
4FCF90 ??0CLCache@@QAE@XZ
4FD080 ??_GCLCache@@MAEPAXI@Z
4FD0A0 ??0CLOCache@@QAE@P6APAVDBObj@@XZK@Z
4FD0C0 ?ServerSaysAttemptFailed_s@GenItemHolder@@SAXK@Z
4FD0D0 ?SetSelectedItem_s@GenItemHolder@@SAXKK@Z
4FD0E0 ?ItemAttributesChanged_s@GenItemHolder@@SAXKH@Z
4FD0F0 ?ServerSaysMoveItem_s@GenItemHolder@@SAXKKKKKHKK@Z
4FD160 ?OnShutdown@IQueuedUIEventDeliverer@@UAEXXZ
4FD170 IQueuedUIEventDeliverer::IQueuedUIEventDeliverer
4FD180 ?UNPACK_TYPE@PackObj@@SAHAAHAAPAXAAI@Z
4FD1B0 ?ALIGN_PTR@PackObj@@SAIAAPAX@Z
4FD1F0 ?GetPackSize@?$PStringBase@D@AC1Legacy@@QBEIXZ
4FD220 ??1cWObjHierNode@@QAE@XZ
4FD290 ?Pack@?$PStringBase@D@AC1Legacy@@QBEIAAPAXI@Z
4FD360 ??0cWObjHierRootNode@@QAE@V?$IDClass@U_tagDataID@@$0CA@$0A@@@@Z
4FD3C0 ??_EcWObjHierRootNode@@WDA@AEPAXI@Z
4FD3D0 ?Pack@cWObjHierNode@@QAEIAAPAXI@Z
4FD460 ?UnPack@?$PStringBase@D@AC1Legacy@@QAEHAAPAXI@Z
4FD550 ?Allocate@cWObjHierRootNode@@UBEPAVDBObj@@XZ
4FD560 ??_EcWObjHierRootNode@@UAEPAXI@Z
4FD590 ?pack_size@cWObjHierNode@@QAEIXZ
4FD600 ?UnPack@cWObjHierNode@@QAEHAAPAXI@Z
4FD720 ?Pack@cWObjHierRootNode@@UAEIAAPAXI@Z
4FD750 ?UnPack@cWObjHierRootNode@@UAEHAAPAXI@Z
4FD7A0 ?EncumbranceCapacity@EncumbranceSystem@@SAJJJ@Z
4FD7E0 ?Load@EncumbranceSystem@@SAMJJ@Z
4FD810 ?LoadMod@EncumbranceSystem@@SAMM@Z
4FD850 ??0ItemUses@@QAE@K@Z
4FD860 ?IsUseable@ItemUses@@QAEHXZ
4FD870 ?GetLeastLimitedSourceUse@ItemUses@@QAE?AW4ITEM_USEABLE@@XZ
4FD8B0 ?IsUseable_Targeted@ItemUses@@QAEHXZ
4FD8D0 ?IsUseable_SelfTarget@ItemUses@@QAEHXZ
4FD8F0 ?GetLeastLimitedTargetUse@ItemUses@@QAE?AW4ITEM_USEABLE@@XZ
4FD950 ?UnPack@ChatPoseTable@@UAEHAAPAXI@Z
4FD9D0 ??1ChatEmoteData@@UAE@XZ
4FDA20 ?Pack@ChatEmoteData@@UAEIAAPAXI@Z
4FDA50 ?EmptyContents@?$PackableHashTable@V?$CaseInsensitiveStringBase@V?$PStringBase@D@AC1Legacy@@@AC1Legacy@@V?$PStringBase@D@2@@@QAEXXZ
4FDB00 ?EmptyContents@?$PackableHashTable@V?$PStringBase@D@AC1Legacy@@VChatEmoteData@@@@QAEXXZ
4FDBE0 ?UnPack@ChatEmoteData@@UAEHAAPAXI@Z
4FDC20 ?Pack@?$PackableHashTable@V?$CaseInsensitiveStringBase@V?$PStringBase@D@AC1Legacy@@@AC1Legacy@@V?$PStringBase@D@2@@@UAEIAAPAXI@Z
4FDCB0 ?pack_size@?$PackableHashTable@V?$CaseInsensitiveStringBase@V?$PStringBase@D@AC1Legacy@@@AC1Legacy@@V?$PStringBase@D@2@@@QAEIXZ
4FDD20 ?Pack@?$PackableHashTable@V?$PStringBase@D@AC1Legacy@@VChatEmoteData@@@@UAEIAAPAXI@Z
4FDDB0 ?pack_size@?$PackableHashTable@V?$PStringBase@D@AC1Legacy@@VChatEmoteData@@@@QAEIXZ
4FDE20 ??1?$PackableHashTable@V?$CaseInsensitiveStringBase@V?$PStringBase@D@AC1Legacy@@@AC1Legacy@@V?$PStringBase@D@2@@@UAE@XZ
4FDE60 ?UnPack@?$PackableHashTable@V?$CaseInsensitiveStringBase@V?$PStringBase@D@AC1Legacy@@@AC1Legacy@@V?$PStringBase@D@2@@@UAEHAAPAXI@Z
4FDFC0 ?add@?$PackableHashTable@V?$CaseInsensitiveStringBase@V?$PStringBase@D@AC1Legacy@@@AC1Legacy@@V?$PStringBase@D@2@@@QAEHABV?$CaseInsensitiveStringBase@V?$PStringBase@D@AC1Legacy@@@AC1Legacy@@ABV?$PStringBase@D@3@@Z
4FE050 ?case_insensitive_hash@?$CaseInsensitiveStringBase@V?$PStringBase@D@AC1Legacy@@@AC1Legacy@@QBEKXZ
4FE0A0 ?lookup@?$PackableHashTable@V?$CaseInsensitiveStringBase@V?$PStringBase@D@AC1Legacy@@@AC1Legacy@@V?$PStringBase@D@2@@@QBEPAV?$PStringBase@D@AC1Legacy@@ABV?$CaseInsensitiveStringBase@V?$PStringBase@D@AC1Legacy@@@3@@Z
4FE100 ??1?$PackableHashTable@V?$PStringBase@D@AC1Legacy@@VChatEmoteData@@@@UAE@XZ
4FE140 ?UnPack@?$PackableHashTable@V?$PStringBase@D@AC1Legacy@@VChatEmoteData@@@@UAEHAAPAXI@Z
4FE2A0 ??0ChatEmoteData@@QAE@XZ
4FE2E0 ??_GChatEmoteData@@UAEPAXI@Z
4FE340 ?add@?$PackableHashTable@V?$PStringBase@D@AC1Legacy@@VChatEmoteData@@@@QAEHABV?$PStringBase@D@AC1Legacy@@ABVChatEmoteData@@@Z
4FE3A0 ?lookup@?$PackableHashTable@V?$PStringBase@D@AC1Legacy@@VChatEmoteData@@@@QBEPAVChatEmoteData@@ABV?$PStringBase@D@AC1Legacy@@@Z
4FE440 ?compute_hash@?$PStringBase@D@AC1Legacy@@IBEKXZ
4FE490 ??0?$PackableHashData@V?$PStringBase@D@AC1Legacy@@VChatEmoteData@@@@QAE@ABV?$PStringBase@D@AC1Legacy@@ABVChatEmoteData@@H@Z
4FE500 ??_E?$PackableHashTable@V?$CaseInsensitiveStringBase@V?$PStringBase@D@AC1Legacy@@@AC1Legacy@@V?$PStringBase@D@2@@@UAEPAXI@Z
4FE550 ??_G?$PackableHashTable@V?$PStringBase@D@AC1Legacy@@VChatEmoteData@@@@UAEPAXI@Z
4FE5A0 ??0ChatPoseTable@@QAE@V?$IDClass@U_tagDataID@@$0CA@$0A@@@@Z
4FE610 ?GetUIElementType@UIElement_GroupBox@@UBEKXZ
4FE620 ??_EChatPoseTable@@WDA@AEPAXI@Z
4FE630 ?Allocate@ChatPoseTable@@UBEPAVDBObj@@XZ
4FE640 ??_GChatPoseTable@@UAEPAXI@Z
4FE6B0 ?UnPack@?$PackableHashTable@V?$IDClass@U_tagDataID@@$0CA@$0A@@@H@@UAEHAAPAXI@Z
4FE7E0 ??_E?$PackableHashTable@V?$IDClass@U_tagDataID@@$0CA@$0A@@@H@@UAEPAXI@Z
4FE830 ??0BadData@@QAE@V?$IDClass@U_tagDataID@@$0CA@$0A@@@@Z
4FE880 ??_EBadData@@WDA@AEPAXI@Z
4FE8D0 ?Reset@?$SmartArray@VCharacterIdentity@@@AC1Legacy@@QAEXXZ
4FE910 ?RemoveOrderedByIndex@?$SmartArray@VCharacterIdentity@@@AC1Legacy@@QAEHK@Z
4FE960 ?ClearIdentity@CharacterSet@@QAEXH@Z
4FE980 ?GetName@CharacterSet@@QAEPBDH@Z
4FE9B0 ?GetGID@CharacterSet@@QAEKH@Z
4FE9E0 ?GetSlot@CharacterSet@@QAEHK@Z
4FEA20 ?GetGreyedOutFor@CharacterSet@@QAEKH@Z
4FEA60 ?grow@?$SmartArray@VCharacterIdentity@@@AC1Legacy@@QAEHK@Z
4FEB40 ??1CharacterIdentity@@UAE@XZ
4FEB70 ??_ECharacterIdentity@@UAEPAXI@Z
4FEC30 ?pack_size@CharacterSet@@QAEIXZ
4FECE0 ?Pack@CharacterSet@@UAEIAAPAXI@Z
4FEDC0 ?UnPack@CharacterSet@@UAEHAAPAXI@Z
4FEF70 ?AddIdentity@CharacterSet@@QAEHAAVCharacterIdentity@@@Z
4FEFF0 ??4CharacterSet@@QAEAAV0@ABV0@@Z
4FF180 ??0CharacterIdentity@@QAE@XZ
4FF1B0 ?pack_size@CharacterIdentity@@QAEIXZ
4FF200 ?Pack@CharacterIdentity@@UAEIAAPAXI@Z
4FF2A0 ??4CharacterIdentity@@QAEAAV0@ABV0@@Z
4FF300 ?UnPack@CharacterIdentity@@UAEHAAPAXI@Z
4FF370 ?SetRegion@CRegionDesc@@SA_NK@Z
4FF3B0 ?RemoveCurrentRegion@CRegionDesc@@SAXXZ
4FF3E0 ?NumSceneType@CRegionDesc@@QAEKK@Z
4FF3F0 ?SceneCount@CRegionDesc@@QAEKKK@Z
4FF400 ?IsPalShifted@CRegionDesc@@QAEHXZ
4FF420 ?CalcDayGroup@CRegionDesc@@SAXXZ
4FF440 ?GetLighting@CRegionDesc@@SAHMAAMAAVRGBAUnion@@AAVVector3@AC1Legacy@@1@Z
4FF480 ?GetWorldFog@CRegionDesc@@SAHMAAM0AAVRGBAUnion@@@Z
4FF4B0 ?GetSky@CRegionDesc@@SAHMAAV?$SmartArray@VCelestialPosition@@@AC1Legacy@@@Z
4FF4E0 ?InitSoundTable@AmbientSTBDesc@@QAEHXZ
4FF530 ?GetSTBDesc@CRegionDesc@@QAEPAVAmbientSTBDesc@@KK@Z
4FF570 ?GetScene@CRegionDesc@@QAE?AV?$IDClass@U_tagDataID@@$0CA@$0A@@@KKK@Z
4FF5A0 ?Pack@RegionMisc@@QAEIAAPAXAAI@Z
4FF640 ?UnPack@RegionMisc@@QAEHAAPAXAAI@Z
4FF6E0 ??0CRegionDesc@@QAE@V?$IDClass@U_tagDataID@@$0CA@$0A@@@@Z
4FF760 ??_ECRegionDesc@@WDA@AEPAXI@Z
4FF770 ?Destroy@CRegionDesc@@UAEXXZ
4FF840 ?GetSubDataIDs@CRegionDesc@@UBEXAAVQualifiedDataIDArray@@@Z
4FF8C0 ?Allocate@CRegionDesc@@UBEPAVDBObj@@XZ
4FF8D0 ?pack_size@CRegionDesc@@QAEIXZ
4FF970 ?Pack@CRegionDesc@@UAEIAAPAXI@Z
4FFEC0 ?UnPack@CRegionDesc@@UAEHAAPAXI@Z
500460 ??_GCRegionDesc@@UAEPAXI@Z
5004C0 ?CleanupSurface@PalShift@@QAEXPAVCSurface@@@Z
5004E0 ?GetBeginRotIx@PalShift@@AAEKJJQAKH@Z
500570 ?grow@?$SmartArray@PAVSkyTimeOfDay@@@AC1Legacy@@QAEHK@Z
500610 ?ALIGN_PTR@PackObj@@SAHAAPAXAAI@Z
500660 ??0Subpalette@@QAE@XZ
500680 ??0PalShift@@QAE@XZ
5006A0 ?MakeSubPal@PalShift@@AAEXAAKAAPAVSubpalette@@KQAV?$IDClass@U_tagDataID@@$0CA@$0A@@@K@Z
500820 ??_ESubpalette@@UAEPAXI@Z
500880 ?CheckTerrain@PalShift@@AAEHKQAV?$IDClass@U_tagDataID@@$0CA@$0A@@@@Z
500980 ?CheckRot@PalShift@@AAEHKAAK@Z
5009F0 ?pack_size@PalShift@@QAEIXZ
500A40 ?Destroy@PalShiftTex@@QAEXXZ
500B30 ?Pack@PalShiftTex@@QAEIAAPAXAAI@Z
500CE0 ?GetSubDataIDs@PalShift@@QBEXAAVQualifiedDataIDArray@@@Z
500D90 ?SelectRot@PalShift@@QAEKJJAAW4Rotation@LandDefs@@QAKKQAV?$IDClass@U_tagDataID@@$0CA@$0A@@@AAKH@Z
500EA0 ?MakeNewSurface@PalShift@@QAEPAVCSurface@@KKQAV?$IDClass@U_tagDataID@@$0CA@$0A@@@K@Z
500F20 ?Pack@PalShift@@QAEIAAPAXAAI@Z
500F70 ?UnPack@PalShiftTex@@QAEHAAPAXAAI@Z
501280 ?Destroy@PalShift@@QAEXXZ
501320 ?UnPack@PalShift@@QAEHAAPAXAAI@Z
501430 ??1PalShift@@QAE@XZ
501450 ??1FileNameDesc@@QAE@XZ
5014D0 ?Destroy@SkyObject@@QAEXXZ
501530 ?GetTimeOfDay@DayGroup@@QAEHMAAPAVSkyTimeOfDay@@0AAM@Z
5015D0 ??0SkyDesc@@QAE@XZ
501600 ?GetLighting@SkyDesc@@QAEXMAAMAAVRGBAUnion@@AAVVector3@AC1Legacy@@1@Z
501860 ?GetWorldFog@SkyDesc@@QAEHMAAM0AAVRGBAUnion@@@Z
501990 ?CalcPresentDayGroup@SkyDesc@@QAEXXZ
501A20 ?Pack@SkyObject@@QAEIAAPAXAAI@Z
501B20 ?UnPack@SkyObject@@QAEHAAPAXAAI@Z
501C20 ?Pack@SkyObjectReplace@@QAEIAAPAXAAI@Z
501CD0 ?UnPack@SkyObjectReplace@@QAEHAAPAXAAI@Z
501D80 ??1SkyTimeOfDay@@QAE@XZ
501DE0 ?Pack@SkyTimeOfDay@@QAEIAAPAXAAI@Z
501F50 ?GetSubDataIDs@SkyDesc@@QBEXAAVQualifiedDataIDArray@@@Z
502040 ?grow@?$SmartArray@VCelestialPosition@@@AC1Legacy@@QAEHK@Z
502100 ?UnPack@SkyTimeOfDay@@QAEHAAPAXAAI@Z
5022D0 ?Destroy@DayGroup@@QAEXXZ
5023C0 ?pack_size@DayGroup@@QAEIXZ
502450 ?Pack@DayGroup@@QAEIAAPAXAAI@Z
502500 ?pack_size@SkyDesc@@QAEIXZ
502540 ?Pack@SkyDesc@@QAEIAAPAXAAI@Z
5025C0 ?UnPack@DayGroup@@QAEHAAPAXAAI@Z
502820 ?UnPack@SkyDesc@@QAEHAAPAXAAI@Z
502970 ?Destroy@SkyDesc@@QAEXXZ
502A10 ?GetSky@SkyDesc@@QAEHMAAV?$SmartArray@VCelestialPosition@@@AC1Legacy@@@Z
502DA0 ??1SkyDesc@@QAE@XZ
502DC0 ?Destroy@CSceneDesc@@QAEXXZ
502E20 ?pack_size@CSceneDesc@@QAEIXZ
502E50 ??1CSceneDesc@@QAE@XZ
502E70 ?GetSubDataIDs@CSceneDesc@@QBEXAAVQualifiedDataIDArray@@@Z
502EF0 ?Add@CSceneDesc@@QAEHPAVCSceneType@@@Z
502F30 ?GetSubDataIDs@CTerrainDesc@@QBEXAAVQualifiedDataIDArray@@@Z
502F40 ??0Box2D@@QAE@XZ
502F50 ?GetSTBDesc@CTerrainDesc@@QAEPAVAmbientSTBDesc@@KK@Z
502F80 ?NumSceneType@CTerrainDesc@@QAEKK@Z
502FA0 ?SceneCount@CTerrainDesc@@QAEKKK@Z
502FD0 ?GetScene@CTerrainDesc@@QAE?AV?$IDClass@U_tagDataID@@$0CA@$0A@@@KKK@Z
503010 ??0CTerrainType@@QAE@XZ
503050 ?Destroy@CTerrainDesc@@QAEXXZ
503100 ?Add@CTerrainDesc@@QAEHPAVCTerrainType@@@Z
503150 ?pack_size@CTerrainDesc@@QAEIXZ
5031C0 ??1CTerrainDesc@@QAE@XZ
5031E0 ??0CSceneDesc@@QAE@XZ
5031F0 ?Destroy@CSoundDesc@@QAEXXZ
503250 ?pack_size@CSoundDesc@@QAEIXZ
5032A0 ?Pack@CSoundDesc@@QAEIAAPAXAAI@Z
503310 ??1CSoundDesc@@QAE@XZ
503330 ?GetSubDataIDs@CSoundDesc@@QBEXAAVQualifiedDataIDArray@@@Z
503380 ?UnPack@CSoundDesc@@QAEHAAPAXAAI@Z
503440 ?Destroy@CEncounterDesc@@QAEXXZ
5034C0 ??1CEncounterDesc@@QAE@XZ
5034D0 ?GetSubDataIDs@LandSurf@@QBEXAAVQualifiedDataIDArray@@@Z
5034F0 ?pack_size@LandSurf@@QAEIXZ
503510 ?NextFree@LandSurf@@AAEKXZ
5035E0 ?GetDetailTiling@LandSurf@@QBEKK@Z
503600 ?Destroy@LandSurf@@QAEXXZ
503670 ?Pack@LandSurf@@QAEIAAPAXAAI@Z
5036D0 ?UnPack@LandSurf@@QAEHAAPAXAAI@Z
503770 ?GetDetailTex@LandSurf@@QBE?AV?$IDClass@U_tagDataID@@$0CA@$0A@@@K@Z
5037A0 ??1LandSurf@@QAE@XZ
5037D0 ?add@?$LongNIValHash@PAVSurfInfo@@@@QAEXPAVSurfInfo@@K@Z
503830 ??0LandSurf@@QAE@XZ
5038E0 ?AddNewSurface@LandSurf@@AAEHPAVCSurface@@KAAK@Z
503950 ?RemoveSurface@LandSurf@@QAEXK@Z
503A60 ??_E?$LongNIValHash@PAVSurfInfo@@@@UAEPAXI@Z
503A80 ??1?$LongNIValHash@PAVSurfInfo@@@@UAE@XZ
503AD0 ?SelectTerrain@LandSurf@@QAEHJJAAKAAW4Rotation@LandDefs@@QAKKH@Z
503C20 ?pack_size@CSceneType@@QAEIXZ
503C30 ?pack@CSceneType@@QAEIAAPAXAAI@Z
503C90 ??0CSceneType@@QAE@XZ
503CC0 ??1CSceneType@@QAE@XZ
503D20 ?unpack@CSceneType@@QAEHAAPAXAAI@Z
503E30 ?CleanupSurface@TexMerge@@QAEXPAVCSurface@@@Z
503F50 ?Get@ImgTex@@SAPAV1@V?$IDClass@U_tagDataID@@$0CA@$0A@@@@Z
504400 ?pack_size@TexMerge@@QAEIXZ
504440 ?GetDetailTex@TexMerge@@QBE?AV?$IDClass@U_tagDataID@@$0CA@$0A@@@K@Z
504470 ?GetDetailTiling@TexMerge@@QBEKK@Z
504490 ?Pack@TerrainTex@@QAEIAAPAXAAI@Z
504710 ?GetSubDataIDs@TexMerge@@QBEXAAVQualifiedDataIDArray@@@Z
505330 ??1TexMerge@@QAE@XZ
505370 ?RestoreSurface@TexMerge@@SA_NPAVCSurface@@@Z
505410 ?MakeNewSurface@TexMerge@@QAEPAVCSurface@@KK@Z
5054A0 ?adjust_to_outside@Position@@QAEXXZ
5055C0 ?release_all@LScape@@QAEXXZ
505660 ?SetMidRadius@LScape@@QAEHJ@Z
505690 ?set_sky_position@LScape@@QAEXABVPosition@@@Z
505920 ?grab_visible_cells@LScape@@QAEXXZ
5059B0 ?release_visible_cells@LScape@@QAEXXZ
5059F0 ?get_block_orient@LScape@@AAEXJJAAJAAW4Direction@LandDefs@@@Z
505B00 ?landcell_check@LScape@@AAEXPAVCLandBlock@@@Z
505D40 ?SetDay@LScape@@SAXH@Z
505D80 ?get_block_did@LandDefs@@SA?AV?$IDClass@U_tagDataID@@$0CA@$0A@@@JJ@Z
505DD0 ??0LScape@@QAE@XZ
5060C0 ?PreFetchCells@LScape@@QAEHV?$IDClass@U_tagDataID@@$0CA@$0A@@@AAK@Z
506270 ?add_ambient_sounds@LScape@@QAEXPAVAmbient@@@Z
5062E0 ?UseTime@LScape@@QAEXXZ
506970 ?get_landcell@LScape@@QAEPAVCLandCell@@K@Z
5075A0 ?SetDetailTexturing@LScape@@QAE_NHHHH@Z
507710 ?ChangeRegion@LScape@@QAEXXZ
507730 ?update_loadpoint@LScape@@QAEXK@Z
507820 Position::get_origin
508200 ?grow@?$DArray@PAVCPhysicsObj@@@@QAEXK@Z
508290 ?shrink@?$DArray@PAVCPhysicsObj@@@@QAEXK@Z
508360 ?QueryInterface@CObjectMaint@@UAE?AVTResult@@ABUTurbine_GUID@@PAPAX@Z
508420 ?remove_object@CLostCell@@QAEPAVCPhysicsObj@@PAV2@@Z
508470 ?Insert@?$PQueueArray@N@AC1Legacy@@QAEXNPAX@Z
5084F0 ?RemoveMin@?$PQueueArray@N@AC1Legacy@@QAEHAANPAPAX@Z
5085F0 ?remove@?$HashBase@K@@QAEPAV?$HashBaseData@K@@K@Z
508650 ?_QueryInterface@?$InterfacePtr@VInterface@@@@AAE?AVTResult@@PAVCObjectMaint@@@Z
5086E0 ?ReleaseObjCell@CObjectMaint@@QAEXPAVCObjCell@@@Z
5087C0 ?OnShutdown@CObjectMaint@@MAEXXZ
508810 ?AddObject@CObjectMaint@@QAEXPAVCPhysicsObj@@@Z
508850 ?AddWeenieObject@CObjectMaint@@QAEXPAVCWeenieObject@@@Z
508890 ?GetObjectA@CObjectMaint@@QAEPAVCPhysicsObj@@K@Z
5088E0 ?GetWeenieObject@CObjectMaint@@QAEPAVCWeenieObject@@K@Z
508930 ?GetObjectInventory@CObjectMaint@@QAEPAVCObjectInventory@@K@Z
508980 ?UnRegisterAllNoticeHandlers@CObjectMaint@@QAEXPAVNoticeHandler@@@Z
508A10 ?find@?$IntrusiveHashTable@KPAVCLostCell@@$0A@@@QBEPAVCLostCell@@ABK@Z
508A40 ?GetObjectA@CObjectMaint@@QAEHKAAPAVCPhysicsObj@@AAPAVCWeenieObject@@@Z
508A80 ?RemoveFromLostCell@CObjectMaint@@QAEXPAVCPhysicsObj@@@Z
508AC0 ??0?$IntrusiveHashTable@KPAVCLostCell@@$0A@@@QAE@I@Z
508B50 ??0?$IntrusiveHashTable@KPAV?$HashTableData@KN@@$0A@@@QAE@I@Z
508BE0 ?delete_contents@?$IntrusiveHashTable@KPAVCLostCell@@$0A@@@QAEXXZ
508C70 ?GetLostCell@CObjectMaint@@IAEPAVCLostCell@@K@Z
508CE0 ?GotoLostCell@CObjectMaint@@QAEXPAVCPhysicsObj@@K@Z
508D30 ?InitObjCell@CObjectMaint@@QAEXPAVCObjCell@@@Z
508DA0 ?add@?$HashTable@KN$0A@@@QAE_NABKABN@Z
508E00 ??_G?$HashTable@KN$0A@@@UAEPAXI@Z
508E60 ?UpdateVisibleObjectList@CObjectMaint@@IAEXXZ
508F10 ?RemoveObjectToBeDestroyed@CObjectMaint@@QAEXK@Z
508F30 ?DeleteObject@CObjectMaint@@IAEXPAVCPhysicsObj@@@Z
508FA0 ?DeleteObject@CObjectMaint@@UAEHK@Z
5090A0 ??0CObjectMaint@@IAE@XZ
509410 ?CreateObject@CObjectMaint@@UAEPAVCPhysicsObj@@KPAVVisualDesc@@PAVPhysicsDesc@@PAVWeenieDesc@@@Z
509420 ?RecvNotice_UpdateRentPayment@gmNoticeHandler@@UAEXABVHousePaymentList@@@Z
509430 ?DynamicCast_UIViewportObject@UIObject@@UBEPBVUIViewportObject@@XZ
509440 ?AddRef@ClientMagicSystem@@UBEKXZ
509450 ?Release@CObjectMaint@@UBEKXZ
509480 ?UseTime@CObjectMaint@@QAEXXZ
509700 ?DestroyObjects@CObjectMaint@@QAEXXZ
509A40 ?AddObjectToBeDestroyed@CObjectMaint@@QAEXK@Z
509AB0 ?GetNullObject@CObjectMaint@@IAEPAVCPhysicsObj@@KH@Z
509B60 ?GetNullWeenieObject@CObjectMaint@@IAEPAVCWeenieObject@@KH@Z
509C10 ??1CObjectMaint@@MAE@XZ
509DA0 ?QueueBlobForObject@CObjectMaint@@QAEXKPAVNetBlob@@@Z
509DE0 ?QueueBlobForWeenieObject@CObjectMaint@@QAEXKIPAVNetBlob@@@Z
509E10 ?QueueBlobForWeenieObject@CObjectMaint@@QAEXKPAVNetBlob@@@Z
509E40 ?SetChildren@CObjectMaint@@QAEXPAVCPhysicsObj@@PAVPhysicsDesc@@@Z
509EE0 ??_GCObjectMaint@@MAEPAXI@Z
509F00 ?queue_netblob@CWeenieObject@@QAEXIPAVNetBlob@@@Z
509F30 ?fIsNextBlob@CWeenieObject@@QAEHIPAVNetBlob@@PAPAV2@@Z
509F50 ?queue_netblob@CWeenieObject@@QAEXPAVNetBlob@@@Z
509FD0 ?process_netblobs@CWeenieObject@@UAEXXZ
50A0B0 ?ObjectBeingDeleted@CWeenieObject@@UAEXXZ
50A140 ?DynamicCast_DeleteLeaf@DeleteLeafTransactInfo@@UBEPBV1@XZ
50A150 ?SetWindowID@QuickWindow@@QAEXK@Z
50A160 ?SetObjectMovement@CPhysics@@QAEHPAVCPhysicsObj@@PAXIGGH@Z
50A230 ?RemoveStaticAnimatingObject@CPhysics@@SAXPAVCPhysicsObj@@@Z
50A260 ?SetObjectMovement@CPhysics@@QAEHPAVCPhysicsObj@@PAXI@Z
50A2F0 ?UpdateTexVelocity@CPhysics@@KAXM@Z
50A3E0 ??1CPhysics@@QAE@XZ
50A420 ?UseTime@CPhysics@@QAEXXZ
50A530 ??0CPhysics@@QAE@PAVCObjectMaint@@PAVSmartBox@@@Z
50A5C0 ?AddStaticAnimatingObject@CPhysics@@SAXPAVCPhysicsObj@@@Z
50A630 ?AddGfxVelocity@CPhysics@@SAXV?$IDClass@U_tagDataID@@$0CA@$0A@@@MM@Z
50A720 ?snap_to_plane@Plane@@QBEXAAVVector3@AC1Legacy@@@Z
50A780 ??4Plane@@QAEAAV0@ABV0@@Z
50A7B0 ?set_walkable_check_pos@SPHEREPATH@@QAEXABVCSphere@@@Z
50A7E0 ?add_offset_to_check_pos@SPHEREPATH@@QAEXABVVector3@AC1Legacy@@@Z
50A830 ?init@COLLISIONINFO@@QAEXXZ
50A850 ?set_contact_plane@COLLISIONINFO@@QAEXABVPlane@@H@Z
50A890 ?cleanupTransition@CTransition@@SAXPAV1@@Z
50A8A0 ?init@CTransition@@IAEXXZ
50A910 ?init_object@CTransition@@QAEXPAVCPhysicsObj@@H@Z
50A920 ?init_sphere@CTransition@@QAEXKPBVCSphere@@M@Z
50A930 ?init_path@CTransition@@QAEXPBVCObjCell@@PBVPosition@@1@Z
50A940 ?insert_into_cell@CTransition@@IAE?AW4TransitionState@@PBVCObjCell@@H@Z
50A97A $L93953
50A988 $L93946
50A999 $L93940
50A9B0 ?build_cell_array@CTransition@@QAEXPAPAVCObjCell@@@Z
50A9E0 ??8Vector3@AC1Legacy@@QBE_NABV01@@Z
50AA30 ?get_offset@Position@@QBE?AVVector3@AC1Legacy@@ABV1@@Z
50AAA0 ?get_curr_pos_check_pos_block_offset@SPHEREPATH@@QBE?AVVector3@AC1Legacy@@XZ
50AAD0 ?set_collision_normal@COLLISIONINFO@@QAEXABVVector3@AC1Legacy@@@Z
50AB30 ?set_sliding_normal@COLLISIONINFO@@QAEXABVVector3@AC1Legacy@@@Z
50AB80 ?calc_num_steps@CTransition@@IAEXAAVVector3@AC1Legacy@@0AAK@Z
50AE40 ?adjust_offset@CTransition@@IAE?AVVector3@AC1Legacy@@ABV23@@Z
50B1A0 ?cliff_slide@CTransition@@QAE?AW4TransitionState@@ABVPlane@@@Z
50B350 ?save_check_pos@SPHEREPATH@@QAEXXZ
50B380 ?set_check_pos@SPHEREPATH@@QAEXABVPosition@@PAVCObjCell@@@Z
50B3C0 ?get_walkable_pos@SPHEREPATH@@QBE?BVPosition@@XZ
50B3F0 ??0CELLARRAY@@QAE@XZ
50B450 ??0CTransition@@QAE@XZ
50B4D0 ?check_collisions@CTransition@@QAEHPBVCPhysicsObj@@@Z
50B540 ?validate_transition@CTransition@@IAE?AW4TransitionState@@W42@AAH@Z
50B890 ?validate_placement_transition@CTransition@@IAE?AW4TransitionState@@W42@AAH@Z
50B920 ?check_other_cells@CTransition@@IAE?AW4TransitionState@@PBVCObjCell@@@Z
50BAC0 ?check_walkable@CTransition@@QAEHM@Z
50BBD0 ?restore_check_pos@SPHEREPATH@@QAEXXZ
50BC20 ?makeTransition@CTransition@@SAPAV1@XZ
50BCA0 ?placement_insert@CTransition@@IAE?AW4TransitionState@@XZ
50BCE0 ?validate_placement@CTransition@@IAE?AW4TransitionState@@W42@H@Z
50BD70 ?step_down@CTransition@@IAEHMM@Z
50BEA0 ?edge_slide@CTransition@@IAEHAAW4TransitionState@@MM@Z
50C0E0 ?step_up@CTransition@@QAEHAAVVector3@AC1Legacy@@@Z
50C1C0 ?transitional_insert@CTransition@@IAE?AW4TransitionState@@H@Z
50C520 ?find_placement_pos@CTransition@@IAEHXZ
50C8C0 ?find_transitional_position@CTransition@@IAEHXZ
50CC40 ?find_placement_position@CTransition@@IAEHXZ
50CDE0 ?find_valid_position@CTransition@@QAEHXZ
50CE00 ?init@SPHEREPATH@@QAEXXZ
50CE80 ?step_up_slide@SPHEREPATH@@QAE?AW4TransitionState@@AAVOBJECTINFO@@AAVCOLLISIONINFO@@@Z
50CEB0 ?check_walkables@SPHEREPATH@@QAEHXZ
50CEF0 ?globaltolocalvec@Position@@QBE?AVVector3@AC1Legacy@@ABV23@@Z
50CF50 ??0SPHEREPATH@@QAE@XZ
50D0C0 ??1SPHEREPATH@@QAE@XZ
50D140 ?init_sphere@SPHEREPATH@@QAEXKPBVCSphere@@M@Z
50D210 ?cache_global_curr_center@SPHEREPATH@@QAEXXZ
50D2E0 ?cache_global_sphere@SPHEREPATH@@IAEXPBVVector3@AC1Legacy@@@Z
50D4A0 ?cache_localspace_sphere@SPHEREPATH@@QAEXABVPosition@@M@Z
50D6D0 ?adjust_check_pos@SPHEREPATH@@QAEXK@Z
50D750 ?precipice_slide@SPHEREPATH@@QAE?AW4TransitionState@@AAVCOLLISIONINFO@@@Z
50D8F0 ?init_path@SPHEREPATH@@QAEXPBVCObjCell@@PBVPosition@@1@Z
50D980 ?missile_ignore@OBJECTINFO@@QBEHPBVCPhysicsObj@@@Z
50D9E0 ?is_valid_walkable@OBJECTINFO@@QBEHABVVector3@AC1Legacy@@@Z
50D9F0 ?get_walkable_z@OBJECTINFO@@QBEMXZ
50DA00 ?init@OBJECTINFO@@QAEXPAVCPhysicsObj@@H@Z
50DAB0 ?kill_velocity@OBJECTINFO@@QAEXXZ
50DAE0 ?validate_walkable@OBJECTINFO@@QAE?AW4TransitionState@@ABVCSphere@@ABVPlane@@HMAAVSPHEREPATH@@AAVCOLLISIONINFO@@K@Z
50DE00 ?InitFromOffset@Ray@@QAEXABVVector3@@0@Z
50DF00 ?SetObjectScale@Render@@SAXABVVector3@@@Z
50DF60 ?get_physobj_id@CPhysicsPart@@QBEKXZ
50DF80 ?IsPartOfPlayerObj@CPhysicsPart@@QBE_NXZ
50DFA0 ?GetDrawnThisFrame@CPhysicsPart@@QAE_NXZ
50DFC0 ?SetDrawnThisFrame@CPhysicsPart@@QAEXXZ
50DFE0 ?GetMaxDegradeDistance@CPhysicsPart@@QBEMXZ
50E000 ?ReleaseGfxObjArray@CPhysicsPart@@KAXAAPAVGfxObjDegradeInfo@@AAPAPAVCGfxObj@@@Z
50E070 ?GetOriginalPaletteID@CPhysicsPart@@QBE?AV?$IDClass@U_tagDataID@@$0CA@$0A@@@XZ
50E080 ?RestorePalette@CPhysicsPart@@QAEXXZ
50E0D0 ?GetBoundingBox@CPhysicsPart@@QBEABVBBox@@XZ
50E0E0 ?SetNoDraw@CPhysicsPart@@QAEXH@Z
50E100 ?CopyMaterial@CPhysicsPart@@QAEHXZ
50E170 ?CopySurfaces@CPhysicsPart@@QAEHXZ
50E200 ?RestoreSurfaces@CPhysicsPart@@QAEXXZ
50E270 ?Draw@CPhysicsPart@@QAEXH@Z
50E370 ?Always2D@CPhysicsPart@@QBEHXZ
50E3A0 ?find_obj_collisions@CPhysicsPart@@QBE?AW4TransitionState@@AAVCTransition@@@Z
50E3F0 ?get_offset@Position@@QBE?AVVector3@AC1Legacy@@ABV1@ABV23@@Z
50E4B0 ?CurSettingsAreDefault@CPhysicsPart@@IAE_NXZ
50E550 ??0CPhysicsPart@@IAE@XZ
50E640 ?MorphToExistingObject@CPhysicsPart@@IAE_NPBV1@@Z
50E750 ?DetermineBasePal@CPhysicsPart@@IAEXXZ
50E7C0 ?LoadGfxObjArray@CPhysicsPart@@KAHV?$IDClass@U_tagDataID@@$0CA@$0A@@@AAPAVGfxObjDegradeInfo@@AAPAPAVCGfxObj@@@Z
50E900 ?SetTextureMap@CPhysicsPart@@QAEHV?$IDClass@U_tagDataID@@$0CA@$0A@@@0@Z
50E9A0 ?UsePalette@CPhysicsPart@@QAEHPAVPalette@@@Z
50EA40 ?RestoreMaterial@CPhysicsPart@@QAEXXZ
50EA70 ?calc_draw_frame@CPhysicsPart@@IAEXXZ
50EB00 ?UpdateViewerDistance@CPhysicsPart@@QAEXXZ
50EC70 ?UpdateViewerDistance@CPhysicsPart@@QAEXMABVVector3@AC1Legacy@@@Z
50ED00 ?makePhysicsPart@CPhysicsPart@@SAPAV1@PBV1@@Z
50ED40 ??1CPhysicsPart@@QAE@XZ
50EDB0 ?SetGfxObjArray@CPhysicsPart@@IAEXPAVGfxObjDegradeInfo@@PAPAVCGfxObj@@@Z
50EE80 ?InitObjDescChanges@CPhysicsPart@@QAEHXZ
50EED0 ?SetLighting@CPhysicsPart@@QAEXMM@Z
50EF70 ?RestoreLighting@CPhysicsPart@@QAEXXZ
50F040 ?SetDiffusion@CPhysicsPart@@QAEXM@Z
50F0C0 ?SetLuminosity@CPhysicsPart@@QAEXM@Z
50F140 ?SetTranslucency@CPhysicsPart@@QAEXM@Z
50F1D0 ?SetPart@CPhysicsPart@@QAEHV?$IDClass@U_tagDataID@@$0CA@$0A@@@@Z
50F230 ?makePhysicsPart@CPhysicsPart@@SAPAV1@V?$IDClass@U_tagDataID@@$0CA@$0A@@@@Z
50F280 ?is_zero@Vector3@AC1Legacy@@QBEHXZ
50F2D0 ?within_block@LandDefs@@SAHABVVector3@AC1Legacy@@M@Z
50F320 ?init_contact_plane@CTransition@@QAEXKABVPlane@@H@Z
50F3B0 ?init_last_known_contact_plane@CTransition@@QAEXKABVPlane@@H@Z
50F400 ?makeAnimObject@CPhysicsObj@@IAEHV?$IDClass@U_tagDataID@@$0CA@$0A@@@H@Z
50F430 ?GetSetupID@CPhysicsObj@@QBE?AV?$IDClass@U_tagDataID@@$0CA@$0A@@@XZ
50F460 ?GetDataID@CPhysicsObj@@QBE?AV?$IDClass@U_tagDataID@@$0CA@$0A@@@XZ
50F490 ?GetRadius@CPhysicsObj@@QBEMXZ
50F4B0 ?GetHeight@CPhysicsObj@@QBEMXZ
50F4D0 ?GetStepUpHeight@CPhysicsObj@@QBEMXZ
50F4F0 ?GetStepDownHeight@CPhysicsObj@@QBEMXZ
50F510 ?GetSelectionSphere@CPhysicsObj@@QBEHAAVCSphere@@@Z
50F530 ?InitializeMotionTables@CPhysicsObj@@QAEXXZ
50F540 ?DoInterpretedMotion@CPhysicsObj@@QAEKKABVMovementParameters@@@Z
50F560 ?StopInterpretedMotion@CPhysicsObj@@QAEKKABVMovementParameters@@@Z
50F580 ?motions_pending@CPhysicsObj@@QBEHXZ
50F5A0 ?StopCompletely_Internal@CPhysicsObj@@QAEXXZ
50F5B0 ?unstick_from_object@CPhysicsObj@@QAEXXZ
50F5C0 ?get_sticky_object_id@CPhysicsObj@@QBEKXZ
50F5E0 ?IsMovingTo@CPhysicsObj@@QBEHXZ
50F600 ?movement_is_autonomous@CPhysicsObj@@QBEHXZ
50F610 ?StopInterpolating@CPhysicsObj@@QAEXXZ
50F620 ?IsInterpolating@CPhysicsObj@@QBEHXZ
50F640 ?GetAutonomyBlipDistance@CPhysicsObj@@QBE?BMXZ
50F690 ?GetStartConstraintDistance@CPhysicsObj@@QBE?BMXZ
50F6E0 ?GetMaxConstraintDistance@CPhysicsObj@@QBE?BMXZ
50F730 ?IsFullyConstrained@CPhysicsObj@@QBEHXZ
50F750 ?check_attack@CPhysicsObj@@QBEKABVPosition@@MABVAttackCone@@M@Z
50F800 ?set_target@CPhysicsObj@@QAEXKKMN@Z
50F860 ?clear_target@CPhysicsObj@@QAEXXZ
50F870 ?set_target_quantum@CPhysicsObj@@QAEXN@Z
50F890 ?get_target_quantum@CPhysicsObj@@QBEMXZ
50F8B0 ?receive_target_update@CPhysicsObj@@QAEXABVTargetInfo@@@Z
50F8D0 ?add_voyeur@CPhysicsObj@@QAEXKMM@Z
50F920 ?remove_voyeur@CPhysicsObj@@QAEHK@Z
50F940 ?calc_friction@CPhysicsObj@@IAEXMM@Z
50FB20 ?FindObjCollisions@CPhysicsObj@@QBE?AW4TransitionState@@AAVCTransition@@@Z
50FE10 ?UpdateViewerDistance@CPhysicsObj@@QAEXMABVVector3@AC1Legacy@@@Z
50FE30 ?create_particle_emitter@CPhysicsObj@@QAEKV?$IDClass@U_tagDataID@@$0CA@$0A@@@KABVFrame@@K@Z
50FE80 ?create_blocking_particle_emitter@CPhysicsObj@@QAEKV?$IDClass@U_tagDataID@@$0CA@$0A@@@KABVFrame@@K@Z
50FED0 ?destroy_particle_emitter@CPhysicsObj@@QAEHK@Z
50FEF0 ?stop_particle_emitter@CPhysicsObj@@QAEHK@Z
50FF10 ?get_num_emitters@CPhysicsObj@@QAEKXZ
50FF30 ?play_sound@CPhysicsObj@@QBEHW4SoundType@@M@Z
50FF60 ?GetObjectA@CPhysicsObj@@SAPAV1@K@Z
50FF80 ?SetObjectMaintainer@CPhysicsObj@@SAXPAVCObjectMaint@@@Z
50FF90 ?SetPlayer@CPhysicsObj@@SAXPAV1@@Z
50FFA0 ?set_weenie_obj_ptr@CPhysicsObj@@QAEXPAVCWeenieObject@@@Z
50FFC0 ?set_cell_id@CPhysicsObj@@QAEXK@Z
50FFF0 ?remove_parts@CPhysicsObj@@QAEXPAVCObjCell@@@Z
510000 ?is_valid_walkable@CPhysicsObj@@QBEHABVVector3@AC1Legacy@@@Z
510030 ?get_walkable_z@CPhysicsObj@@QAEMXZ
510040 ?CacheHasPhysicsBSP@CPhysicsObj@@IAEHXZ
510080 ?check_contact@CPhysicsObj@@IBEHH@Z
5100D0 ?build_collision_profile@CPhysicsObj@@IBEHAAVObjCollisionProfile@@PBV1@ABVVector3@AC1Legacy@@HHH@Z
510140 ?UpdatePartsInternal@CPhysicsObj@@IAEXXZ
510160 ?SetPlacementFrameInternal@CPhysicsObj@@IAEHK@Z
5101A0 ?set_omega@CPhysicsObj@@QAEXABVVector3@AC1Legacy@@H@Z
5101C0 ?set_sequence_animation@CPhysicsObj@@QAEXV?$IDClass@U_tagDataID@@$0CA@$0A@@@HKM@Z
510230 ?clear_sequence_anims@CPhysicsObj@@QAEXXZ
510240 ?HasAnims@CPhysicsObj@@QBEHXZ
510250 ?get_curr_frame_number@CPhysicsObj@@QBEKXZ
510270 ?get_distance_to_object@CPhysicsObj@@QAEMPAV1@H@Z
510340 ?add_child@CPhysicsObj@@IAEHPAV1@K@Z
5103C0 ?add_child@CPhysicsObj@@IAEHPAV1@KABVFrame@@@Z
510430 ?SetTranslucencyInternal@CPhysicsObj@@IAEXM@Z
510470 ?SetNoDraw@CPhysicsObj@@QAEXH@Z
510480 ?DoObjDescChangesFromDefault@CPhysicsObj@@QAEHPBVObjDesc@@@Z
510500 ?DoObjDescChanges@CPhysicsObj@@QAEHPBVObjDesc@@@Z
510580 ?MorphToExistingObject@CPhysicsObj@@QAEHPBV1@@Z
510620 ?SetTranslucency2@CPhysicsObj@@QAEXMMN@Z
5106F0 ?SetTextureVelocity@CPhysicsObj@@QAEXMM@Z
510700 ?SetPartTextureVelocity@CPhysicsObj@@QAEXKMM@Z
510710 ?set_active@CPhysicsObj@@QAEHH@Z
510770 ?set_nodraw@CPhysicsObj@@QAEHHH@Z
5107C0 ?set_lights@CPhysicsObj@@QAEXHH@Z
510810 ?set_elasticity@CPhysicsObj@@QAEHM@Z
510870 ?Hook_AnimDone@CPhysicsObj@@QAEXXZ
510880 ?MotionDone@CPhysicsObj@@QAEXKH@Z
5108A0 ?report_exhaustion@CPhysicsObj@@QAEXXZ
5108B0 ?InqRawMotionState@CPhysicsObj@@QBEPBVRawMotionState@@XZ
5108D0 ?InqInterpretedMotionState@CPhysicsObj@@QBEPBVInterpretedMotionState@@XZ
5108F0 ?RemoveLinkAnimations@CPhysicsObj@@QAEXXZ
510900 ?CheckForCompletedMotions@CPhysicsObj@@QAEXXZ
510910 ?GetBoundingBox@CPhysicsObj@@QBE_NAAVBBox@@@Z
510930 ?ShouldDrawParticles@CPhysicsObj@@QBE_NM@Z
510970 ?shrink@?$SmartArray@PAVCAnimHook@@@AC1Legacy@@QAEHXZ
5109D0 ??0CShadowObj@@QAE@XZ
5109F0 ?init_sliding_normal@CTransition@@QAEXABVVector3@AC1Legacy@@@Z
510A50 ?InitObjectBegin@CPhysicsObj@@IAEHKH@Z
510AB0 ?InitObjectEnd@CPhysicsObj@@IAEHXZ
510AF0 ?DoMotion@CPhysicsObj@@QAEKKABVMovementParameters@@H@Z
510BA0 ?StopMotion@CPhysicsObj@@QAEKKABVMovementParameters@@H@Z
510C50 ?StopCompletely@CPhysicsObj@@QAEXH@Z
510CC0 ?cancel_moveto@CPhysicsObj@@QAEXXZ
510CE0 ?MakePositionManager@CPhysicsObj@@IAEXXZ
510D40 ?MakeMovementManager@CPhysicsObj@@IAEXH@Z
510DB0 ?MoveToObject_Internal@CPhysicsObj@@QAEXKKMMABVMovementParameters@@@Z
510EC0 ?TurnToObject_Internal@CPhysicsObj@@QAEXKKABVMovementParameters@@@Z
510FC0 ?InterpolateTo@CPhysicsObj@@QAEXABVPosition@@H@Z
510FF0 ?ConstrainTo@CPhysicsObj@@QAEXABVPosition@@MM@Z
511010 ?report_attacks@CPhysicsObj@@IAEXPAVAttackInfo@@@Z
5110A0 ?receive_detection_update@CPhysicsObj@@QAEXABVDetectionInfo@@@Z
511100 ??0TargetInfo@@QAE@ABV0@@Z
5111D0 ?UpdatePhysicsInternal@CPhysicsObj@@IAEXMAAVFrame@@@Z
511420 ?calc_acceleration@CPhysicsObj@@IAEXXZ
511510 ?ethereal_check_for_collisions@CPhysicsObj@@IAEHXZ
511560 ?report_object_collision_end@CPhysicsObj@@IAEHK@Z
511600 ?UpdateViewerDistance@CPhysicsObj@@QAEXXZ
511720 ?UpdateViewerDistanceRecursive@CPhysicsObj@@QAEXXZ
511760 ?DrawRecursive@CPhysicsObj@@QAEXXZ
5117A0 ?play_script_internal@CPhysicsObj@@IAEHV?$IDClass@U_tagDataID@@$0CA@$0A@@@@Z
511800 ?play_script@CPhysicsObj@@QAEHV?$IDClass@U_tagDataID@@$0CA@$0A@@@@Z
511820 ?destroy_particle_manager@CPhysicsObj@@QAEXXZ
511850 ?get_landscape_coord@CPhysicsObj@@QBEHAAJ0@Z
511870 ?set_cell_id_recursive@CPhysicsObj@@QAEXK@Z
5118D0 ?AddPartToShadowCells@CPhysicsObj@@QAEXPAVCPhysicsPart@@@Z
511940 ?RemovePartFromShadowCells@CPhysicsObj@@QAEXPAVCPhysicsPart@@@Z
5119A0 ?enter_cell@CPhysicsObj@@QAEXPAVCObjCell@@@Z
511A20 ?leave_cell@CPhysicsObj@@QAEXH@Z
511A90 ?find_bbox_cell_list@CPhysicsObj@@IAEXAAVCELLARRAY@@@Z
511B00 ?obj_within_block@CPhysicsObj@@QAEHXZ
511D00 ?remove_shadows_from_cells@CPhysicsObj@@IAEXXZ
511D90 ?is_completely_visible@CPhysicsObj@@QAEHXZ
511DE0 ?set_on_walkable@CPhysicsObj@@QAEXH@Z
511E50 ?SetPlacementFrame@CPhysicsObj@@QAEHKH@Z
511E90 ?get_velocity@CPhysicsObj@@QBE?AVVector3@AC1Legacy@@XZ
511EC0 ?set_velocity@CPhysicsObj@@QAEXABVVector3@AC1Legacy@@H@Z
511FA0 ?set_local_velocity@CPhysicsObj@@QAEXABVVector3@AC1Legacy@@H@Z
512010 ?get_heading@CPhysicsObj@@QBEMXZ
512020 ?process_hooks@CPhysicsObj@@IAEXXZ
5120C0 ?SetTranslucency@CPhysicsObj@@QAEXMN@Z
512190 ?SetTranslucencyHierarchical@CPhysicsObj@@QAEXM@Z
512200 ?SetPartTranslucency@CPhysicsObj@@QAEXKMMN@Z
5122B0 ?SetPartLuminosity@CPhysicsObj@@QAEXKMMN@Z
512360 ?SetLuminosity@CPhysicsObj@@QAEXMMN@Z
512400 ?SetPartDiffusion@CPhysicsObj@@QAEXKMMN@Z
5124B0 ?SetDiffusion@CPhysicsObj@@QAEXMMN@Z
512550 ?SetLighting@CPhysicsObj@@QAEXMM@Z
512560 ?SetPartLighting@CPhysicsObj@@QAEHKMM@Z
512580 ?RestoreLighting@CPhysicsObj@@QAEXXZ
512590 ?CallPESInternal@CPhysicsObj@@QAEXV?$IDClass@U_tagDataID@@$0CA@$0A@@@M@Z
5125C0 ?CallPES@CPhysicsObj@@QAEXV?$IDClass@U_tagDataID@@$0CA@$0A@@@N@Z
512680 ?SetScaleStatic@CPhysicsObj@@QAEXM@Z
5126C0 ?clear_transient_states@CPhysicsObj@@IAEXXZ
512710 ?set_ethereal@CPhysicsObj@@QAEHHH@Z
512790 ?get_object_info@CPhysicsObj@@IBEKPAVCTransition@@H@Z
512850 ?AdjustPosition@CPhysicsObj@@SAHAAVPosition@@ABVVector3@AC1Legacy@@AAPAVCObjCell@@HH@Z
512960 ?CheckPositionInternal@CPhysicsObj@@IAEHPAVCObjCell@@AAVPosition@@PAVCTransition@@ABVSetPositionStruct@@@Z
512A10 ?prepare_to_leave_visibility@CPhysicsObj@@QAEHXZ
512A70 ?prepare_to_enter_world@CPhysicsObj@@QAEXXZ
512B10 ?unpack_movement@CPhysicsObj@@QAEXAAPAXI@Z
512B90 ?get_minterp@CPhysicsObj@@QAEPAVCMotionInterp@@XZ
512C00 ?get_position_manager@CPhysicsObj@@QAEPAVPositionManager@@XZ
512C10 ?get_local_physics_velocity@CPhysicsObj@@QBEXAAVVector3@AC1Legacy@@@Z
512CA0 ??_ECShadowObj@@UAEPAXI@Z
512D10 ?clobber@?$HashBase@K@@QAEPAV?$HashBaseData@K@@PAV2@@Z
512DB0 ??_G?$HashBaseData@K@@UAEPAXI@Z
512DE0 ?combine@Frame@@QAEXABV1@0@Z
512EF0 ??0CPhysicsObj@@QAE@XZ
513100 ?makeNullObject@CPhysicsObj@@SAPAV1@KH@Z
513140 ?makeParticleObject@CPhysicsObj@@SAPAV1@KABVCSphere@@@Z
5131B0 ?InitPartArrayObject@CPhysicsObj@@IAEHV?$IDClass@U_tagDataID@@$0CA@$0A@@@H@Z
513280 ?SetMotionTableID@CPhysicsObj@@QAEHV?$IDClass@U_tagDataID@@$0CA@$0A@@@@Z
5132E0 ?stick_to_object@CPhysicsObj@@QAEXK@Z
513360 ?MoveToObject@CPhysicsObj@@QAEXKABVMovementParameters@@@Z
513440 ?TurnToObject@CPhysicsObj@@QAEXKABVMovementParameters@@@Z
513480 ?TurnToHeading@CPhysicsObj@@QAEXABVMovementParameters@@@Z
513570 ?attack@CPhysicsObj@@QAEXABVAttackCone@@@Z
5136C0 ?HandleUpdateTarget@CPhysicsObj@@QAEXVTargetInfo@@@Z
513730 ?UpdatePositionInternal@CPhysicsObj@@IAEXMAAVFrame@@@Z
513850 ?UpdateChild@CPhysicsObj@@IAEXPAV1@KABVFrame@@@Z
5138C0 ?transition@CPhysicsObj@@IAEPBVCTransition@@ABVPosition@@0H@Z
5139D0 ?check_collision@CPhysicsObj@@QBEHPBV1@@Z
513AC0 ?report_environment_collision@CPhysicsObj@@IAEHH@Z
513B60 ?report_object_collision@CPhysicsObj@@IAEHPBV1@H@Z
513D60 ?play_script@CPhysicsObj@@QAEHW4PScriptType@@M@Z
513DB0 ?play_default_script@CPhysicsObj@@QAEHXZ
513E00 ?play_default_script@CPhysicsObj@@QAEHK@Z
513E90 ?change_cell@CPhysicsObj@@QAEXPAVCObjCell@@@Z
513EF0 ?RemoveObjectFromSingleCell@CPhysicsObj@@QAEXPAVCObjCell@@@Z
513F70 ?unset_parent@CPhysicsObj@@QAEXXZ
513FE0 ?unparent_children@CPhysicsObj@@QAEXXZ
5140C0 ?process_fp_hook@CPhysicsObj@@QAEXHMPAX@Z
5141A0 ?SetScale@CPhysicsObj@@QAEXMN@Z
514270 ?queue_netblob@CPhysicsObj@@QAEXPAVNetBlob@@@Z
5142F0 ??0?$LongNIValHash@VCollisionRecord@CPhysicsObj@@@@QAE@I@Z
514330 ?clobber@?$LongNIValHash@VCollisionRecord@CPhysicsObj@@@@QAEHAAVCollisionRecord@CPhysicsObj@@K@Z
5143C0 ??0?$LongNIValHashIter@PAVSurfInfo@@@@QAE@PAV?$LongNIValHash@PAVSurfInfo@@@@@Z
514410 ?InitNullObject@CPhysicsObj@@QAEHV?$IDClass@U_tagDataID@@$0CA@$0A@@@@Z
514470 ?makeObject@CPhysicsObj@@SAPAV1@V?$IDClass@U_tagDataID@@$0CA@$0A@@@KH@Z
5144D0 ?InitDefaults@CPhysicsObj@@QAEXPBVCSetup@@@Z
5145D0 ?Destroy@CPhysicsObj@@IAEXXZ
514830 ??1CPhysicsObj@@UAE@XZ
5148A0 ?UpdateChildrenInternal@CPhysicsObj@@IAEXXZ
5148F0 ?animate_static_object@CPhysicsObj@@QAEXXZ
514A10 ?track_object_collision@CPhysicsObj@@IAEHPBV1@H@Z
514AD0 ?report_collision_start@CPhysicsObj@@IAEXXZ
514B90 ?set_frame@CPhysicsObj@@QAEXABVFrame@@@Z
514C20 ?set_initial_frame@CPhysicsObj@@QAEXABVFrame@@@Z
514C60 ?set_heading@CPhysicsObj@@QAEXMH@Z
514CA0 ?store_position@CPhysicsObj@@QAEXABVPosition@@@Z
514D20 ?leave_visibility@CPhysicsObj@@QAEXXZ
514D50 ?grow@?$DArray@VCShadowObj@@@@QAEXK@Z
514E20 ??_E?$LongNIValHash@VCollisionRecord@CPhysicsObj@@@@UAEPAXI@Z
514E40 ??1?$LongNIValHash@VCollisionRecord@CPhysicsObj@@@@UAE@XZ
514E90 ?shrink@?$DArray@VCShadowObj@@@@QAEXK@Z
514F90 ??_GCPhysicsObj@@UAEPAXI@Z
514FB0 ?makeObject@CPhysicsObj@@SAPAV1@PBV1@@Z
515020 ?update_position@CPhysicsObj@@QAEXXZ
515120 ?report_collision_end@CPhysicsObj@@IAEXH@Z
515280 ?handle_all_collisions@CPhysicsObj@@IAEHABVCOLLISIONINFO@@HH@Z
5154E0 ?AddObjectToSingleCell@CPhysicsObj@@QAEXPAVCObjCell@@@Z
515570 ?add_particle_shadow_to_cell@CPhysicsObj@@IAEXXZ
5155E0 ?add_shadows_to_cells@CPhysicsObj@@IAEXABVCELLARRAY@@@Z
515720 ?add_anim_hook@CPhysicsObj@@QAEXPAVCAnimHook@@@Z
515760 ?set_hidden@CPhysicsObj@@QAEXHH@Z
5158D0 ?set_state@CPhysicsObj@@QAEHKH@Z
515960 ?exit_world@CPhysicsObj@@QAEXXZ
5159D0 ?teleport_hook@CPhysicsObj@@QAEXH@Z
515A40 ?set_description@CPhysicsObj@@QAEHABVPhysicsDesc@@H@Z
515C60 ?calc_cross_cells_static@CPhysicsObj@@QAEXXZ
515D30 ?calc_cross_cells@CPhysicsObj@@IAEXXZ
515E30 ?SetPositionInternal@CPhysicsObj@@IAEHPBVCTransition@@@Z
5160A0 ?leave_world@CPhysicsObj@@QAEXXZ
516160 ?ForceIntoCell@CPhysicsObj@@IAE?AW4SetPositionError@@PAVCObjCell@@ABVPosition@@@Z
5161B0 ?UpdateObjectInternal@CPhysicsObj@@IAEXM@Z
5164E0 ?add_obj_to_cell@CPhysicsObj@@QAEXPAVCObjCell@@ABVFrame@@@Z
516530 ?recalc_cross_cells@CPhysicsObj@@QAEXXZ
516590 ?set_parent@CPhysicsObj@@QAEHPAV1@K@Z
516650 ?set_parent@CPhysicsObj@@QAEHPAV1@KABVFrame@@@Z
5166D0 ?SetPositionInternal@CPhysicsObj@@IAE?AW4SetPositionError@@AAVPosition@@ABVSetPositionStruct@@PAVCTransition@@@Z
516810 ?update_object@CPhysicsObj@@QAEXXZ
516A00 ?SetScatterPositionInternal@CPhysicsObj@@IAE?AW4SetPositionError@@ABVSetPositionStruct@@PAVCTransition@@@Z
516B40 ?SetPositionInternal@CPhysicsObj@@IAE?AW4SetPositionError@@ABVSetPositionStruct@@PAVCTransition@@@Z
516BC0 ?SetPosition@CPhysicsObj@@QAE?AW4SetPositionError@@AAVSetPositionStruct@@@Z
516C70 ?enter_world@CPhysicsObj@@QAEHH@Z
516D50 ?reenter_visibility@CPhysicsObj@@QAEHXZ
516DB0 ?SetPositionSimple@CPhysicsObj@@QAE?AW4SetPositionError@@ABVPosition@@H@Z
516E10 ?enter_world@CPhysicsObj@@QAEHABVPosition@@@Z
516E30 ?MoveOrTeleport@CPhysicsObj@@QAEHAAVPosition@@GHABVVector3@AC1Legacy@@@Z
516F40 ?GetPackSize@PositionPack@@SAIAAKABVPosition@@ABVVector3@AC1Legacy@@KHGGGG@Z
517040 ?UnPack@Vector3@AC1Legacy@@QAEHAAPAXI@Z
517080 ??0PositionPack@@QAE@XZ
5170C0 ?PackPosition@PositionPack@@SAXAAPAXIKABVPosition@@ABVVector3@AC1Legacy@@KHGGGG@Z
5171B0 ?Pack@PositionPack@@UAEIAAPAXI@Z
517240 ?UnPack@PositionPack@@UAEHAAPAXI@Z
5173A0 ?pack_size@MoveToStatePack@@QAEIXZ
5173F0 ?Pack@MoveToStatePack@@UAEIAAPAXI@Z
5174B0 ?UnPack@MoveToStatePack@@UAEHAAPAXI@Z
517570 ??0AutonomousPositionPack@@QAE@ABVPosition@@HGGGG@Z
5175F0 ?Pack@AutonomousPositionPack@@UAEIAAPAXI@Z
5176A0 ?UnPack@AutonomousPositionPack@@UAEHAAPAXI@Z
517770 ??0JumpPack@@QAE@MABVVector3@AC1Legacy@@ABVPosition@@GGGG@Z
517810 ?Pack@JumpPack@@UAEIAAPAXI@Z
5178F0 ?UnPack@JumpPack@@UAEHAAPAXI@Z
5179F0 ??0PhysicsTimestampPack@@QAE@XZ
517A10 ?Pack@PhysicsTimestampPack@@UAEIAAPAXI@Z
517A50 ?UnPack@PhysicsTimestampPack@@UAEHAAPAXI@Z
517A90 ??_EPositionPack@@UAEPAXI@Z
517AC0 ??_EMoveToStatePack@@UAEPAXI@Z
517AF0 ??0MoveToStatePack@@QAE@ABVRawMotionState@@ABVPosition@@HHGGGG@Z
517BA0 ??_EAttribute2ndBase@@UAEPAXI@Z
517BD0 ??_GJumpPack@@UAEPAXI@Z
517C00 ?GetRandomStartScale@ParticleEmitterInfo@@QBEMXZ
517C50 ?GetRandomFinalScale@ParticleEmitterInfo@@QBEMXZ
517CA0 ?GetRandomStartTrans@ParticleEmitterInfo@@QBEMXZ
517CF0 ?GetRandomFinalTrans@ParticleEmitterInfo@@QBEMXZ
517D40 ?GetRandomLifespan@ParticleEmitterInfo@@QBEMXZ
517D80 ??0ParticleEmitterInfo@@IAE@XZ
517EC0 ?GetDBOType@ParticleEmitterInfo@@UBEKXZ
517ED0 ??_EParticleEmitterInfo@@WDA@AEPAXI@Z
517EE0 ?InitEnd@ParticleEmitterInfo@@QAEXXZ
517F50 ?ShouldEmitParticle@ParticleEmitterInfo@@QBEHHHABVVector3@AC1Legacy@@N@Z
517FD0 ?GetRandomOffset@ParticleEmitterInfo@@QBE?AVVector3@AC1Legacy@@XZ
518140 ?GetRandomA@ParticleEmitterInfo@@QBE?AVVector3@AC1Legacy@@XZ
5181A0 ?GetRandomB@ParticleEmitterInfo@@QBE?AVVector3@AC1Legacy@@XZ
518200 ?GetRandomC@ParticleEmitterInfo@@QBE?AVVector3@AC1Legacy@@XZ
518260 ?Allocate@ParticleEmitterInfo@@UBEPAVDBObj@@XZ
518270 ??_GParticleEmitterInfo@@UAEPAXI@Z
5182B0 ?Pack@ParticleEmitterInfo@@UAEIAAPAXI@Z
518520 ?UnPack@ParticleEmitterInfo@@UAEHAAPAXI@Z
518790 ?set_frame@LIGHTLIST@@QAEXABVFrame@@@Z
518840 ?InitializeMotionTables@CPartArray@@QAEXXZ
518860 ?AnimationDone@CPartArray@@QAEXH@Z
518870 ?HasAnims@CPartArray@@QBEHXZ
518880 ?CheckForCompletedMotions@CPartArray@@QAEXXZ
518890 ?HandleMovement@CPartArray@@QAEXXZ
5188A0 ?HandleEnterWorld@CPartArray@@QAEXXZ
5188C0 ?HandleExitWorld@CPartArray@@QAEXXZ
5188E0 ?Update@CPartArray@@QAEXMPAVFrame@@@Z
518900 ?SetCellID@CPartArray@@QAEXK@Z
518930 ?RemoveParts@CPartArray@@QAEXPAVCObjCell@@@Z
518970 ?AddPartsShadow@CPartArray@@QAEXPAVCObjCell@@K@Z
5189D0 ?AddLightsToCell@CPartArray@@QAEXPAVCObjCell@@@Z
518A20 ?RemoveLightsFromCell@CPartArray@@QAEXPAVCObjCell@@@Z
518A70 ?InitParts@CPartArray@@QAEHXZ
518B90 ?GetNumSphere@CPartArray@@QBEKXZ
518BA0 ?GetSphere@CPartArray@@QBEPBVCSphere@@XZ
518BB0 ?GetNumCylsphere@CPartArray@@QBEKXZ
518BC0 ?GetCylsphere@CPartArray@@QBEPBVCCylSphere@@XZ
518BD0 ?GetRadius@CPartArray@@QBEMXZ
518BE0 ?GetHeight@CPartArray@@QBEMXZ
518BF0 ?AllowsFreeHeading@CPartArray@@QBEHXZ
518C00 ?GetStepUpHeight@CPartArray@@QBEMXZ
518C20 ?GetStepDownHeight@CPartArray@@QBEMXZ
518C40 ?CacheHasPhysicsBSP@CPartArray@@QAEHXZ
518C90 ?calc_cross_cells_static@CPartArray@@QAEXPBVCObjCell@@AAVCELLARRAY@@@Z
518CB0 ?FindObjCollisions@CPartArray@@QAE?AW4TransitionState@@AAVCTransition@@@Z
518CF0 ?InitPals@CPartArray@@QAEHXZ
518D40 ?DestroyPals@CPartArray@@QAEXXZ
518D90 ?UpdateViewerDistance@CPartArray@@QAEXXZ
518DC0 ?UpdateViewerDistance@CPartArray@@QAEXMABVVector3@AC1Legacy@@@Z
518E00 ?Draw@CPartArray@@QAEXABVPosition@@@Z
518E30 ?SetNoDrawInternal@CPartArray@@QAEXH@Z
518E70 ?SetTranslucencyInternal@CPartArray@@QAEXM@Z
518EB0 ?SetPartTranslucencyInternal@CPartArray@@QAEXKM@Z
518EE0 ?SetLuminosityInternal@CPartArray@@QAEXM@Z
518F20 ?SetPartLuminosityInternal@CPartArray@@QAEXKM@Z
518F50 ?SetDiffusionInternal@CPartArray@@QAEXM@Z
518F90 ?SetPartDiffusionInternal@CPartArray@@QAEXKM@Z
518FC0 ?SetLightingInternal@CPartArray@@QAEXMM@Z
519000 ?SetPartLightingInternal@CPartArray@@QAEHKMM@Z
519040 ?RestoreLightingInternal@CPartArray@@QAEXXZ
519070 ?InitObjDescChanges@CPartArray@@QAEHXZ
5190B0 ?SetPart@CPartArray@@QAEHPBVAnimPartChange@@@Z
519110 ?SetTextureMap@CPartArray@@QAEHPBVTextureMapChange@@@Z
519170 ??0LIGHTLIST@@QAE@I@Z
519210 ?SetMotionTableID@CPartArray@@QAEHV?$IDClass@U_tagDataID@@$0CA@$0A@@@@Z
519280 ?DoInterpretedMotion@CPartArray@@QAEKKABVMovementParameters@@@Z
519320 ?StopInterpretedMotion@CPartArray@@QAEKKABVMovementParameters@@@Z
5193C0 ?StopCompletelyInternal@CPartArray@@QAEKXZ
519450 ?DestroyParts@CPartArray@@QAEXXZ
5194B0 ?InitDefaults@CPartArray@@IAEXXZ
519530 ?SetScaleInternal@CPartArray@@QAEHABVVector3@AC1Legacy@@@Z
5195E0 ?GetSetupID@CPartArray@@QBE?AV?$IDClass@U_tagDataID@@$0CA@$0A@@@XZ
5195F0 ?GetDataID@CPartArray@@QBE?AV?$IDClass@U_tagDataID@@$0CA@$0A@@@XZ
519630 ?GetSortingSphere@CPartArray@@QBEABVCSphere@@XZ
5196B0 ?GetSelectionSphere@CPartArray@@QBEHAAVCSphere@@@Z
519730 ?InitLights@CPartArray@@QAEHXZ
5197E0 ?SetTextureVelocityInternal@CPartArray@@QAEXMM@Z
519830 ?SetPartTextureVelocityInternal@CPartArray@@QAEXKMM@Z
519870 ?MorphToExistingObject@CPartArray@@QAEHPBV1@@Z
519940 ?SetPalette@CPartArray@@QAEHV?$IDClass@U_tagDataID@@$0CA@$0A@@@PAVSubpalette@@@Z
519A20 ?GetBoundingBox@CPartArray@@QBEXAAVBBox@@@Z
519B00 ?combine@Frame@@QAEXABV1@ABVAFrame@@ABVVector3@AC1Legacy@@@Z
519C20 ?UpdateParts@CPartArray@@QAEXABVFrame@@@Z
519C80 ?SetMeshID@CPartArray@@QAEHV?$IDClass@U_tagDataID@@$0CA@$0A@@@@Z
519CE0 ?DestroyLights@CPartArray@@QAEXXZ
519D40 ?DoObjDescChanges@CPartArray@@QAEHPBVObjDesc@@@Z
519DD0 ?Destroy@CPartArray@@QAEXXZ
519E40 ?SetFrame@CPartArray@@QAEXABVFrame@@@Z
519E60 ?SetSetupID@CPartArray@@QAEHV?$IDClass@U_tagDataID@@$0CA@$0A@@@H@Z
519F00 ?SetPlacementFrame@CPartArray@@QAEHK@Z
519FB0 ?DoObjDescChangesFromDefault@CPartArray@@QAEHPBVObjDesc@@@Z
51A000 ??1CPartArray@@QAE@XZ
51A020 ?CreateParticle@CPartArray@@SAPAV1@PAVCPhysicsObj@@KABVCSphere@@@Z
51A0D0 ?CreateSetup@CPartArray@@SAPAV1@PAVCPhysicsObj@@V?$IDClass@U_tagDataID@@$0CA@$0A@@@H@Z
51A170 ?CreateMesh@CPartArray@@SAPAV1@PAVCPhysicsObj@@V?$IDClass@U_tagDataID@@$0CA@$0A@@@@Z
51A200 ?CheckDetection@DetectionManager@@IAE?AW4DetectionType@@PAVDetectionCylsphere@@PAVCPhysicsObj@@@Z
51A270 ??0?$LongNIHashIter@VDetectionCylsphere@@@@QAE@PAV?$LongNIHash@VDetectionCylsphere@@@@@Z
51A2D0 ??0?$LongNIHash@VDetectionInfo@@@@QAE@H@Z
51A310 ?destroy_contents@?$LongNIHash@VDetectionInfo@@@@QAEXXZ
51A370 ?flush@?$LongNIHash@VDetectionCylsphere@@@@QAEXXZ
51A3C0 ?FindCellList@DetectionManager@@IAEXPAVDetectionCylsphere@@AAVCELLARRAY@@@Z
51A430 ?add@?$LongNIHash@VParticleEmitter@@@@QAEHPAVParticleEmitter@@K@Z
51A480 ?InitializeGlobalDetection@DetectionManager@@IAEHPAVDetectionCylsphere@@@Z
51A530 ?ReceiveDetectionUpdate@DetectionManager@@QAEXABVDetectionInfo@@@Z
51A620 ?UpdateCellList@DetectionManager@@IAEXPAVDetectionCylsphere@@@Z
51A760 ?ReportGlobalDetection@DetectionManager@@IAEXK@Z
51A830 ?CleanupGlobalDetection@DetectionManager@@IAEXPBVDetectionCylsphere@@@Z
51A8E0 ?ClearPendingDeletions@DetectionManager@@IAEXXZ
51A940 ?CheckDetection@DetectionManager@@IAEXPAVDetectionCylsphere@@@Z
51A9D0 ??1DetectionManager@@QAE@XZ
51AA80 ?DestroyDetectionCylsphere@DetectionManager@@QAEHK@Z
51AB00 ?CheckDetection@DetectionManager@@QAEXXZ
51ABB0 ?grow@?$DArray@VObjectInfo@@@@QAEXK@Z
51AC20 ?shrink@?$DArray@VObjectInfo@@@@QAEXK@Z
51ACB0 ??0AttackInfo@@QAE@KJM@Z
51AD00 ?AddObject@AttackInfo@@QAEXKK@Z
51AD60 ?remove@?$LongNIHash@VTargettedVoyeurInfo@@@@QAEPAVTargettedVoyeurInfo@@K@Z
51ADD0 ??0AttackManager@@QAE@XZ
51AE10 ??1AttackManager@@QAE@XZ
51AEA0 ?NewAttack@AttackManager@@QAEPAVAttackInfo@@J@Z
51AF20 ?AttackDone@AttackManager@@QAEXPAVAttackInfo@@@Z
51AF50 ??0TargetManager@@QAE@PAVCPhysicsObj@@@Z
51AF70 ??E?$LongNIHashIter@VTargettedVoyeurInfo@@@@QAEAAV0@H@Z
51AFC0 ??0TargetInfo@@QAE@XZ
51B040 ?SetTargetQuantum@TargetManager@@QAEXN@Z
51B090 ?SendVoyeurUpdate@TargetManager@@IAEXPAVTargettedVoyeurInfo@@ABVPosition@@W4TargetStatus@@@Z
51B180 ?GetInterpolatedPosition@TargetManager@@IAEXNAAVPosition@@@Z
51B1F0 ?CheckAndUpdateVoyeur@TargetManager@@IAEXPAVTargettedVoyeurInfo@@@Z
51B290 ?NotifyVoyeurOfEvent@TargetManager@@QAEXW4TargetStatus@@@Z
51B310 ?ClearTarget@TargetManager@@QAEXXZ
51B360 ?AddVoyeur@TargetManager@@QAEXKMN@Z
51B460 ?ReceiveUpdate@TargetManager@@QAEXABVTargetInfo@@@Z
51B5C0 ?HandleTargetting@TargetManager@@QAEXXZ
51B690 ?destroy_contents@?$LongNIHash@VTargettedVoyeurInfo@@@@QAEXXZ
51B700 ??1TargetManager@@QAE@XZ
51B760 ?SetTarget@TargetManager@@QAEXKKMN@Z
51B8C0 ?RemoveVoyeur@TargetManager@@QAEHK@Z
51B900 ?grow@?$SArray@PAVCPhysicsObj@@@@QAEXG@Z
51B960 ?grow@?$SArray@K@@QAEXG@Z
51B9C0 ?shrink@?$SArray@PAVCPhysicsObj@@@@QAEXG@Z
51BA40 ?shrink@?$SArray@K@@QAEXG@Z
51BAC0 ?remove_child@CHILDLIST@@QAEXPAVCPhysicsObj@@@Z
51BBB0 ?FindChildIndex@CHILDLIST@@QBEHPBVCPhysicsObj@@AAG@Z
51BBF0 ?grow@?$SArray@VFrame@@@@QAEXG@Z
51BC80 ?shrink@?$SArray@VFrame@@@@QAEXG@Z
51BD30 ??0CHILDLIST@@QAE@XZ
51BD60 ??1CHILDLIST@@QAE@XZ
51BDA0 ?add_child@CHILDLIST@@QAEXPAVCPhysicsObj@@ABVFrame@@KK@Z
51BE20 ??0ScriptManager@@QAE@PAVCPhysicsObj@@@Z
51BE40 ?AddScriptInternal@ScriptManager@@IAEHPBVPhysicsScript@@@Z
51BED0 ?AddScript@ScriptManager@@QAEHV?$IDClass@U_tagDataID@@$0CA@$0A@@@@Z
51BF20 ?NextHook@ScriptManager@@IAEPBVCAnimHook@@XZ
51BFB0 ?UpdateScripts@ScriptManager@@QAEXXZ
51C040 ??1ScriptManager@@QAE@XZ
51C0B0 ?GetNumEmitters@ParticleManager@@QAEKXZ
51C100 ??0ParticleManager@@QAE@XZ
51C150 ??1ParticleManager@@QAE@XZ
51C1F0 ?CreateParticleEmitter@ParticleManager@@QAEKPAVCPhysicsObj@@V?$IDClass@U_tagDataID@@$0CA@$0A@@@KABVFrame@@K@Z
51C2A0 ?DestroyParticleEmitter@ParticleManager@@QAEHK@Z
51C2E0 ?StopParticleEmitter@ParticleManager@@QAEHK@Z
51C330 ?UpdateParticles@ParticleManager@@QAEXXZ
51C3D0 ?CreateBlockingParticleEmitter@ParticleManager@@QAEKPAVCPhysicsObj@@V?$IDClass@U_tagDataID@@$0CA@$0A@@@KABVFrame@@K@Z
51C430 ??0AtkCollisionProfile@@QAE@XZ
51C450 ?SetMeInContact@EnvCollisionProfile@@QAEXH@Z
51C470 ?SetCreature@ObjCollisionProfile@@QAEXH@Z
51C490 ?SetPlayer@ObjCollisionProfile@@QAEXH@Z
51C4B0 ?SetDoor@ObjCollisionProfile@@QAEXH@Z
51C4D0 ?SetAttackable@ObjCollisionProfile@@QAEXH@Z
51C4F0 ?SetMissile@ObjCollisionProfile@@QAEXH@Z
51C510 ?SetInContact@ObjCollisionProfile@@QAEXH@Z
51C530 ?SetMeInContact@ObjCollisionProfile@@QAEXH@Z
51C550 ??0EnvCollisionProfile@@QAE@XZ
51C560 ??0ObjCollisionProfile@@QAE@XZ
51C580 ??0FPHook@@QAE@W4HookType@PhysicsObjHook@@NNMMPAX@Z
51C5D0 ?Execute@FPHook@@UAEHPAVCPhysicsObj@@@Z
51C660 ?set_physobj@CShadowObj@@QAEXPAVCPhysicsObj@@@Z
51C670 ?SetFlags@SetPositionStruct@@QAEXK@Z
51C680 ??0SetPositionStruct@@QAE@XZ
51C6D0 ?SetPosition@SetPositionStruct@@QAEXABVPosition@@@Z
51C6F0 ?SetTargetID@TurbineChatBlob@@QAEXK@Z
51C700 ?SetMotionTableID@MotionTableManager@@QAEHV?$IDClass@U_tagDataID@@$0CA@$0A@@@@Z
51C740 ?GetMotionTableID@MotionTableManager@@QBE?AV?$IDClass@U_tagDataID@@$0CA@$0A@@@XZ
51C780 ?Create@MotionTableManager@@SAPAV1@V?$IDClass@U_tagDataID@@$0CA@$0A@@@@Z
51C7D0 ?truncate_animation_list@MotionTableManager@@AAEXPBVAnimNode@1@AAVCSequence@@@Z
51C810 ?AnimationDone@MotionTableManager@@QAEXH@Z
51C8D0 ?HandleExitWorld@MotionTableManager@@QAEXAAVCSequence@@@Z
51C900 ?CheckForCompletedMotions@MotionTableManager@@QAEXXZ
51C990 ?Destroy@MotionTableManager@@AAEXXZ
51CA00 ??1MotionTableManager@@QAE@XZ
51CA20 ?remove_redundant_links@MotionTableManager@@AAEXAAVCSequence@@@Z
51CB00 ?UseTime@MotionTableManager@@QAEXXZ
51CB10 ?add_to_queue@MotionTableManager@@AAEXKKAAVCSequence@@@Z
51CB60 ?initialize_state@MotionTableManager@@QAEXAAVCSequence@@@Z
51CBE0 ?PerformMovement@MotionTableManager@@QAEKABVMovementStruct@@AAVCSequence@@@Z
51CCC0 ?SetParenting@ParticleEmitter@@QAEHKABVFrame@@@Z
51CD10 ?KillParticle@ParticleEmitter@@IAEHK@Z
51CD60 ?StopEmitter@ParticleEmitter@@IAEHXZ
51CDC0 ?Update@Particle@@QAEXW4ParticleType@@HPAVCPhysicsPart@@PBVFrame@@@Z
51D310 ??0ParticleEmitter@@IAE@PAVCPhysicsObj@@@Z
51D3A0 ?RecordParticleEmission@ParticleEmitter@@IAEXXZ
51D3E0 ?ShouldEmitParticle@ParticleEmitter@@IAEHXZ
51D460 ?Init@Particle@@QAEXPBVCPhysicsObj@@KABVFrame@@PAVCPhysicsPart@@ABVVector3@AC1Legacy@@W4ParticleType@@H333MMMMN@Z
51D8B0 ?makeParticleEmitter@ParticleEmitter@@SAPAV1@PAVCPhysicsObj@@@Z
51D8E0 ?Destroy@ParticleEmitter@@QAEXXZ
51D9C0 ?SetInfo@ParticleEmitter@@QAEHPBVParticleEmitterInfo@@@Z
51DB40 ?EmitParticle@ParticleEmitter@@IAEXXZ
51DCB0 ?UpdateParticles@ParticleEmitter@@QAEHXZ
51DEE0 j_?Destroy@ParticleEmitter@@QAEXXZ
51DEF0 ?SetInfo@ParticleEmitter@@QAEHV?$IDClass@U_tagDataID@@$0CA@$0A@@@@Z
51DF30 ?InitEnd@ParticleEmitter@@QAEHXZ
51DF70 ?get_autonomous_movement@PhysicsDesc@@QBEHXZ
51DF80 ?get_timestamp@PhysicsDesc@@QBEGW4PhysicsTimeStamp@@@Z
51DF90 ?get_parent_id@PhysicsDesc@@QBEKXZ
51DFA0 ?get_parent_location_id@PhysicsDesc@@QBEKXZ
51DFB0 ?GetPersistantData@UIFlow@@UAEPAVUIPersistantData@@XZ
51DFC0 ?get_child_id@PhysicsDesc@@QBEKK@Z
51DFD0 ?get_child_location_id@PhysicsDesc@@QBEKK@Z
51DFE0 ??0PhysicsDesc@@QAE@XZ
51E0E0 ?Destroy@PhysicsDesc@@AAEXXZ
51E250 ??1PhysicsDesc@@UAE@XZ
51E270 ?get_mtable_id@PhysicsDesc@@QBE?AV?$IDClass@U_tagDataID@@$0CA@$0A@@@XZ
51E280 ?get_setup_id@PhysicsDesc@@QBE?AV?$IDClass@U_tagDataID@@$0CA@$0A@@@XZ
51E290 ??_EPhysicsDesc@@UAEPAXI@Z
51E2D0 ?Pack@PhysicsDesc@@UAEIAAPAXI@Z
51E8E0 ?UnPack@PhysicsDesc@@UAEHAAPAXI@Z
51EDD0 ?GetDBOType@GfxObjDegradeInfo@@UBEKXZ
51EDE0 ?get_max_degrade_distance@GfxObjDegradeInfo@@QBEMXZ
51EE00 ??_EGfxObjDegradeInfo@@WDA@AEPAXI@Z
51EE10 ?Allocate@GfxObjDegradeInfo@@UBEPAVDBObj@@XZ
51EE20 ?Destroy@GfxObjDegradeInfo@@UAEXXZ
51EE50 ?Pack@GfxObjDegradeInfo@@UAEIAAPAXI@Z
51EF10 ?UnPack@GfxObjDegradeInfo@@UAEHAAPAXI@Z
51EFC0 ?get_degrade@GfxObjDegradeInfo@@QBEXMAAKAAH@Z
51F140 ?GetSubDataIDs@GfxObjDegradeInfo@@UBEXAAVQualifiedDataIDArray@@@Z
51F190 ??_GGfxObjDegradeInfo@@UAEPAXI@Z
51F1F0 ?RemoveMotion@RawMotionState@@QAEXK@Z
51F260 ?copy_movement_from@InterpretedMotionState@@QAEXABV1@@Z
51F2A0 ?RemoveMotion@InterpretedMotionState@@QAEXK@Z
51F300 ??0RawMotionState@@QAE@XZ
51F3B0 ?RemoveAction@RawMotionState@@QAEKXZ
51F3E0 ??0InterpretedMotionState@@QAE@XZ
51F420 ?Destroy@InterpretedMotionState@@QAEXXZ
51F460 InterpretedMotionState::operator_eq
51F4F0 InterpretedMotionState::AddAction
51F550 ?ApplyMotion@InterpretedMotionState@@QAEXKABVMovementParameters@@@Z
51F5E0 ?RemoveAction@InterpretedMotionState@@QAEKXZ
51F610 ?GetNumActions@InterpretedMotionState@@QBEKXZ
51F630 ?Destroy@RawMotionState@@QAEXXZ
51F670 ?ApplyMotion@RawMotionState@@QAEXKABVMovementParameters@@@Z
51F770 ??4RawMotionState@@QAEAAV0@ABV0@@Z
51F820 RawMotionState::Pack
51FAD0 RawMotionState::UnPack
51FC90 InterpretedMotionState::InterpretedMotionState
51FCC0 ??1InterpretedMotionState@@UAE@XZ
51FCE0 InterpretedMotionState::Pack
51FF10 ?UnPack@InterpretedMotionState@@UAEHAAPAXI@Z
5200D0 ??1RawMotionState@@UAE@XZ
5200F0 ??_GInterpretedMotionState@@UAEPAXI@Z
520120 ??_GRawMotionState@@UAEPAXI@Z
520150 ?pack_size@AnimFrame@@QAEIK@Z
520180 ??0AFrame@@QAE@XZ
5201A0 ??0CAnimation@@QAE@XZ
5201E0 ?pack_size@TextureVelocityHook@@UAEIXZ
5201F0 ??_ECAnimation@@WDA@AEPAXI@Z
520200 ?GetSubDataIDs@CAnimation@@UBEXAAVQualifiedDataIDArray@@@Z
520250 ?pack_size@CAnimation@@QBEIXZ
5202F0 ?Destroy@AnimFrame@@QAEXXZ
520340 ?Pack@AnimFrame@@QAEIKAAPAXI@Z
5203F0 ?UnPack@AnimFrame@@QAEHKAAPAXI@Z
5204C0 ?Allocate@CAnimation@@UBEPAVDBObj@@XZ
5204D0 ??_EAnimFrame@@QAEPAXI@Z
520590 ?Pack@CAnimation@@UAEIAAPAXI@Z
520660 ?UnPack@CAnimation@@UAEHAAPAXI@Z
520780 ?Destroy@CAnimation@@UAEXXZ
5207C0 ??1CAnimation@@UAE@XZ
520810 ??_GCAnimation@@UAEPAXI@Z
520830 ?UnPack@CSphere@@QAEHAAPAXI@Z
520870 ??_EPlacementType@@UAEPAXI@Z
5208B0 ?GetSubDataIDs@CSetup@@UBEXAAVQualifiedDataIDArray@@@Z
520A00 ??0CSetup@@QAE@XZ
520B90 ?GetNumAttribute2ndStats@ACQualityFilter@@MBEKXZ
520BA0 ??_ECSetup@@ODA@AEPAXI@Z
520BB0 ?makeSimpleSetup@CSetup@@SAPAV1@V?$IDClass@U_tagDataID@@$0CA@$0A@@@@Z
520D10 ?makeParticleSetup@CSetup@@SAPAV1@KABVCSphere@@@Z
520D40 ?pack_size@CSetup@@QAEIXZ
5210A0 ?Pack@CSetup@@UAEIAAPAXI@Z
521770 ?UnPack@CSetup@@UAEHAAPAXI@Z
521F10 ?GetHoldingLocation@CSetup@@QBEPBVLocationType@@K@Z
521F50 ?Allocate@CSetup@@UBEPAVDBObj@@XZ
521F60 ?Destroy@CSetup@@UAEXXZ
5220C0 ??_ECSetup@@MAEPAXI@Z
522120 ?Sort@PhysicsScriptData@@KAHPBX0@Z
522150 ?Grow@?$OldSmartArray@PAVPhysicsScriptData@@@@QAEHH@Z
5221B0 ??0PhysicsScript@@QAE@XZ
5221F0 ?GetDBOType@PhysicsScript@@UBEKXZ
522200 ??_EPhysicsScript@@WDA@AEPAXI@Z
522210 ?Destroy@PhysicsScript@@UAEXXZ
522280 ?GetSubDataIDs@PhysicsScript@@UBEXAAVQualifiedDataIDArray@@@Z
5222B0 ?pack_size@PhysicsScript@@QAEIXZ
522300 ?Pack@PhysicsScript@@UAEIAAPAXI@Z
5223C0 ?Allocate@PhysicsScript@@UBEPAVDBObj@@XZ
5223D0 ?UnPack@PhysicsScript@@UAEHAAPAXI@Z
5224F0 ??_GPhysicsScript@@UAEPAXI@Z
522540 ?GetScript@PhysicsScriptTableData@@IBE?AV?$IDClass@U_tagDataID@@$0CA@$0A@@@M@Z
522590 ??_E?$IntrusiveHashTable@KPAV?$HashTableData@KPAVPhysicsScriptTableData@@@@$0A@@@UAEPAXI@Z
5225D0 ?Reset@?$SmartArray@VScriptAndModData@@@AC1Legacy@@QAEXXZ
522600 ?Pack@PhysicsScriptTableData@@IAEIAAPAXI@Z
522680 ?GetSubDataIDs@PhysicsScriptTableData@@QBEXAAVQualifiedDataIDArray@@@Z
5226D0 ?grow@?$SmartArray@VScriptAndModData@@@AC1Legacy@@QAEHK@Z
522780 ?pack_size@PhysicsScriptTable@@QAEIAAH@Z
522800 ?Pack@PhysicsScriptTable@@UAEIAAPAXI@Z
5228B0 ?GetSubDataIDs@PhysicsScriptTable@@UBEXAAVQualifiedDataIDArray@@@Z
522910 ?UnPack@PhysicsScriptTableData@@IAEHAAPAXI@Z
522990 ?GetScript@PhysicsScriptTable@@QBE?AV?$IDClass@U_tagDataID@@$0CA@$0A@@@W4PScriptType@@M@Z
522A00 ??0?$IntrusiveHashTable@KPAV?$HashTableData@KPAVPhysicsScriptTableData@@@@$0A@@@QAE@I@Z
522A90 ??_G?$HashTable@KPAVPhysicsScriptTableData@@$0A@@@UAEPAXI@Z
522B30 ?GetDBOType@PhysicsScriptTable@@UBEKXZ
522B40 ??_EPhysicsScriptTable@@WDA@AEPAXI@Z
522B50 ?Destroy@PhysicsScriptTable@@UAEXXZ
522C30 ?UnPack@PhysicsScriptTable@@UAEHAAPAXI@Z
522D20 ?Allocate@PhysicsScriptTable@@UBEPAVDBObj@@XZ
522D30 ??1PhysicsScriptTable@@UAE@XZ
522D90 ??_EPhysicsScriptTable@@UAEPAXI@Z
522DB0 ?same_sign@@YAHMM@Z
522DE0 ?change_cycle_speed@@YAXAAVCSequence@@PBVMotionData@@MM@Z
522E30 ?re_modify@CMotionTable@@ABEXAAVCSequence@@AAVMotionState@@@Z
522EC0 ?grow@?$DArray@K@@QAEXK@Z
522F20 ?shrink@?$DArray@K@@QAEXK@Z
522FA0 ??_EMotionData@@W3AEPAXI@Z
522FB0 ??_EMotionData@@UAEPAXI@Z
522FD0 ??1MotionData@@UAE@XZ
523000 ?add_motion@@YAXAAVCSequence@@PAVMotionData@@M@Z
5230D0 ?combine_motion@@YAXAAVCSequence@@PBVMotionData@@M@Z
523150 ?subtract_motion@@YAXAAVCSequence@@PBVMotionData@@M@Z
5231D0 ?lookup@?$LongHash@VMotionData@@@@QBEPAVMotionData@@K@Z
523210 ?lookup@?$LongNIValHash@PAVSurfInfo@@@@QBEHKAAPAVSurfInfo@@@Z
523260 ?is_allowed@CMotionTable@@ABEHKPBVMotionData@@ABVMotionState@@@Z
5232B0 ?get_link@CMotionTable@@ABEPAVMotionData@@KKMKM@Z
523400 ?GetObjectSequence@CMotionTable@@QBEHKAAVMotionState@@AAVCSequence@@MAAKH@Z
523B60 ?StopSequenceMotion@CMotionTable@@QBEHKMAAVMotionState@@AAVCSequence@@AAK@Z
523C40 ?SetDefaultState@CMotionTable@@QBEHAAVMotionState@@AAVCSequence@@AAK@Z
523D20 ?Pack@CMotionTable@@UAEIAAPAXI@Z
524460 ?UnPack@CMotionTable@@UAEHAAPAXI@Z
524910 ?destroy_contents@?$LongNIValHash@K@@QAEXXZ
524970 ?Destroy@CMotionTable@@EAEXXZ
524A90 ?DoObjectMotion@CMotionTable@@QBEHKAAVMotionState@@AAVCSequence@@MAAK@Z
524AC0 ?StopObjectMotion@CMotionTable@@QBEHKMAAVMotionState@@AAVCSequence@@AAK@Z
524AD0 ?StopObjectCompletely@CMotionTable@@QBEHAAVMotionState@@AAVCSequence@@AAK@Z
524B50 ??1CMotionTable@@UAE@XZ
524C00 ?MakeMoveToManager@MovementManager@@AAEXXZ
524C20 ?SetWeenieObject@MovementManager@@QAEXPAVCWeenieObject@@@Z
524C50 ?Create@MovementManager@@SAPAV1@PAVCPhysicsObj@@PAVCWeenieObject@@@Z
524CD0 ?PerformMovement@MovementManager@@QAEKABVMovementStruct@@@Z
524D70 ?move_to_interpreted_state@MovementManager@@QAEXABVInterpretedMotionState@@@Z
524DB0 ?CancelMoveTo@MovementManager@@QAEXK@Z
524DC0 ?EnterDefaultState@MovementManager@@QAEXXZ
524E00 ?InqRawMotionState@MovementManager@@QAEABVRawMotionState@@XZ
524E30 ?InqInterpretedMotionState@MovementManager@@QAEABVInterpretedMotionState@@XZ
524E60 ?IsMovingTo@MovementManager@@QBEHXZ
524E80 ?motions_pending@MovementManager@@QBEHXZ
524EA0 ?get_minterp@MovementManager@@QAEPAVCMotionInterp@@XZ
524ED0 ?MotionDone@MovementManager@@QAEXKH@Z
524EF0 ?UseTime@MovementManager@@QAEXXZ
524F00 ?HitGround@MovementManager@@QAEXXZ
524F20 ?LeaveGround@MovementManager@@QAEXXZ
524F40 ?HandleEnterWorld@MovementManager@@QAEXXZ
524F50 ?HandleExitWorld@MovementManager@@QAEXXZ
524F60 ?ReportExhaustion@MovementManager@@QAEXXZ
524F80 ??0MovementParameters@@QAE@XZ
524FF0 ?Destroy@MovementManager@@QAEXXZ
525040 ?unpack_movement@MovementManager@@QAEHAAPAXI@Z
525390 ?HandleUpdateTarget@MovementManager@@QAEXVTargetInfo@@@Z
5253B0 ?get_pos_frame@AnimSequenceNode@@QBEPBVAFrame@@N@Z
5253E0 ??_ESetOmegaHook@@UAEPAXI@Z
525400 ?UnPack@DefaultScriptHook@@UAEHAAPAXI@Z
525410 ?pack_size@EtherealHook@@UAEIXZ
525420 ?set_object@CSequence@@QAEXPAVCPhysicsObj@@@Z
525430 ?execute_hooks@CSequence@@IBEXPBVAnimFrame@@H@Z
525480 ?set_velocity@CSequence@@QAEXABVVector3@AC1Legacy@@@Z
5254A0 ?set_omega@CSequence@@QAEXABVVector3@AC1Legacy@@@Z
5254C0 ?combine_physics@CSequence@@QAEXABVVector3@AC1Legacy@@0@Z
525500 ?subtract_physics@CSequence@@QAEXABVVector3@AC1Legacy@@0@Z
525540 ?multiply_cyclic_animation_fr@CSequence@@QAEXM@Z
525570 ?get_curr_animframe@CSequence@@QBEPBVAnimFrame@@XZ
5255B0 ?set_placement_frame@CSequence@@QAEXPBVAnimFrame@@I@Z
5255D0 ?get_curr_frame_number@CSequence@@QBEIXZ
5255F0 ??0CSequence@@QAE@XZ
525630 ??1CSequence@@UAE@XZ
5256B0 ?apply_physics@CSequence@@IBEXPAVFrame@@NN@Z
525740 ?apricot@CSequence@@IAEXXZ
5257D0 ?has_anims@CSequence@@QBEHXZ
5257E0 ?remove_link_animations@CSequence@@QAEXI@Z
5258A0 ?remove_all_link_animations@CSequence@@QAEXXZ
525950 ?clear_physics@CSequence@@QAEXXZ
5259C0 ?clear_animations@CSequence@@QAEXXZ
525A40 ?remove_cyclic_anims@CSequence@@QAEXXZ
525B20 ?pack_size@CSequence@@QAEIAAKAAI@Z
525C20 ?Pack@CSequence@@UAEIAAPAXI@Z
525D80 ?combine@Frame@@QAEXABV1@ABVAFrame@@@Z
525E90 ??_GCSequence@@UAEPAXI@Z
525EB0 ?advance_to_next_animation@CSequence@@IBEXNAAPBVAnimSequenceNode@@AANPAVFrame@@@Z
526110 ?append_animation@CSequence@@QAEXABVAnimData@@@Z
5261B0 ?clear@CSequence@@QAEXXZ
5261D0 ?update_internal@CSequence@@IBEXNAAPAVAnimSequenceNode@@AANPAVFrame@@@Z
5265D0 ?UnPack@CSequence@@UAEHAAPAXI@Z
526780 ?update@CSequence@@QAEXNPAVFrame@@@Z
5267E0 ?multiply_framerate@AnimSequenceNode@@QAEXM@Z
526810 ?get_pos_frame@AnimSequenceNode@@QBEPBVAFrame@@H@Z
526840 ?get_part_frame@AnimSequenceNode@@QBEPBVAnimFrame@@H@Z
526870 ?has_anim@AnimSequenceNode@@QBEHXZ
526880 ?get_starting_frame@AnimSequenceNode@@QBEMXZ
5268B0 ?get_ending_frame@AnimSequenceNode@@QBEMXZ
5268E0 ??0AnimData@@QAE@XZ
526900 ??D@YA?AVAnimData@@MABV0@@Z
526930 ??0AnimSequenceNode@@QAE@XZ
526960 ?set_animation_id@AnimSequenceNode@@QAEXV?$IDClass@U_tagDataID@@$0CA@$0A@@@@Z
5269E0 ?GetNext@AnimSequenceNode@@QBEPBV1@XZ
5269F0 ?GetPrev@AnimSequenceNode@@QAEPAV1@XZ
526A00 ?Pack@AnimData@@UAEIAAPAXI@Z
526A50 ?UnPack@AnimData@@UAEHAAPAXI@Z
526AA0 ??_EAnimSequenceNode@@UAEPAXI@Z
526AE0 ?Pack@AnimSequenceNode@@UAEIAAPAXI@Z
526B40 ?UnPack@AnimSequenceNode@@UAEHAAPAXI@Z
526B90 ??0AnimSequenceNode@@QAE@ABVAnimData@@@Z
526BD0 ??0MotionState@@QAE@XZ
526BF0 ?add_modifier_no_check@MotionState@@QAEXKM@Z
526C40 ?remove_modifier@MotionState@@QAEXPAVMotionList@@0@Z
526C70 ?clear_modifiers@MotionState@@QAEXXZ
526CA0 ?add_action@MotionState@@QAEXKM@Z
526CF0 ?clear_actions@MotionState@@QAEXXZ
526D20 ?remove_action_head@MotionState@@QAEKXZ
526D50 ?Destroy@MotionData@@QAEXXZ
526D90 ?GET_SIZE_LEFT@PackObj@@SAIPAX0I@Z
526DB0 ?VERIFY_ADDR@PackObj@@SAHPAX0I@Z
526DD0 ?copy@MotionState@@AAEXABV1@@Z
526EE0 ?Destroy@MotionState@@QAEXXZ
526F30 ??1MotionState@@QAE@XZ
526F40 ?add_modifier@MotionState@@QAEHKM@Z
526F80 ?Pack@MotionData@@UAEIAAPAXI@Z
527170 ?UnPack@MotionData@@UAEHAAPAXI@Z
527320 ??_EAnimData@@UAEPAXI@Z
527390 ??0MotionState@@QAE@ABV0@@Z
5273B0 ??1AttackCone@@QAE@XZ
5273D0 ??0AttackHook@@QAE@XZ
527400 ?GetType@FileNodeName_Double@@UBE?AW4NodeNameType@@XZ
527410 ??_GAttackHook@@UAEPAXI@Z
527440 ?GetUIElementType@UIElement_Menu@@UBEKXZ
527450 ?GetType@NoDrawHook@@UAEHXZ
527460 ?GetType@DefaultScriptPartHook@@UAEHXZ
527470 ?GetType@LuminousPartHook@@UAEHXZ
527480 ?GetUIElementType@UIElement_Scrollbar@@UBEKXZ
527490 ?GetDBOType@Palette@@UBEKXZ
5274A0 ?GetType@DestroyParticleHook@@UAEHXZ
5274B0 ?GetType@StopParticleHook@@UAEHXZ
5274C0 ??0TextureVelocityPartHook@@QAE@XZ
5274F0 ?GetUIElementType@TextInputDialog@@UBEKXZ
527500 ??0TextureVelocityHook@@QAE@XZ
527520 ?GetUIElementType@MessageDialog@@UBEKXZ
527530 ?GetUIElementType@WaitDialog@@UBEKXZ
527540 ?add_to_list@CAnimHook@@QAEXAAPAV1@@Z
527570 ?PackSize@CAnimHook@@SAIPAV1@@Z
5275A0 ?PackHook@CAnimHook@@SAXPAV1@AAPAXI@Z
5275F0 ?IsProjectileSpell@ProjectileSpell@@UBEHXZ
527600 ??0SoundHook@@QAE@XZ
527620 ?Execute@SoundHook@@UBEXPAVCPhysicsObj@@@Z
527640 ??0SoundTweakedHook@@QAE@XZ
527680 ?Execute@SoundTweakedHook@@UBEXPAVCPhysicsObj@@@Z
5276A0 ?GetDBOType@CLandBlockInfo@@UBEKXZ
5276B0 ?Execute@SoundTableHook@@UBEXPAVCPhysicsObj@@@Z
5276D0 ?Pack@SoundTableHook@@UAEIAAPAXI@Z
5276F0 ?UnPack@SoundTableHook@@UAEHAAPAXI@Z
527710 ?pack_size@ReplaceObjectHook@@UAEIXZ
527730 ?Pack@ReplaceObjectHook@@UAEIAAPAXI@Z
527740 ?UnPack@ReplaceObjectHook@@UAEHAAPAXI@Z
527750 ?pack_size@AttackHook@@UAEIXZ
527770 ?Execute@AttackHook@@UBEXPAVCPhysicsObj@@@Z
527780 ?Pack@NoDrawHook@@UAEIAAPAXI@Z
5277A0 ?UnPack@DestroyParticleHook@@UAEHAAPAXI@Z
5277C0 ?Execute@EtherealHook@@UBEXPAVCPhysicsObj@@@Z
5277E0 ?Execute@NoDrawHook@@UBEXPAVCPhysicsObj@@@Z
527800 ?Execute@DefaultScriptPartHook@@UBEXPAVCPhysicsObj@@@Z
527810 ?Execute@DefaultScriptHook@@UBEXPAVCPhysicsObj@@@Z
527820 ?Execute@AnimDoneHook@@UBEXPAVCPhysicsObj@@@Z
527830 ?Execute@TransparentHook@@UBEXPAVCPhysicsObj@@@Z
527850 ?Pack@DiffuseHook@@UAEIAAPAXI@Z
527890 ?UnPack@LuminousHook@@UAEHAAPAXI@Z
5278C0 ?Execute@TransparentPartHook@@UBEXPAVCPhysicsObj@@@Z
5278F0 ?UnPack@TransparentPartHook@@UAEHAAPAXI@Z
527930 ?Execute@LuminousPartHook@@UBEXPAVCPhysicsObj@@@Z
527960 ?Execute@LuminousHook@@UBEXPAVCPhysicsObj@@@Z
527980 ?Execute@DiffusePartHook@@UBEXPAVCPhysicsObj@@@Z
5279B0 ?Pack@DiffusePartHook@@UAEIAAPAXI@Z
527A00 ?Execute@DiffuseHook@@UBEXPAVCPhysicsObj@@@Z
527A20 ?Execute@CallPESHook@@UBEXPAVCPhysicsObj@@@Z
527A40 ?Execute@ScaleHook@@UBEXPAVCPhysicsObj@@@Z
527A60 ?Pack@TextureVelocityHook@@UAEIAAPAXI@Z
527A90 ?UnPack@ScaleHook@@UAEHAAPAXI@Z
527AC0 ?Execute@CreateParticleHook@@UBEXPAVCPhysicsObj@@@Z
527AE0 ?GetPackSize@ChatRoomTracker@@MAEIXZ
527AF0 ?Execute@CreateBlockingParticleHook@@UBEXPAVCPhysicsObj@@@Z
527B10 ?Execute@DestroyParticleHook@@UBEXPAVCPhysicsObj@@@Z
527B20 ?Execute@StopParticleHook@@UBEXPAVCPhysicsObj@@@Z
527B30 ?Execute@SetOmegaHook@@UBEXPAVCPhysicsObj@@@Z
527B50 ?Execute@TextureVelocityPartHook@@UBEXPAVCPhysicsObj@@@Z
527B70 ?Pack@TextureVelocityPartHook@@UAEIAAPAXI@Z
527BB0 ?Execute@TextureVelocityHook@@UBEXPAVCPhysicsObj@@@Z
527BD0 ?Execute@SetLightHook@@UBEXPAVCPhysicsObj@@@Z
527BF0 ?Pack@AttackCone@@QAEIAAPAXI@Z
527C60 ?UnPack@AttackCone@@QAEHAAPAXI@Z
527CC0 ??0ReplaceObjectHook@@QAE@XZ
527CF0 ?GetType@ReplaceObjectHook@@UAEHXZ
527D00 ??_GReplaceObjectHook@@UAEPAXI@Z
527D30 ??0CreateParticleHook@@QAE@XZ
527D70 ?GetDBOType@CSurface@@UBEKXZ
527D80 ??0CreateBlockingParticleHook@@QAE@XZ
527DC0 ?GetType@CallPESHook@@UAEHXZ
527DD0 ?UnPackHook@CAnimHook@@SAPAV1@AAPAXI@Z
528280 ??_GSoundHook@@UAEPAXI@Z
5282C0 ?UnPack@SoundHook@@UAEHAAPAXI@Z
5282F0 ??_GSoundTweakedHook@@UAEPAXI@Z
528330 ?Pack@SoundTweakedHook@@UAEIAAPAXI@Z
528380 ?UnPack@SoundTweakedHook@@UAEHAAPAXI@Z
5283D0 ?Pack@AttackHook@@UAEIAAPAXI@Z
5283E0 ?UnPack@AttackHook@@UAEHAAPAXI@Z
5283F0 ?Pack@CallPESHook@@UAEIAAPAXI@Z
528420 ?UnPack@CallPESHook@@UAEHAAPAXI@Z
528450 ?Pack@CreateParticleHook@@UAEIAAPAXI@Z
5284A0 ?UnPack@CreateParticleHook@@UAEHAAPAXI@Z
5284F0 ?Pack@SetOmegaHook@@UAEIAAPAXI@Z
528540 ?UnPack@SetOmegaHook@@UAEHAAPAXI@Z
528580 ?GetSubDataIDs@ReplaceObjectHook@@UBEXAAVQualifiedDataIDArray@@@Z
5285B0 ?GetSubDataIDs@CreateParticleHook@@UBEXAAVQualifiedDataIDArray@@@Z
5285E0 ?motion_allows_jump@CMotionInterp@@QAEKK@Z
528660 ?jump_charge_is_allowed@CMotionInterp@@QAEKXZ
5286B0 ?get_jump_v_z@CMotionInterp@@QBEMXZ
528720 ?InqStyle@CMotionInterp@@QBEKXZ
528730 ?on_ground@CPhysicsObj@@QBEHXZ
528750 ?Destroy@CMotionInterp@@QAEXXZ
528790 ?add_to_queue@CMotionInterp@@AAEXKKK@Z
5287F0 ?apply_run_to_command@CMotionInterp@@IBEXAAKAAM@Z
5288C0 ?get_max_speed@CMotionInterp@@QBEMXZ
528910 ?get_adjusted_max_speed@CMotionInterp@@QBEMXZ
528960 ?get_state_velocity@CMotionInterp@@QBEXAAVVector3@AC1Legacy@@@Z
528A50 ?StopCompletely@CMotionInterp@@QAEKXZ
528AD0 ?MotionDone@CMotionInterp@@QAEXH@Z
528B40 ?HandleExitWorld@CMotionInterp@@QAEXXZ
528BB0 ?is_standing_still@CMotionInterp@@QBEHXZ
528BF0 ?motions_pending@CMotionInterp@@QBEHXZ
528C00 ??1CMotionInterp@@QAE@XZ
528C20 ?adjust_motion@CMotionInterp@@QBEXAAKAAMW4HoldKey@@@Z
528CD0 ?get_leave_ground_velocity@CMotionInterp@@QAEXAAVVector3@AC1Legacy@@@Z
528DD0 ?charge_jump@CMotionInterp@@QAEKXZ
528E50 ?contact_allows_move@CMotionInterp@@QBEHK@Z
528EC0 ?jump_is_allowed@CMotionInterp@@QAEKMAAJ@Z
528F70 ?DoInterpretedMotion@CMotionInterp@@QAEKKABVMovementParameters@@@Z
529080 ?StopInterpretedMotion@CMotionInterp@@QAEKKABVMovementParameters@@@Z
529140 ?StopMotion@CMotionInterp@@QAEKKABVMovementParameters@@@Z
529210 ?apply_interpreted_movement@CMotionInterp@@IAEXHH@Z
529390 ?jump@CMotionInterp@@QAEKMAAJ@Z
5293F0 ?apply_raw_movement@CMotionInterp@@IAEXHH@Z
529480 ?apply_current_movement@CMotionInterp@@IAEXHH@Z
5294E0 ?ReportExhaustion@CMotionInterp@@QAEXXZ
529530 ?SetWeenieObject@CMotionInterp@@QAEXPAVCWeenieObject@@@Z
529580 ?SetPhysicsObject@CMotionInterp@@QAEXPAVCPhysicsObj@@@Z
5295D0 ?move_to_interpreted_state@CMotionInterp@@QAEHABVInterpretedMotionState@@@Z
5296D0 ?HitGround@CMotionInterp@@QAEXXZ
529710 ?LeaveGround@CMotionInterp@@QAEXXZ
529780 ?set_hold_run@CMotionInterp@@QAEXHH@Z
5297C0 ?SetHoldKey@CMotionInterp@@QAEXW4HoldKey@@H@Z
529810 ?Create@CMotionInterp@@SAPAV1@PAVCPhysicsObj@@PAVCWeenieObject@@@Z
529890 ?enter_default_state@CMotionInterp@@QAEXXZ
529930 ?DoMotion@CMotionInterp@@QAEKKABVMovementParameters@@@Z
529A90 ?PerformMovement@CMotionInterp@@QAEKABVMovementStruct@@@Z
529B70 ?heading_greater@@YAHMMK@Z
529BC0 ?heading_diff@@YAMMMK@Z
529C20 ?_DoMotion@MoveToManager@@IAEKKAAVMovementParameters@@@Z
529C90 ?_StopMotion@MoveToManager@@IAEKKAAVMovementParameters@@@Z
529D00 ?CheckProgressMade@MoveToManager@@IAEHM@Z
529DC0 ?GetCurrentDistance@MoveToManager@@IBEMXZ
529E30 ?is_moving_to@MoveToManager@@QBEHXZ
529E40 ?SetWeenieObject@MoveToManager@@QAEXPAVCWeenieObject@@@Z
529E50 ?SetPhysicsObject@MoveToManager@@QAEXPAVCPhysicsObj@@@Z
529E60 ?InitializeLocalVariables@MoveToManager@@IAEXXZ
529F90 ?RemovePendingActionsHead@MoveToManager@@IAEXXZ
529FC0 ??0MoveToManager@@IAE@XZ
52A080 ?Create@MoveToManager@@SAPAV1@PAVCPhysicsObj@@PAVCWeenieObject@@@Z
52A0C0 ?Destroy@MoveToManager@@QAEXXZ
52A140 ?AddTurnToHeadingNode@MoveToManager@@IAEXM@Z
52A190 ?AddMoveToPositionNode@MoveToManager@@IAEXXZ
52A1D0 ?CleanUp@MoveToManager@@IAEXXZ
52A260 ?CleanUpAndCallWeenie@MoveToManager@@IAEXK@Z
52A290 ?MoveToObject@MoveToManager@@QAEXKKMMABVMovementParameters@@@Z
52A3E0 ?TurnToObject@MoveToManager@@QAEXKKABVMovementParameters@@@Z
52A540 ?CancelMoveTo@MoveToManager@@QAEXK@Z
52A5E0 ??1MoveToManager@@QAE@XZ
52A610 ?BeginMoveForward@MoveToManager@@IAEXXZ
52A7A0 ?BeginTurnToHeading@MoveToManager@@IAEXXZ
52A8C0 ?BeginNextNode@MoveToManager@@IAEXXZ
52A980 ?HitGround@MoveToManager@@QAEXXZ
52A990 ?HandleMoveToPosition@MoveToManager@@IAEXXZ
52ACD0 ?HandleTurnToHeading@MoveToManager@@IAEXXZ
52AE50 ?MoveToPosition@MoveToManager@@QAEXABVPosition@@ABVMovementParameters@@@Z
52B010 ?MoveToObject_Internal@MoveToManager@@IAEXABVPosition@@0@Z
52B160 ?TurnToObject_Internal@MoveToManager@@IAEXABVPosition@@@Z
52B240 ?TurnToHeading@MoveToManager@@QAEXABVMovementParameters@@@Z
52B3E0 ?HandleUpdateTarget@MoveToManager@@QAEXABVTargetInfo@@@Z
52B510 ?PerformMovement@MoveToManager@@QAEKABVMovementStruct@@@Z
52B5B0 ?towards_and_away@MovementParameters@@ABEXMMAAKAAH@Z
52B610 ?get_command@MovementParameters@@QBEXMMAAKAAW4HoldKey@@AAH@Z
52B6E0 ?get_desired_heading@MovementParameters@@QBEMKH@Z
52B730 ?Pack@MovementParameters@@UAEIAAPAXI@Z
52B7D0 ?UnPack@MovementParameters@@UAEHAAPAXI@Z
52B860 ?UnPackNet@MovementParameters@@QAEHW4Type@MovementTypes@@AAPAXI@Z
52B950 ?GetVisible@CObjCell@@SAPAV1@K@Z
52B980 ?SetObjectMaintainer@CObjCell@@SAXPAVCObjectMaint@@@Z
52B990 ?add_dynamic_lights@CObjCell@@SAXXZ
52B9A0 ?get_block_water_type@CObjCell@@QBE?AW4WaterType@LandDefs@@XZ
52B9C0 ?shrink@?$DArray@PBVLIGHTOBJ@@@@QAEXK@Z
52BA40 ?grow@?$DArray@PBVLIGHTOBJ@@@@QAEXK@Z
52BAA0 ?shrink@?$DArray@PAVCShadowObj@@@@QAEXK@Z
52BB20 ?grow@?$DArray@PAVCShadowObj@@@@QAEXK@Z
52BB80 ??0CObjCell@@QAE@XZ
52BC80 ?find_transit_cells@CObjCell@@UBEXABVPosition@@KPBVCSphere@@AAVCELLARRAY@@PAVSPHEREPATH@@@Z
52BC90 ?find_transit_cells@CObjCell@@UBEXKPAPAVCPhysicsPart@@AAVCELLARRAY@@@Z
52BCA0 j_?Abort@Debug@Turbine@@SAXXZ
52BCB0 ??_ECObjCell@@WDA@AEPAXI@Z
52BCC0 ??_ECObjCell@@WDI@AEPAXI@Z
52BCD0 ??1CObjCell@@UAE@XZ
52BD90 ?Get@CObjCell@@SAPAV1@K@Z
52BDE0 ?add_light@CObjCell@@QAEXPBVLIGHTOBJ@@@Z
52BE20 ?remove_light@CObjCell@@QAEXPBVLIGHTOBJ@@@Z
52BE90 ?add_shadow_object@CObjCell@@QAEXPAVCShadowObj@@K@Z
52BEE0 ?remove_shadow_object@CObjCell@@QAEXPAVCShadowObj@@@Z
52BF60 ?add_static_to_global_lights@CObjCell@@IAEXXZ
52BFA0 ?add_dynamic_to_global_lights@CObjCell@@IAEXXZ
52BFF0 ?GetViewerDistance@CObjCell@@UBEMAAVVector3@AC1Legacy@@@Z
52C030 ?init_objects@CObjCell@@QAEXXZ
52C0A0 ?release_objects@CObjCell@@QAEXXZ
52C0F0 ?find_cell_list@CObjCell@@SAXABVPosition@@KPBVCSphere@@AAVCELLARRAY@@PAPAV1@PAVSPHEREPATH@@@Z
52C2E0 ?check_entry_restrictions@CObjCell@@IBE?AW4TransitionState@@AAVCTransition@@@Z
52C360 ?find_obj_collisions@CObjCell@@QBE?AW4TransitionState@@AAVCTransition@@@Z
52C3C0 ?check_collisions@CObjCell@@QBEHPBVCPhysicsObj@@@Z
52C420 ?check_attack@CObjCell@@QBEXKABVPosition@@MABVAttackCone@@PAVAttackInfo@@@Z
52C4B0 ?get_water_depth@CObjCell@@QBEMABVVector3@AC1Legacy@@@Z
52C500 ?get_object@CObjCell@@UBEPAVCPhysicsObj@@K@Z
52C540 ??_ECObjCell@@UAEPAXI@Z
52C560 ?add_lights@CObjCell@@QAEXXZ
52C570 ?find_cell_list@CObjCell@@SAXAAVCELLARRAY@@PAPAV1@PAVSPHEREPATH@@@Z
52C5A0 ?find_cell_list@CObjCell@@SAXABVPosition@@ABVCSphere@@AAVCELLARRAY@@PAVSPHEREPATH@@@Z
52C600 ?find_cell_list@CObjCell@@SAXABVPosition@@KPBVCCylSphere@@AAVCELLARRAY@@PAVSPHEREPATH@@@Z
52C6C0 ??0?$LongNIValHash@VGlobalVoyeurInfo@@@@QAE@I@Z
52C700 ?add@?$LongNIValHash@VGlobalVoyeurInfo@@@@QAEXVGlobalVoyeurInfo@@K@Z
52C770 ?add_voyeur@CObjCell@@QAEHKPBVDetectionCylsphere@@@Z
52C8A0 ?remove_voyeur@CObjCell@@QAEHKPBVDetectionCylsphere@@@Z
52C990 ?update_all_voyeur@CObjCell@@IAEXPAVCPhysicsObj@@W4DetectionType@@@Z
52CA40 ?hide_object@CObjCell@@QAEXPAVCPhysicsObj@@@Z
52CA50 ?unhide_object@CObjCell@@QAEXPAVCPhysicsObj@@@Z
52CB00 ??_E?$LongNIValHash@VGlobalVoyeurInfo@@@@UAEPAXI@Z
52CB20 ??1?$LongNIValHash@VGlobalVoyeurInfo@@@@UAE@XZ
52CB70 ?add_object@CObjCell@@QAEXPAVCPhysicsObj@@@Z
52CC50 ?remove_object@CObjCell@@QAEXPAVCPhysicsObj@@@Z
52CCD0 ?GetDrawnThisFrame@CEnvCell@@IAE_NXZ
52CCF0 ?SetDrawnThisFrame@CEnvCell@@IAEXXZ
52CD10 ?find_collisions@CEnvCell@@UBE?AW4TransitionState@@AAVCTransition@@@Z
52CD40 ?find_env_collisions@CEnvCell@@UBE?AW4TransitionState@@AAVCTransition@@@Z
52CDD0 ?handle_move_restriction@CEnvCell@@MBEHAAVCTransition@@@Z
52CDE0 ?pack_size@CEnvCell@@QAEIXZ
52CE50 ??0CEnvCell@@QAE@XZ
52CEF0 ??_ECEnvCell@@WDA@AEPAXI@Z
52CF00 ??_ECEnvCell@@WDI@AEPAXI@Z
52CF10 ?point_in_cell@CEnvCell@@UBEHABVVector3@AC1Legacy@@@Z
52CF60 ?init_static_objects@CEnvCell@@UAEXXZ
52D040 ?setup_view@CEnvCell@@QAEXI@Z
52D070 ?PreFetchCells@CEnvCell@@IAEHAAK@Z
52D1E0 ?check_building_transit@CEnvCell@@QBEXJABVPosition@@KPBVCSphere@@AAVCELLARRAY@@PAVSPHEREPATH@@@Z
52D290 ?check_building_transit@CEnvCell@@QBEXJKPAPAVCPhysicsPart@@AAVCELLARRAY@@@Z
52D430 ?find_transit_cells@CEnvCell@@UBEXABVPosition@@KPBVCSphere@@AAVCELLARRAY@@PAVSPHEREPATH@@@Z
52D6F0 ?find_transit_cells@CEnvCell@@UBEXKPAPAVCPhysicsPart@@AAVCELLARRAY@@@Z
52D910 ?Pack@CEnvCell@@UAEIAAPAXI@Z
52DAE0 ?grow@?$DArray@VClipPlane@@@@QAEXK@Z
52DBA0 ??_E?$IntrusiveHashTable@KPAV?$HashTableData@KPAVCEnvCell@@@@$0A@@@UAEPAXI@Z
52DBE0 ?shrink@?$DArray@VClipPlane@@@@QAEXK@Z
52DCF0 ?begin@?$IntrusiveHashTable@KPAV?$HashTableData@KVBaseProperty@@@@$00@@QBE?AV?$IntrusiveHashIterator@KPAV?$HashTableData@KVBaseProperty@@@@$00@@XZ
52DD40 ?Allocate@CEnvCell@@UBEPAVDBObj@@XZ
52DD50 ?calc_clip_planes@CEnvCell@@QAEXXZ
52DE40 ?PreFetchCells@CEnvCell@@SAHV?$IDClass@U_tagDataID@@$0CA@$0A@@@AAK@Z
52DEC0 ?GetSubDataIDs@CEnvCell@@UBEXAAVQualifiedDataIDArray@@@Z
52DF80 ??1?$DArray@Uview_vertex@@@@QAE@XZ
52DFD0 ?add@?$PackableHashTable@V?$IDClass@U_tagDataID@@$0CA@$0A@@@J@@QAEHABV?$IDClass@U_tagDataID@@$0CA@$0A@@@ABJ@Z
52E070 ?add_dynamic_lights@CEnvCell@@SAXXZ
52E0D0 ?UnPack@CEnvCell@@UAEHAAPAXI@Z
52E500 ?recursively_get_object@CEnvCell@@QBEPAVCPhysicsObj@@KAAV?$PackableHashTable@KH@@@Z
52E5F0 ?Destroy@CEnvCell@@UAEXXZ
52E870 ?GetVisible@CEnvCell@@SAPAV1@K@Z
52E8B0 ?find_visible_child_cell@CEnvCell@@QBEPAV1@ABVVector3@AC1Legacy@@H@Z
52E9B0 ??0?$IntrusiveHashTable@KPAV?$HashTableData@KPAVCEnvCell@@@@$0A@@@QAE@I@Z
52EA40 ??_GCEnvCell@@UAEPAXI@Z
52EAA0 ?add_visible_cell@CEnvCell@@KAPAV1@K@Z
52EB50 ?flush_cells@CEnvCell@@SAXXZ
52EC40 ??_E?$HashTable@KPAVCEnvCell@@$0A@@@UAEPAXI@Z
52ECA0 ?grab_visible@CEnvCell@@SAXKPAKPAVCLandBlock@@@Z
52ECE0 ?release_visible@CEnvCell@@SAXKPAK@Z
52EE80 ?grab_visible_cells@CEnvCell@@UAEXXZ
52EEE0 ?release_cells@CEnvCell@@UAEXXZ
52F170 ?shrink@?$DArray@PAVCShadowPart@@@@QAEXK@Z
52F1F0 ?grow@?$DArray@PAVCShadowPart@@@@QAEXK@Z
52F250 ??0CPartCell@@QAE@XZ
52F270 ??1CPartCell@@UAE@XZ
52F290 ?remove_part@CPartCell@@UAEXPAVCPhysicsPart@@@Z
52F310 ?remove_shadows@CPartCell@@QAEXH@Z
52F360 ??_GCPartCell@@UAEPAXI@Z
52F3A0 ?add_part@CPartCell@@UAEXPAVCPhysicsPart@@PAPAVClipPlaneList@@PBVFrame@@K@Z
52F420 ?PreFetchCells@CLandBlockInfo@@QAEHXZ
52F480 ??1BuildInfo@@QAE@XZ
52F4E0 ??0CLandBlockInfo@@QAE@XZ
52F530 ??_ECLandBlockInfo@@WDA@AEPAXI@Z
52F540 ??0?$PackableHashTable@KK@@QAE@I@Z
52F570 ?Pack@?$PackableHashTable@KK@@UAEIAAPAXI@Z
52F610 ?Allocate@CLandBlockInfo@@UBEPAVDBObj@@XZ
52F620 ?Destroy@CLandBlockInfo@@UAEXXZ
52F720 ?pack_size@CLandBlockInfo@@QAEIXZ
52F7C0 ?Pack@CLandBlockInfo@@UAEIAAPAXI@Z
52F900 ?UnPack@CLandBlockInfo@@UAEHAAPAXI@Z
52FBD0 ?GetRestrictionIID@CLandBlockInfo@@QBEKK@Z
52FBF0 ?UnPack@?$PackableHashTable@KH@@UAEHAAPAXI@Z
52FCF0 ?Destroy@?$PackableHashTable@KK@@QAEXXZ
52FD20 ??_E?$PackableHashTable@KK@@UAEPAXI@Z
52FD50 ??_GCLandBlockInfo@@UAEPAXI@Z
52FD90 ?set_height@Plane@@QBEHAAVVector3@AC1Legacy@@@Z
52FDD0 ?CheckSlope@ObjectDesc@@QAEHM@Z
52FE00 ?ScaleObj@ObjectDesc@@QAEMKKK@Z
52FE80 ?destroy_buildings@CLandBlock@@QAEXXZ
52FF10 ?get_land_limits@CLandBlock@@QAEXXZ
530000 ?Pack@CLandBlock@@UAEIAAPAXI@Z
530050 ?UnPack@CLandBlock@@UAEHAAPAXI@Z
530090 ?release_objs@CLandBlock@@QAEXXZ
5300F0 ?init_dyn_objs@CLandBlock@@QAEXXZ
530150 ?init_lcell_ptrs@CLandBlock@@QAEXXZ
5301A0 ?grab_visible_cells@CLandBlock@@QAEXXZ
5301C0 ?release_visible_cells@CLandBlock@@QAEXXZ
5301E0 ?calc_sq_draw_order@CLandBlock@@AAEHW4Direction@LandDefs@@ABUSqCoord@@@Z
530650 ?add_static_object@CLandBlock@@QAEXPAVCPhysicsObj@@@Z
530690 ??0CLandBlock@@QAE@XZ
530780 ??_ECLandBlock@@WDA@AEPAXI@Z
530790 ?destroy_static_objects@CLandBlock@@QAEXXZ
5307E0 ?Destroy@CLandBlock@@UAEXXZ
530850 ?init@CLandBlock@@SAXXZ
5308B0 ?get_terrain@CLandBlock@@QAEKKABVVector3@AC1Legacy@@@Z
5309A0 ?GetSubDataIDs@CLandBlock@@UBEXAAVQualifiedDataIDArray@@@Z
5309E0 ?InitLoad@CLandBlock@@UAE_NXZ
530A30 ?release_all@CLandBlock@@QAEXXZ
530A60 ?get_landcell@CLandBlock@@QAEPAVCLandCell@@K@Z
530AC0 ?init_buildings@CLandBlock@@QAEXXZ
530C30 ?adjust_scene_obj_height@CLandBlock@@QAEXXZ
530D30 ?on_road@CLandBlock@@QAEHABVVector3@AC1Legacy@@@Z
530F80 ?PreFetchCells@CLandBlock@@QAEHXZ
531000 ?notify_change_size@CLandBlock@@QAEXXZ
531040 ?calc_draw_order@CLandBlock@@QAEXW4Direction@LandDefs@@ABUSqCoord@@@Z
531050 ?add_ambient_sounds@CLandBlock@@QAEXPAVAmbient@@@Z
531190 ?Allocate@CLandBlock@@UBEPAVDBObj@@XZ
5311A0 ?get_land_scenes@CLandBlock@@QAEXXZ
531720 ??_GCLandBlock@@UAEPAXI@Z
531780 ?init_static_objs@CLandBlock@@QAEXPAV?$LongNIValHash@K@@@Z
531930 ?get_cellstruct@CEnvironment@@QBEPAVCCellStruct@@K@Z
531940 ?pack_size@CEnvironment@@QAEIXZ
531990 ??0CEnvironment@@QAE@XZ
5319C0 ??_ECEnvironment@@WDA@AEPAXI@Z
5319D0 ?Pack@CEnvironment@@UAEIAAPAXI@Z
531A30 ?UnPack@CEnvironment@@UAEHAAPAXI@Z
531AD0 ?Allocate@CEnvironment@@UBEPAVDBObj@@XZ
531AE0 ?Destroy@CEnvironment@@UAEXXZ
531B30 ??_GCEnvironment@@UAEPAXI@Z
531B70 ??0CLandBlockStruct@@QAE@XZ
531BD0 ?InitPVArrays@CLandBlockStruct@@IAEXXZ
531D90 ??_ECLandCell@@UAEPAXI@Z
531E10 ?AddPolygon@CLandBlockStruct@@IAEPAVCPolygon@@KKKK@Z
531F10 ?pack_size@CLandBlockStruct@@QAEIXZ
531F20 ?Pack@CLandBlockStruct@@QAEIAAPAXI@Z
5320C0 ?AdjPlanes@CLandBlockStruct@@IAEXXZ
532120 ?RemoveSurfaces@CLandBlockStruct@@QAEXXZ
532190 ?Destroy@CLandBlockStruct@@QAEXXZ
532290 ?CalcCellWater@CLandBlockStruct@@IAEXJJAAH0@Z
532330 ?calc_water_depth@CLandBlockStruct@@QBEMKABVVector3@AC1Legacy@@@Z
532440 ?calc_lighting@CLandBlockStruct@@QAEXXZ
532A50 ?ConstructPolygons@CLandBlockStruct@@IAEXK@Z
532D10 ?UnPack@CLandBlockStruct@@QAEHAAPAXI@Z
532EB0 ?GetCellRotation@CLandBlockStruct@@IBEXKJJAA_NAAKAAW4Rotation@LandDefs@@@Z
533110 ?TransAdjust@CLandBlockStruct@@IAEXXZ
5334F0 ??1CLandBlockStruct@@QAE@XZ
533520 ?CalcWater@CLandBlockStruct@@IAEXXZ
533610 ?ConstructVertices@CLandBlockStruct@@IAEXXZ
5336E0 ?ConstructUVs@CLandBlockStruct@@IAEXK@Z
5338F0 ?generate@CLandBlockStruct@@QAEHKKW4Direction@LandDefs@@@Z
5339B0 ??0CLandCell@@QAE@XZ
5339F0 ?IsInView@CLandCell@@UBE?AW4BoundingType@@XZ
533A00 ??1CLandCell@@UAE@XZ
533A30 ?find_terrain_poly@CLandCell@@QBEHABVVector3@AC1Legacy@@AAPBVCPolygon@@@Z
533A80 ?point_in_cell@CLandCell@@UBEHABVVector3@AC1Legacy@@@Z
533AA0 ?find_collisions@CLandCell@@UBE?AW4TransitionState@@AAVCTransition@@@Z
533AD0 ?grab_visible_cells@CLandCell@@UAEXXZ
533AE0 ?release_cells@CLandCell@@UAEXXZ
533AF0 ?Get@CLandCell@@SAPAV1@K@Z
533B10 ?UnPack@CLandCell@@UAEHAAPAXI@Z
533B20 ?Trace@CLandCell@@UBEKAAVLOSParameters@@@Z
533B40 ??_ECLandCell@@WDA@AEPAXI@Z
533B50 ??_ECLandCell@@WDI@AEPAXI@Z
533B60 ?find_terrain@CLandCell@@QBE?AW4SURFCHAR@@ABVPosition@@@Z
533C00 ?add_outside_cell@CLandCell@@SAXAAVCELLARRAY@@JJ@Z
533C60 ?find_env_collisions@CLandCell@@UBE?AW4TransitionState@@AAVCTransition@@@Z
533DB0 ?handle_move_restriction@CLandCell@@MBEHAAVCTransition@@@Z
533E80 ?GetViewerDistance@CLandCell@@UBEMAAVVector3@AC1Legacy@@@Z
533ED0 ?walkable_surface_type@CLandCell@@UBE?AW4SURFCHAR@@PBVCPolygon@@ABVPosition@@@Z
533F10 ?add_cell_block@CLandCell@@SAXJJJJAAVCELLARRAY@@@Z
533FA0 ?check_add_cell_boundary@CLandCell@@SAXAAVCELLARRAY@@ABVVec2D@@JJMM@Z
5340A0 ?add_all_outside_cells@CLandCell@@SAXKPAPAVCPhysicsPart@@AAVCELLARRAY@@@Z
534370 ?add_all_outside_cells@CLandCell@@SAXABVPosition@@KPBVCSphere@@AAVCELLARRAY@@@Z
534540 ?find_transit_cells@CLandCell@@UBEXABVPosition@@KPBVCSphere@@AAVCELLARRAY@@PAVSPHEREPATH@@@Z
534580 ?find_transit_cells@CLandCell@@UBEXKPAPAVCPhysicsPart@@AAVCELLARRAY@@@Z
5345B0 ??0CCellStruct@@QAE@XZ
5345F0 ?get_portal@CCellStruct@@QAEPAVCPolygon@@G@Z
534630 ?point_in_cell@CCellStruct@@QBEHABVVector3@AC1Legacy@@@Z
534640 ?sphere_intersects_cell@CCellStruct@@QBE?AW4BoundingType@@ABVCSphere@@@Z
534650 ?box_intersects_cell@CCellStruct@@QBEHABVBBox@@@Z
534660 ?pack_size@CCellStruct@@QAEIXZ
534760 ?Pack@CCellStruct@@QAEIAAPAXI@Z
534910 ?Destroy@CCellStruct@@QAEXXZ
534A40 ?UnPack@CCellStruct@@QAEHAAPAXI@Z
534CD0 ??1CCellStruct@@QAE@XZ
534CF0 ??0CSortCell@@QAE@XZ
534D20 ??1CSortCell@@UAE@XZ
534D40 ?has_building@CSortCell@@QBEHXZ
534D50 ?add_part@CSortCell@@UAEXPAVCPhysicsPart@@PAPAVClipPlaneList@@PBVFrame@@K@Z
534D60 ?remove_part@CSortCell@@UAEXPAVCPhysicsPart@@@Z
534D70 ?add_building@CSortCell@@QAEXPAVCBuildingObj@@@Z
534D90 ?remove_building@CSortCell@@QAEXPAVCBuildingObj@@@Z
534DA0 ?find_transit_cells@CSortCell@@UBEXABVPosition@@KPBVCSphere@@AAVCELLARRAY@@PAVSPHEREPATH@@@Z
534DC0 ?find_transit_cells@CSortCell@@UBEXKPAPAVCPhysicsPart@@AAVCELLARRAY@@@Z
534DE0 ?find_collisions@CSortCell@@UBE?AW4TransitionState@@AAVCTransition@@@Z
534E00 ?get_object@CSortCell@@UBEPAVCPhysicsObj@@K@Z
534E30 ??_ECSortCell@@WDA@AEPAXI@Z
534E40 ??_ECSortCell@@WDI@AEPAXI@Z
534E50 ??_ECSortCell@@UAEPAXI@Z
534E90 ?AdjustBBox@BBox@@QAEXABVVector3@@@Z
534F10 ?TexVelocity@CGfxObj@@QAE_NVCVec2Duv@@@Z
534F40 ?init_end@CGfxObj@@QAEXXZ
535000 ?Serialize@?$SB_AsPackObj@$0A@@@SAXABQAVCGfxObj@@AAVCVertexArray@@AAVArchive@@@Z
5350A0 ?Serialize@?$SB_AsPackObj@$0A@@@SAXABQAVCGfxObj@@AAVCPolygon@@AAVArchive@@@Z
535140 ?Serialize@?$SB_AsPackObj@$0A@@@SAXABQAVCGfxObj@@AAVBSPTREE@@AAVArchive@@@Z
5351E0 ?intersects@CSphere@@QBEHABV1@@Z
535240 ??0CGfxObj@@QAE@XZ
5352C0 ?Destroy@CGfxObj@@UAEXXZ
5353F0 ?InitLoad@CGfxObj@@UAE_NXZ
535440 ?find_obj_collisions@CGfxObj@@QBE?AW4TransitionState@@AAVCTransition@@M@Z
5354E0 ?Serialize@?$SB_AsPackObj@$0A@@@SAXABQAVCGfxObj@@AAVVector3@AC1Legacy@@AAVArchive@@@Z
535560 ?Allocate@CGfxObj@@UBEPAVDBObj@@XZ
535570 ??_GCGfxObj@@MAEPAXI@Z
5355B0 ?GetSubDataIDs@CGfxObj@@UBEXAAVQualifiedDataIDArray@@@Z
535620 ?Serialize@?$SB_AsDataID@$0A@@@SAXABQAVCGfxObj@@AAPAVCSurface@@AAVArchive@@@Z
5356B0 ?Serialize@CGfxObj@@UAEXAAVArchive@@@Z
535A20 ?Free@CSurfaceTriStrips@@SAXPAV1@@Z
535A30 ??1CSurfaceTriStrips@@QAE@XZ
535A70 ??1CTriangleStrip@@QAE@XZ
535A80 ??0ClipPlane@@QAE@XZ
535A90 ??0ClipPlane@@QAE@PAVPlane@@W4Sidedness@@@Z
535AB0 ?EulGetOrd@@YAXHAAH000000@Z
535B30 ?cache@Frame@@QAEXXZ
535C10 ?IsValid@Frame@@QBEHXZ
535D20 ?IsValidExceptForHeading@Frame@@QBEHXZ
535DC0 ?set_rotate@Frame@@QAEXMMMM@Z
535E70 ?Pack@Frame@@QAEIAAPAXI@Z
535EE0 ?UnPack@Frame@@QAEHAAPAXI@Z
535F70 ?Serialize@Frame@@QAEXAAVArchive@@@Z
536030 ?interpolate_origin@Frame@@QAEXABV1@0M@Z
5360D0 ?interpolate_rotation@Frame@@QAEXABV1@0M@Z
536260 ?subtract1@Frame@@QAEXABV1@ABVAFrame@@@Z
536390 ?subtract2@Frame@@QAEXABV1@0@Z
536460 ?get_vector_heading@Frame@@QBE?AVVector3@AC1Legacy@@XZ
5364A0 ?get_heading@Frame@@QBEMXZ
5364E0 ?grotate@Frame@@QAEXABVVector3@AC1Legacy@@@Z
536610 ?cache_quaternion@Frame@@QAEXXZ
536780 ?rotate_around_axis_to_vector@Frame@@QAEXHABVVector3@AC1Legacy@@@Z
536930 ?euler_set_rotate@Frame@@QAEXMMMH@Z
536AF0 ?set_vector_heading@Frame@@QAEXABVVector3@AC1Legacy@@@Z
536B80 ?set_heading@Frame@@QAEXM@Z
536BC0 ?get_image_type@ImgTex@@QBE?AW4PixelFormatID@@XZ
536BE0 ?SetPalette@CSurface@@IAEXPAVPalette@@@Z
536C10 ?releaseCustomSurface@CSurface@@SAXPAV1@@Z
536C20 ?ClearSurface@CSurface@@QAEHXZ
536C60 ?UsePalette@CSurface@@QAEHPAVPalette@@@Z
536CA0 ?RestorePalette@CSurface@@QAEHXZ
536CF0 ?SetTextureAndPalette@CSurface@@QAEHPAVImgTex@@PBVPalette@@@Z
536D70 ?PurgeResource@CSurface@@MAE_NXZ
536DA0 ??0CSurface@@IAE@XZ
536E30 ??_ECSurface@@ODA@AEPAXI@Z
536E40 ??0CSurface@@IAE@ABV0@@Z
536F30 ?Destroy@CSurface@@MAEXXZ
536FB0 ?makeCustomSurface@CSurface@@SAPAV1@W4SurfaceHandlerEnum@@@Z
536FF0 ?makeCustomSurface@CSurface@@SAPAV1@PAV1@@Z
537020 ?UseTextureMap@CSurface@@QAEHV?$IDClass@U_tagDataID@@$0CA@$0A@@@H@Z
537090 ?UseTextureMap@CSurface@@QAEHPAVImgTex@@W4SurfaceHandlerEnum@@@Z
537120 ?GetOriginalTextureMapID@CSurface@@QBE?AV?$IDClass@U_tagDataID@@$0CA@$0A@@@XZ
537130 ?GetOriginalPaletteID@CSurface@@QAE?AV?$IDClass@U_tagDataID@@$0CA@$0A@@@XZ
537140 ?InitEnd@CSurface@@QAEXW4SurfaceInitType@@@Z
537270 ?RestorePalShiftSurface@CSurface@@IAE_NXZ
537320 ?Allocate@CSurface@@UBEPAVDBObj@@XZ
537330 ?Serialize@CSurface@@UAEXAAVArchive@@@Z
537490 ?GetSubDataIDs@CSurface@@UBEXAAVQualifiedDataIDArray@@@Z
5374C0 ?RestoreLostSurface@CSurface@@IAE_NXZ
5375A0 ??_ECSurface@@MAEPAXI@Z
5375E0 ?RestoreResource@CSurface@@MAE_NXZ
537610 ?is_walkable_allowable@SPHEREPATH@@QAEHM@Z
537630 ?find_time_of_collision@CSphere@@IBENABVVector3@AC1Legacy@@0M@Z
537720 ?collides_with_sphere@CSphere@@IBEHABVVector3@AC1Legacy@@M@Z
537760 ??0Plane@@QAE@ABVVector3@AC1Legacy@@0@Z
5377A0 ?add_offset_to_check_pos@SPHEREPATH@@QAEXABVVector3@AC1Legacy@@M@Z
5377F0 ?attack@CSphere@@SAKABVPosition@@MM0ABVVec2D@@1MM@Z
537A60 ?step_sphere_down@CSphere@@IBE?AW4TransitionState@@AAVOBJECTINFO@@AAVSPHEREPATH@@AAVCOLLISIONINFO@@ABV1@AAVVector3@AC1Legacy@@M@Z
537C80 ?slide_sphere@CSphere@@IBE?AW4TransitionState@@AAVOBJECTINFO@@AAVSPHEREPATH@@AAVCOLLISIONINFO@@ABVVector3@AC1Legacy@@MH@Z
537F70 ?collide_with_point@CSphere@@IBE?AW4TransitionState@@AAVOBJECTINFO@@AAVSPHEREPATH@@AAVCOLLISIONINFO@@ABV1@AAVVector3@AC1Legacy@@MH@Z
538180 ?slide_sphere@CSphere@@QBE?AW4TransitionState@@AAVSPHEREPATH@@AAVCOLLISIONINFO@@AAVVector3@AC1Legacy@@ABV56@@Z
5384E0 ?sphere_intersects_ray@CSphere@@QBE_NABVRay@@AAN@Z
5385E0 ?set_collide@SPHEREPATH@@QAEXABVVector3@AC1Legacy@@@Z
538640 ?step_sphere_up@CSphere@@IBE?AW4TransitionState@@AAVCTransition@@ABV1@ABVVector3@AC1Legacy@@M@Z
5386E0 ?land_on_sphere@CSphere@@IBE?AW4TransitionState@@AAVOBJECTINFO@@AAVSPHEREPATH@@AAVCOLLISIONINFO@@ABV1@AAVVector3@AC1Legacy@@M@Z
538750 ?slide_sphere@CSphere@@QBE?AW4TransitionState@@AAVOBJECTINFO@@AAVSPHEREPATH@@AAVCOLLISIONINFO@@ABV1@AAVVector3@AC1Legacy@@AAMH@Z
5387C0 ?intersects_sphere@CSphere@@IBE?AW4TransitionState@@AAVCTransition@@H@Z
538D10 ?intersects_sphere@CSphere@@QBE?AW4TransitionState@@ABVPosition@@MAAVCTransition@@H@Z
538DA0 ?point_in_poly2D@CPolygon@@QBEHABVVector3@AC1Legacy@@W4Sidedness@@@Z
538E20 ?Destroy@CPolygon@@QAEXXZ
538EB0 ?adjust_sphere_to_poly@CPolygon@@QBENAAVCSphere@@ABVVector3@AC1Legacy@@1@Z
538F50 ?adjust_sphere_to_plane@CPolygon@@QBEHAAVSPHEREPATH@@AAVCSphere@@ABVVector3@AC1Legacy@@@Z
539060 ?compute_time_of_intersection@Plane@@QBEHABVRay@@AAN@Z
5390E0 ??0CPolygon@@QAE@XZ
539110 ?make_plane@CPolygon@@QAEXXZ
539270 ?Pack@CPolygon@@QAEIAAPAXI@Z
539390 ?UnPack@CPolygon@@QAEHAAPAXI@Z
539500 ?polygon_hits_sphere@CPolygon@@IBEHABVCSphere@@AAVVector3@AC1Legacy@@@Z
539750 ?polygon_hits_sphere_slow_but_sure@CPolygon@@IBEHABVCSphere@@AAVVector3@AC1Legacy@@@Z
539A20 ?adjust_to_placement_poly@CPolygon@@QBEXAAVCSphere@@0MHH@Z
539AD0 ?point_in_polygon@CPolygon@@QBEHABVVector3@AC1Legacy@@@Z
539BA0 ?check_walkable@CPolygon@@QBEHAAVCSphere@@ABVVector3@AC1Legacy@@@Z
539DF0 ?check_small_walkable@CPolygon@@QBEHAAVCSphere@@ABVVector3@AC1Legacy@@@Z
53A040 ?find_crossed_edge@CPolygon@@QBEHAAVCSphere@@ABVVector3@AC1Legacy@@AAV34@@Z
53A230 ?pos_hits_sphere@CPolygon@@QBEHABVCSphere@@ABVVector3@AC1Legacy@@AAV34@AAPBV1@@Z
53A280 ?hits_sphere@CPolygon@@QBEHABVCSphere@@@Z
53A2A0 ?walkable_hits_sphere@CPolygon@@QBEHAAVSPHEREPATH@@ABVCSphere@@ABVVector3@AC1Legacy@@@Z
53A320 ?polygon_hits_ray@CPolygon@@QBEHABVRay@@AAN@Z
53A3E0 ?CheckAlphaValues@CMaterial@@IAEXXZ
53A430 ?SetTranslucencySimple@CMaterial@@QAEXM@Z
53A450 ?GetTranslucencySimple@CMaterial@@QAEMXZ
53A460 ?SetLuminositySimple@CMaterial@@QAEXM@Z
53A480 ?GetLuminositySimple@CMaterial@@QAEMXZ
53A490 ?SetDiffuseSimple@CMaterial@@QAEXM@Z
53A4B0 ??0CMaterial@@QAE@XZ
53A500 ??0CMaterial@@QAE@PBV0@@Z
53A540 ?GetSphere@BSPTREE@@QBEPBVCSphere@@XZ
53A550 ?Pack@BSPTREE@@QAEIAAPAXI@Z
53A590 ?UnPack@BSPTREE@@QAEHAAPAXI@Z
53A5C0 ?build_draw_portals_only@BSPTREE@@QBEXH@Z
53A610 ?box_intersects_cell_bsp@BSPTREE@@QBEHABVBBox@@@Z
53A620 ?point_inside_cell_bsp@BSPTREE@@QBEHABVVector3@AC1Legacy@@@Z
53A630 ?sphere_intersects_cell_bsp@BSPTREE@@QBE?AW4BoundingType@@ABVCSphere@@@Z
53A640 ?set_neg_poly_hit@SPHEREPATH@@QAEXHAAVVector3@AC1Legacy@@@Z
53A6A0 ??1BSPTREE@@QAE@XZ
53A6C0 ?placement_insert@BSPTREE@@QBE?AW4TransitionState@@AAVCTransition@@@Z
53A950 ?adjust_to_plane@BSPTREE@@QBEHAAVCSphere@@VVector3@AC1Legacy@@PBVCPolygon@@AAV34@@Z
53ABB0 ?slide_sphere@BSPTREE@@QBE?AW4TransitionState@@AAVSPHEREPATH@@AAVCOLLISIONINFO@@ABVVector3@AC1Legacy@@@Z
53AC30 ?check_walkable@BSPTREE@@QBE?AW4TransitionState@@AAVSPHEREPATH@@ABVCSphere@@M@Z
53AC80 ?step_sphere_up@BSPTREE@@QBE?AW4TransitionState@@AAVCTransition@@ABVVector3@AC1Legacy@@@Z
53AD20 ?set_walkable@SPHEREPATH@@QAEXABVCSphere@@PBVCPolygon@@ABVVector3@AC1Legacy@@ABVPosition@@M@Z
53ADA0 ?RemoveNonPortalNodes@BSPTREE@@QAEXXZ
53ADF0 ?collide_with_pt@BSPTREE@@QBE?AW4TransitionState@@AAVOBJECTINFO@@AAVSPHEREPATH@@AAVCOLLISIONINFO@@ABVCSphere@@ABVVector3@AC1Legacy@@PBVCPolygon@@AAV78@M@Z
53AF70 ?step_sphere_down@BSPTREE@@QBE?AW4TransitionState@@AAVSPHEREPATH@@AAVCOLLISIONINFO@@ABVCSphere@@M@Z
53B1A0 ?find_collisions@BSPTREE@@QBE?AW4TransitionState@@AAVCTransition@@M@Z
53B5E0 ?collides_with_sphere@CCylSphere@@QBEHABVCSphere@@ABVVector3@AC1Legacy@@M@Z
53B640 ??0CCylSphere@@QAE@XZ
53B660 ?Pack@CCylSphere@@QAEIAAPAXI@Z
53B6C0 ?UnPack@CCylSphere@@QAEHAAPAXI@Z
53B710 ?step_sphere_down@CCylSphere@@QBE?AW4TransitionState@@AAVOBJECTINFO@@AAVSPHEREPATH@@AAVCOLLISIONINFO@@ABVCSphere@@ABVVector3@AC1Legacy@@M@Z
53B8B0 ?normal_of_collision@CCylSphere@@QBEHAAVSPHEREPATH@@ABVCSphere@@ABVVector3@AC1Legacy@@MHAAV45@@Z
53BA10 ?collide_with_point@CCylSphere@@QBE?AW4TransitionState@@AAVOBJECTINFO@@AAVSPHEREPATH@@AAVCOLLISIONINFO@@ABVCSphere@@AAVVector3@AC1Legacy@@MH@Z
53C000 ?slide_sphere@CCylSphere@@QBE?AW4TransitionState@@AAVOBJECTINFO@@AAVSPHEREPATH@@AAVCOLLISIONINFO@@ABVCSphere@@ABVVector3@AC1Legacy@@MH@Z
53C070 ?step_sphere_up@CCylSphere@@QBE?AW4TransitionState@@AAVCTransition@@ABVCSphere@@ABVVector3@AC1Legacy@@M@Z
53C130 ?land_on_cylinder@CCylSphere@@QBE?AW4TransitionState@@AAVOBJECTINFO@@AAVSPHEREPATH@@AAVCOLLISIONINFO@@ABVCSphere@@AAVVector3@AC1Legacy@@M@Z
53C1A0 ?intersects_sphere@CCylSphere@@QBE?AW4TransitionState@@AAVCTransition@@@Z
53C650 ?intersects_sphere@CCylSphere@@QBE?AW4TransitionState@@ABVPosition@@MAAVCTransition@@@Z
53C6F0 ??1?$DArray@VClipPlane@@@@QAE@XZ
53C740 ??0ClipPlaneList@@QAE@XZ
53C760 ??1ClipPlaneList@@QAE@XZ
53C770 ??0CCellPortal@@QAE@XZ
53C790 ?GetOtherCell@CCellPortal@@QBEPAVCEnvCell@@H@Z
53C7A0 ?Pack@CCellPortal@@QAEIAAPAXI@Z
53C810 ?UnPack@CCellPortal@@QAEHKAAGAAPAXI@Z
53C890 ??0CBldPortal@@QAE@XZ
53C8B0 ??1CBldPortal@@QAE@XZ
53C8C0 ?add_to_stablist@CBldPortal@@QAEXAAPAKAAK1@Z
53C990 ?GetOtherCell@CBldPortal@@QBEPAVCEnvCell@@XZ
53C9A0 ?UnPack@CBldPortal@@QAEHKAAPAXI@Z
53CA60 ?PreFetchCells@CBldPortal@@QAEHXZ
53CAB0 ?pack_size@CBldPortal@@QAEIXZ
53CAD0 ?Pack@CBldPortal@@QAEIAAPAXI@Z
53CB90 ?AllocateVertex@CVertexArray@@QAEHKW4VertexType@@@Z
53CC10 ?DestroyVertex@CVertexArray@@QAEXXZ
53CC70 ?BuildBoundingBox@CVertexArray@@IAEXXZ
53CCC0 ?pack_size@CVertexArray@@QAEIXZ
53CD10 ??0CVertexArray@@QAE@XZ
53CD20 ?Pack@CVertexArray@@QAEIAAPAXI@Z
53CD90 ?UnPack@CVertexArray@@QAEHAAPAXI@Z
53CE10 ?Destroy@BSPNODE@@QAEXXZ
53CE60 ?build_draw_portals_only@BSPNODE@@QAEXH@Z
53CF50 ?point_inside_cell_bsp@BSPNODE@@QBEHABVVector3@AC1Legacy@@@Z
53CFC0 ?sphere_intersects_cell_bsp@BSPNODE@@QBE?AW4BoundingType@@ABVCSphere@@@Z
53D070 ?point_intersects_solid@BSPNODE@@UBEHABVVector3@AC1Legacy@@@Z
53D0C0 ?Pack@Plane@@QAEIAAPAXI@Z
53D110 ??0BSPNODE@@QAE@XZ
53D130 ??1BSPNODE@@UAE@XZ
53D180 ?pack_size@BSPNODE@@QAEIXZ
53D1F0 ?Pack@BSPNODE@@QAEIAAPAXI@Z
53D2A0 ?UnPack@BSPNODE@@QAEHAAPAXI@Z
53D410 ?pack_child_size@BSPNODE@@SAIPAV1@@Z
53D460 ?PackChild@BSPNODE@@SAIPAV1@AAPAXI@Z
53D4D0 ?UnPackChild@BSPNODE@@SAHAAPAV1@AAPAXI@Z
53D5B0 ?LinkPortalNodeChain@BSPNODE@@QAEXAAV?$SmartArray@PAVBSPNODE@@$00@@@Z
53D5E0 ?box_intersects_cell_bsp@BSPNODE@@QAEHABVBBox@@@Z
53D790 ?sphere_intersects_poly@BSPNODE@@UBEHABVCSphere@@ABVVector3@AC1Legacy@@AAPBVCPolygon@@AAV34@@Z
53D850 ?sphere_intersects_solid@BSPNODE@@UBEHABVCSphere@@H@Z
53D930 ?hits_walkable@BSPNODE@@UBEHAAVSPHEREPATH@@AAVCSphere@@ABVVector3@AC1Legacy@@@Z
53D9E0 ?find_walkable@BSPNODE@@UBEXAAVSPHEREPATH@@AAVCSphere@@AAPBVCPolygon@@ABVVector3@AC1Legacy@@3AAH@Z
53DAB0 ?sphere_intersects_solid_poly@BSPNODE@@UBEHABVCSphere@@MAAHAAPBVCPolygon@@H@Z
53DBB0 ?TraceRay@BSPNODE@@UBEKABVRay@@AAMAAVVector3@@@Z
53E040 ??_EBSPNODE@@UAEPAXI@Z
53E0A0 ?DetachPortalsAndPurgeNodes@BSPNODE@@QAEXAAV?$SmartArray@PAVBSPNODE@@$00@@@Z
53E130 ??0BSPLEAF@@QAE@XZ
53E150 ?point_intersects_solid@BSPLEAF@@UBEHABVVector3@AC1Legacy@@@Z
53E160 ?PackLeaf@BSPLEAF@@QAEIAAPAXI@Z
53E200 ?UnPackLeaf@BSPLEAF@@QAEHAAPAXI@Z
53E2E0 ?sphere_intersects_poly@BSPLEAF@@UBEHABVCSphere@@ABVVector3@AC1Legacy@@AAPBVCPolygon@@AAV34@@Z
53E350 ?sphere_intersects_solid@BSPLEAF@@UBEHABVCSphere@@H@Z
53E3D0 ?hits_walkable@BSPLEAF@@UBEHAAVSPHEREPATH@@AAVCSphere@@ABVVector3@AC1Legacy@@@Z
53E450 ?find_walkable@BSPLEAF@@UBEXAAVSPHEREPATH@@AAVCSphere@@AAPBVCPolygon@@ABVVector3@AC1Legacy@@3AAH@Z
53E4E0 ?sphere_intersects_solid_poly@BSPLEAF@@UBEHABVCSphere@@MAAHAAPBVCPolygon@@H@Z
53E570 ??_GBSPLEAF@@UAEPAXI@Z
53E5B0 ??0BSPPORTAL@@QAE@XZ
53E5D0 ?portal_draw_portals_only@BSPPORTAL@@IAEXH@Z
53E740 ?Destroy@BSPPORTAL@@QAEXXZ
53E7A0 ?pack_portal_size@BSPPORTAL@@QAEIXZ
53E800 ?PackPortal@BSPPORTAL@@QAEIAAPAXI@Z
53E8D0 ?UnPackPortal@BSPPORTAL@@QAEHAAPAXI@Z
53EA60 ??_GBSPPORTAL@@UAEPAXI@Z
53EA90 ?Init@CSWVertex@@QAEXXZ
53EAA0 ?pack_size@CSWVertex@@QAEIXZ
53EAB0 ?Pack@CSWVertex@@QAEIAAPAXI@Z
53EB90 ?Destroy@CSWVertex@@QAEXXZ
53EBB0 ?UnPack@CSWVertex@@QAEHAAPAXI@Z
53ECD0 ??0CPortalPoly@@QAE@XZ
53ECE0 ??1CPortalPoly@@QAE@XZ
53ECF0 ?Destroy@Palette@@UAEXXZ
53ED10 ?releasePalette@Palette@@SAXPAV1@@Z
53ED90 ?copyRef@Palette@@SAPAV1@PAV1@@Z
53EDB0 ?get_color32@Palette@@QBEKK@Z
53EDC0 ?InitLoad@Palette@@UAE_NXZ
53EE60 ??0Palette@@IAE@H@Z
53EEB0 ??_EPalette@@ODA@AEPAXI@Z
53EEC0 ?Modify@Palette@@QAEHV?$IDClass@U_tagDataID@@$0CA@$0A@@@KK@Z
53EF50 ?Modify@Palette@@QAEHPAVSubpalette@@@Z
53EF90 ?Modify@Palette@@QAEHHPAVSubpalette@@@Z
53EFE0 ?makeModifiedPalette@Palette@@SAPAV1@XZ
53F010 ?Pack@Palette@@UAEIAAPAXI@Z
53F070 ?UnPack@Palette@@UAEHAAPAXI@Z
53F0C0 ?Allocate@Palette@@UBEPAVDBObj@@XZ
53F0D0 ??_GPalette@@MAEPAXI@Z
53F120 ?makeModifiedPalette@Palette@@SAPAV1@V?$IDClass@U_tagDataID@@$0CA@$0A@@@PAVSubpalette@@@Z
53F1F0 ?get_width@ImgTex@@QBEKXZ
53F210 ?get_height@ImgTex@@QBEKXZ
53F230 ?CSI2TGA@ImgTex@@IAE_NPAEJJ0JJJ@Z
53F270 ?GetData@ImgTex@@QAEPAEXZ
53F2B0 ?PurgeResource@ImgTex@@MAE_NXZ
53F310 ?GetD3DTexture@ImgTex@@QAEPAUIDirect3DTexture9@@XZ
53F4A0 ?TileCSI@ImgTex@@KAXPAEKKPAV1@K@Z
53F5D0 ?MergeTexture@ImgTex@@SAXPAEKKPAV1@K1W4Rotation@LandDefs@@@Z
53F9C0 ?CopyIntoData@ImgTex@@KA_NPAEJPAV1@PBVPalette@@_N@Z
53FB10 ?CreateD3DTexture@ImgTex@@IAE_NXZ
53FDE0 ?RestoreResource@ImgTex@@MAE_NXZ
53FE40 ?GetSurfaceDID@ImgTex@@IBE?AV?$IDClass@U_tagDataID@@$0CA@$0A@@@XZ
53FEA0 ??1?$IntrusiveHashTable@KPAV?$HashTableData@KPAVImgTex@@@@$0A@@@UAE@XZ
53FED0 ??_G?$IntrusiveHashTable@_KPAV?$HashTableData@_KPAVImgTex@@@@$00@@UAEPAXI@Z
53FF10 ??_G?$IntrusiveHashTable@PAVImgTex@@PAV?$HashSetData@PAVImgTex@@@@$00@@UAEPAXI@Z
53FF50 ??_G?$IntrusiveHashTable@W4PixelFormatID@@PAV?$HashTableData@W4PixelFormatID@@PAV?$HashTable@KPAVImgTex@@$0A@@@@@$0A@@@UAEPAXI@Z
53FF90 ??_E?$IntrusiveHashTable@KPAV?$HashTableData@KPAVImgTex@@@@$0A@@@UAEPAXI@Z
53FFD0 ?CreateFromRenderSurface_Internal@ImgTex@@IAEXPAVRenderSurface@@@Z
540030 ?CopyCSI@ImgTex@@SAXPAEKKPAV1@K@Z
540060 ?Load@ImgTex@@IAE_NPAV1@@Z
540100 ?GetSubDataIDs@ImgTex@@UBEXAAVQualifiedDataIDArray@@@Z
540160 ?SetNElements@?$SmartArray@V?$IDClass@U_tagDataID@@$0CA@$0A@@@$00@@QAE_NK_N@Z
5401C0 ??0ImgTex@@IAE@PAVRenderSurface@@@Z
540230 ??_EImgTex@@ODA@AEPAXI@Z
540240 ?InitLoad@ImgTex@@MAE_NXZ
540290 ?Serialize@ImgTex@@UAEXAAVArchive@@@Z
540380 ?Allocate@ImgTex@@UBEPAVDBObj@@XZ
540390 ?grow@?$IntrusiveHashTable@PAVImgTex@@PAV?$HashSetData@PAVImgTex@@@@$00@@QAE_NXZ
5403E0 ??0?$IntrusiveHashTable@PAVImgTex@@PAV?$HashSetData@PAVImgTex@@@@$00@@QAE@I@Z
540470 ??0?$IntrusiveHashTable@W4PixelFormatID@@PAV?$HashTableData@W4PixelFormatID@@PAV?$HashTable@KPAVImgTex@@$0A@@@@@$0A@@@QAE@I@Z
540500 ??0?$IntrusiveHashTable@KPAV?$HashTableData@KPAVImgTex@@@@$0A@@@QAE@I@Z
540590 ??0?$IntrusiveHashTable@_KPAV?$HashTableData@_KPAVImgTex@@@@$00@@QAE@I@Z
540620 ?grow@?$IntrusiveHashTable@_KPAV?$HashTableData@_KPAVImgTex@@@@$00@@QAE_NXZ
540670 ?resize_internal@?$IntrusiveHashTable@PAVImgTex@@PAV?$HashSetData@PAVImgTex@@@@$00@@IAE_NK@Z
5407B0 ?add@?$IntrusiveHashTable@PAVImgTex@@PAV?$HashSetData@PAVImgTex@@@@$00@@QAE_NPAV?$HashSetData@PAVImgTex@@@@@Z
540830 ?remove@?$IntrusiveHashTable@UQualifiedDataID@@PAV?$HashSetData@UQualifiedDataID@@@@$00@@QAEXV?$IntrusiveHashIterator@UQualifiedDataID@@PAV?$HashSetData@UQualifiedDataID@@@@$00@@@Z
540870 ?add_internal@?$IntrusiveHashTable@_KPAV?$HashTableData@_KPAVImgTex@@@@$00@@AAEXPAV?$HashTableData@_KPAVImgTex@@@@@Z
5408C0 ?resize_internal@?$IntrusiveHashTable@_KPAV?$HashTableData@_KPAVImgTex@@@@$00@@IAE_NK@Z
540A10 ?add@?$HashSet@PAVImgTex@@@@QAE_NABQAVImgTex@@@Z
540A80 ??_G?$HashSet@PAVImgTex@@@@UAEPAXI@Z
540AE0 ??_E?$HashTable@W4PixelFormatID@@PAV?$HashTable@KPAVImgTex@@$0A@@@$0A@@@UAEPAXI@Z
540B40 ??_E?$HashTable@KPAVImgTex@@$0A@@@UAEPAXI@Z
540B80 ?AllocateTempBuffer@ImgTex@@KAPAV1@JJW4PixelFormatID@@@Z
540C00 ?add@?$HashTable@_KPAVImgTex@@$00@@QAE_NAB_KABQAVImgTex@@@Z
540C80 ??_E?$HashTable@_KPAVImgTex@@$00@@UAEPAXI@Z
540CE0 ??1ImgTex@@MAE@XZ
540DC0 ?GetTempBuffer@ImgTex@@KAPAV1@JJW4PixelFormatID@@@Z
540EC0 ??_GImgTex@@MAEPAXI@Z
540EE0 ?Combine@ImgTex@@IAE_NPAV1@PBVPalette@@_N@Z
540FF0 ?LoadCSI@ImgTex@@IAE_NPAEKK@Z
5410D0 ?CreateCombinedTexture@ImgTex@@SAPAV1@PAV1@PBVPalette@@_N@Z
5411D0 ?CreateLScapeTexture@ImgTex@@SAPAV1@PAEKK@Z
541240 ?Grow@CGrowBuffer@NetAuthenticator@@QAEHI@Z
541280 ?STREAMPACK_BYTES@@YAHW4STREAMTYPE@@PAEKAAPAXAAI@Z
541310 ?GetPackSize@NetAuthenticator@@UBEIXZ
541340 ?Pack@StreamPackObj@@UAEIAAPAXI@Z
541380 ?UnPack@StreamPackObj@@UAEHAAPAXI@Z
5413A0 ?STREAMPACK@@YAHW4STREAMTYPE@@AAKAAPAXAAI@Z
541430 ?StreamPack@CGrowBuffer@NetAuthenticator@@QAEHW4STREAMTYPE@@AAPAXAAI@Z
5414A0 ??0NetAuthenticator@@QAE@XZ
541510 ?Pack@NetAuthenticator@@UAEIAAPAXI@Z
541550 ?STREAMPACK_STREAMPACKOBJ@@YAHW4STREAMTYPE@@AAVCGrowBuffer@NetAuthenticator@@AAPAXAAI@Z
541570 ??_GNetAuthenticator@@UAEPAXI@Z
541590 ?STREAMPACK@@YAHW4STREAMTYPE@@AAVaccountID@@AAPAXAAI@Z
541640 ?SetToAuthType@NetAuthenticator@@QAE_NKABVaccountID@@IPBE@Z
5416C0 ?StreamPack@NetAuthenticator@@UAEHW4STREAMTYPE@@AAPAXAAI@Z
541770 ?Instance@PacketController@@SAPAV1@XZ
541780 ?AddReceiveQueue@PacketController@@QAEHGPAV?$NIList@PAVNetBlob@@@@@Z
5417A0 ?EnqueueRecip@PacketController@@QAEXPAVRecipientData@@@Z
5417D0 ?SendBlob@PacketController@@IAE_NPAVNetBlob@@G@Z
541800 ?GetRecipient@PacketController@@QAEPAVRecipientData@@G@Z
541810 ??_G?$PQueueArray@NPAX@@UAEPAXI@Z
541840 ?_Heapify@?$PQueueArray@NPAX@@IAEXH@Z
541920 ??1PacketController@@QAE@XZ
5419B0 ?GetNonEphemeralID@PacketController@@UAE_KXZ
5419F0 ?EnqueueOptionalHeader@PacketController@@QAE_NGPAVCOptionalHeader@@@Z
541A30 ?RemoveMin@?$PQueueArray@NPAX@@QAE_NAANPAPAX@Z
541AB0 ?RemoveByData@?$PQueueArray@NPAX@@QAE_NQAX@Z
541BD0 ?CheckFlowControlTimers@PacketController@@QAEXXZ
541CB0 ?UseTime@PacketController@@QAEXXZ
541D10 ?AddRecipient@PacketController@@QAEHGUsockaddr_in@@HMKH@Z
541E80 ?DeleteRecipient@PacketController@@QAEHG@Z
541F40 ??1PerfMonCounterNameHelp@PerfMonCounterInfo@@QAE@XZ
541F90 ??4PerfMonCounterNameHelp@PerfMonCounterInfo@@QAEAAV01@ABV01@@Z
542020 ?GetIPFromRecipientID@@YAXGAAV?$PStringBase@D@AC1Legacy@@_N@Z
542070 ?AddReceivedBlobToQueue@PacketController@@QAEHPAVNetBlob@@@Z
542170 ?pop_front@?$List@VPerfMonCounterNameHelp@PerfMonCounterInfo@@@@QAE_NAAVPerfMonCounterNameHelp@PerfMonCounterInfo@@@Z
542200 ?pop_head@?$List@VPerfMonCounterNameHelp@PerfMonCounterInfo@@@@QAE_NXZ
542290 ??1?$List@VPerfMonCounterNameHelp@PerfMonCounterInfo@@@@UAE@XZ
5422C0 ??_G?$List@VPerfMonCounterNameHelp@PerfMonCounterInfo@@@@UAEPAXI@Z
542300 ??1PerfMonCounterInfo@@UAE@XZ
542330 ?IncCounter@?$PerfMonCounter@_K@@UAEXXZ
542340 ?DecCounter@?$PerfMonCounter@_K@@UAEXXZ
542350 ?GetValueAsInt64@?$PerfMonCounter@_K@@UAE_JXZ
542360 ??_G?$PerfMonCounter@_K@@UAEPAXI@Z
542380 ??0PacketController@@QAE@PAVClientNet@@@Z
542510 ?ProcessNewestSeqNum@SharedNet@@IAEXABVCNetLayerPacket@@@Z
542570 ?ChecksumHeader@SharedNet@@IAEKABVProtoHeader@@@Z
5425D0 ?ProcessOptionalHeaders@SharedNet@@MAE_NABVCNetLayerPacket@@@Z
542630 ?ProcessBlobFrags@SharedNet@@MAE_NABVCNetLayerPacket@@@Z
542650 ?SendBuff@SharedNet@@MAEHPAU_WSABUF@@HUsockaddr_in@@@Z
542780 ?SendPacket@SharedNet@@QAE_NPAVNetPacket@@PAVProtoHeader@@ABUsockaddr_in@@@Z
5428A0 ?SetConnectionState@SharedNet@@MAEXGW4ConnectionState@@@Z
5428F0 ?ParseInAddr@@YA_NAAPBDAAUin_addr@@@Z
5429B0 ?OnStateBegun@ClientNet@@MAEXVAsyncContext@@@Z
5429D0 ?EnterWorld@ClientNet@@QAEXXZ
5429E0 ?ExitWorldDisconnect@ClientNet@@QAEXXZ
542A70 ?SendBuff@ClientNet@@MAEHPAU_WSABUF@@HUsockaddr_in@@@Z
542AD0 ?InqData@?$COnePrimHeader@$0CAA@$06Usockaddr_in@@@@QBEXAAUsockaddr_in@@@Z
542AF0 ??_G?$AVLNode@KK@@QAEPAXI@Z
542B10 ??1?$AVLNode@KK@@QAE@XZ
542B60 ?LeftRotate@?$AVL@KK@@IAEPAV?$AVLNode@KK@@PAV2@00@Z
542C20 ?RightRotate@?$AVL@KK@@IAEPAV?$AVLNode@KK@@PAV2@00@Z
542CE0 ?LeftRightRotate@?$AVL@KK@@IAEPAV?$AVLNode@KK@@PAV2@00@Z
542DC0 ?RightLeftRotate@?$AVL@KK@@IAEPAV?$AVLNode@KK@@PAV2@00@Z
542EA0 ?find_substring@?$PStringBase@D@AC1Legacy@@QBEJABV12@@Z
542ED0 ?RemoveUnOrderedByIndex@?$SmartArray@UCReferralQueueEntry@ClientNet@@$00@@QAE_NK@Z
542F30 ?UpdateTimeSensitivePayload@CEchoResponseHeader@@UAEHXZ
542F40 ??0CLinkStatusAverages@@QAE@XZ
543010 ??_ECClientsideLoginStateHandler@@UAEPAXI@Z
543030 ?UseTime@SharedNet@@QAE_NXZ
5430C0 ?ReadAndProcessPackets@SharedNet@@MAE_NXZ
543140 ?ReadNextPacket@SharedNet@@MAEHIAAVCNetLayerPacket@@@Z
543240 ?HandlePak@SharedNet@@MAEXPBV?$COnePrimHeader@$0EAAA@$00K@@ABVCNetLayerPacket@@@Z
543280 ?HandleNak@SharedNet@@MAEXPBV?$CSeqIDListHeader@$0BAAA@$0CB@@@ABVCNetLayerPacket@@@Z
5432D0 ?ProcessConnections@SharedNet@@MAE_NXZ
543320 ?SetNakState@SharedNet@@IAE?AW4ReceiverState@@PAVReceiverData@@@Z
543350 ?AddToPerfCounter@SharedNet@@UAEXW4NetPerfCounter@@H@Z
543440 ?UseTime@ClientNet@@QAE_NXZ
543460 ?AddToPerfCounter@ClientNet@@UAEXW4NetPerfCounter@@H@Z
543520 ??_E?$CPackObjHeader@VNetError@@$0BAAAAA@$06@@UAEPAXI@Z
543560 ?Rebalance@?$AVL@KK@@IAEPAV?$AVLNode@KK@@PAV2@@Z
5435D0 ?OverflowCompare@TimeStampUtils@@YAJGG@Z
543610 ?Reset@?$SmartArray@UCReferralQueueEntry@ClientNet@@$00@@QAEXXZ
543680 ?allocate_ref_buffer@?$PStringBase@G@AC1Legacy@@IAEXI@Z
543700 ?CreateFromData@CEchoResponseHeader@@SAPAVCOptionalHeader@@M@Z
543760 ?CreateForSend@NetPacket@@SAPAV1@G@Z
5437E0 ??_GCNetLayerPacket@@UAEPAXI@Z
543800 ??1NetPacket@@MAE@XZ
5438A0 ??1SharedNet@@QAE@XZ
5439F0 ?SplitPacketData@SharedNet@@MAE_NAAVCNetLayerPacket@@@Z
543C30 ?ProcessOptionalHeader@SharedNet@@MAE_NPBVCOptionalHeader@@ABVCNetLayerPacket@@@Z
543D20 ?SendOptionalHeader@SharedNet@@QAE_NPAVCOptionalHeader@@ABUsockaddr_in@@PBVReceiverData@@@Z
543E10 ?ParseInterfaceString@@YA_NV?$PStringBase@D@AC1Legacy@@AAUin_addr@@1@Z
543F40 ?EndState@ClientNet@@IAEXABVNetError@@@Z
543FC0 ?AbortConnection@ClientNet@@QAEXXZ
543FE0 ?VerifyHeader@ClientNet@@MAE_NABVCNetLayerPacket@@@Z
544190 ?NotifyPluginsOfStatusChange@ClientNet@@IAEXW4NetStatus@@JJ@Z
5441E0 ?NotifyPluginsOfHeartbeat@ClientNet@@IAEXXZ
544220 ?CreateFromData@?$COnePrimHeader@$0IAAAAAA@$0BA@UCFlowStruct@@@@SAPAVCOptionalHeader@@UCFlowStruct@@@Z
544270 ?CreateFromData@?$CPackObjHeader@VNetError@@$0BAAAAA@$06@@SAPAVCOptionalHeader@@ABVNetError@@@Z
5442F0 ?CreateFromData@?$COnePrimHeader@$0IAA@$0EAAAAAGC@UCReferralStruct@@@@SAPAVCOptionalHeader@@UCReferralStruct@@@Z
544340 ?ReBalanceTree@?$AVL@KK@@IAEXPAV?$AVLNode@KK@@0@Z
5443B0 ?FindSuccessor@?$AVL@KK@@IAEPAV?$AVLNode@KK@@PAV2@0@Z
544450 ?lhs_newer@TimeStampUtils@@YA_NKK@Z
544490 ?lhs_newer@TimeStampUtils@@YA_NGG@Z
5444D0 ??0?$PStringBase@G@AC1Legacy@@QAE@PBG@Z
544530 ?grow@?$SmartArray@UCReferralQueueEntry@ClientNet@@$00@@QAE_NK@Z
5445E0 ?SeqIDSanityCheck@SharedNet@@IAE_NABVCNetLayerPacket@@@Z
544640 ?ProcessNewRemoteInterval@SharedNet@@MAE_NABVCNetLayerPacket@@@Z
5446D0 ?EnqueuePak@SharedNet@@IAEXPAVReceiverData@@@Z
544790 ?EnqueueNaks@SharedNet@@IAEXPAVReceiverData@@@Z
544880 ?OnContextEnded@ClientNet@@MAEXVAsyncContext@@W4AsyncStateMachineStatus@@@Z
5448F0 ?HandleTimeSynch@ClientNet@@MAEXPBVCTimeSyncHeader@@ABVCNetLayerPacket@@@Z
5449E0 ?HandleServerSwitch@ClientNet@@MAEXPBV?$COnePrimHeader@$0BAA@$0GA@UCServerSwitchStruct@@@@ABVCNetLayerPacket@@@Z
544AB0 ?LogOffServer@ClientNet@@QAEXXZ
544B50 ?SendLoginRequest@ClientNet@@IAE_NABUsockaddr_in@@PBVNetAuthenticator@@@Z
544CB0 ?SendConnectAck@ClientNet@@IAE_NPAVReceiverData@@@Z
544DB0 ?ProcessReferralQueue@ClientNet@@IAEXXZ
544FE0 ?Remove@?$AVL@KK@@QAEPAKK@Z
545150 ?OnStateHandlerInit@CClientsideLoginStateHandler@@MAEXXZ
545250 ?ProcessNewSeqNum@SharedNet@@IAE_NAAVCNetLayerPacket@@@Z
545350 ?ProcessPacket@SharedNet@@MAE_NAAVCNetLayerPacket@@@Z
5454B0 ?HandleEmptyAck@SharedNet@@MAEXPBV?$CSeqIDListHeader@$0CAAA@$0CB@@@ABVCNetLayerPacket@@@Z
545510 ?ProcessConnection@SharedNet@@MAE_NPAVReceiverData@@@Z
545540 ?OnContextBegun@ClientNet@@MAEXVAsyncContext@@@Z
5455D0 ?LogonUseTime@ClientNet@@MAEXXZ
5456C0 ?InitAddresses@ClientNet@@IAE?AVNetError@@PBDHAAUsockaddr_in@@ABUClientNetConfiguration@@@Z
545BD0 ?Init@ClientNet@@QAE?AVNetError@@HPBDAAVDatIDStamp@@PAVNetAuthenticator@@ABUClientNetConfiguration@@@Z
545CC0 ?ProcessPacket@ClientNet@@MAE_NAAVCNetLayerPacket@@@Z
545D60 ?ProcessOptionalHeader@ClientNet@@MAE_NPBVCOptionalHeader@@ABVCNetLayerPacket@@@Z
545F80 ?RemoveConnection@ClientNet@@IAEXG@Z
546000 ?ProcessConnections@ClientNet@@UAE_NXZ
546010 ?ProcessConnection@ClientNet@@UAE_NPAVReceiverData@@@Z
546230 ?AddToEnd@?$SmartArray@UCReferralQueueEntry@ClientNet@@$00@@QAE_NABUCReferralQueueEntry@ClientNet@@@Z
546290 ?to_spstring@?$PStringBase@G@AC1Legacy@@QBE?AV?$PStringBase@D@2@G@Z
546590 ??1ClientNet@@UAE@XZ
546680 ?HandleConnectionRequest@ClientNet@@MAEXPBVCConnectHeader@@ABVCNetLayerPacket@@@Z
5468C0 ??_GClientNet@@UAEPAXI@Z
5468F0 ?HandleReferral@ClientNet@@MAEXPBV?$COnePrimHeader@$0IAA@$0EAAAAAGC@UCReferralStruct@@@@@Z
5469E0 ?CreateNewCounter@PerfMonCounterFactory@@YA_NAAPAV?$PerfMonCounter@_K@@W4EPerfCounterType@PerfMonCounterInfo@@ABV?$PStringBase@G@@2G@Z
546A40 ??0SharedNet@@QAE@G@Z
546F20 ??0ClientNet@@QAE@XZ
547000 ?AddSample@?$CAverager@M$03@CLinkStatusAverages@@QAEXM@Z
547070 ?AddSample@?$CAverager@G$0CI@@CLinkStatusAverages@@QAEXG@Z
5470E0 ?AddSample@?$CAverager@K$01@CLinkStatusAverages@@QAEXK@Z
547160 ?AddSample@?$CAverager@N$01@CLinkStatusAverages@@QAEXN@Z
5471D0 ?GetAveragePacketLoss@CLinkStatusAverages@@QBENXZ
547210 ?AddSnapshot@CLinkStatusAverages@@QAEXABUCLinkStatusSnapshot@@@Z
5472F0 ?OnPingResponse@CLinkStatusAverages@@QAEXM@Z
547300 ?SendBlob@Proto_UI@@YAHPAVNetBlob@@@Z
5473A0 ?GetNextUICounter@Proto_UI@@YAIXZ
5473B0 ?UICounterFailedSend@Proto_UI@@YAXI@Z
5473C0 ?SetEventCounter@Proto_UI@@YAXI@Z
5473D0 ?SendToWeenie@Proto_UI@@YA_NPAEH@Z
547440 ?SendToControl@Proto_UI@@YA_NPAEH@Z
5474B0 ?SendToLogon@Proto_UI@@YA_NPAEH@Z
547520 ?SendToDatabase@Proto_UI@@YA_NPAEH@Z
547590 ?SendForceObjdesc@Proto_UI@@YAHK@Z
5475C0 ?SendEnterWorldRequest@Proto_UI@@YAHXZ
5475E0 ?LogOffCharacter@Proto_UI@@YAHK@Z
547610 ?SendAdminGetServerVersion@Proto_UI@@YAHXZ
547630 ?SendCharGenResult@Proto_UI@@YAHPAVCharGenResult@@VaccountID@@H@Z
5476F0 ?SendDeleteCharacter@Proto_UI@@YAHVaccountID@@H@Z
547780 ?SendEnterWorld@Proto_UI@@YAHKVaccountID@@@Z
547810 ?SendFriendsCommand@Proto_UI@@YAHIABV?$PStringBase@D@@@Z
5478B0 ?SendAdminRestoreCharacter@Proto_UI@@YAHKABV?$PStringBase@D@@0@Z
547990 ?TouchConnection@RecipientData@@QAEXXZ
5479B0 ?IndicateReceivedPacket@RecipientData@@QAEHPBVNetPacket@@K@Z
5479E0 ?EnqueueBlob@RecipientData@@IAEXPAVNetBlob@@@Z
547A00 ?UseTime@RecipientData@@QAEXXZ
547A40 ??0RecipientData@@QAE@GUsockaddr_in@@HM@Z
547B00 ??1RecipientData@@QAE@XZ
547B90 ?QueueFlush@RecipientData@@QAEXK@Z
547C30 ?DequeuePacket@FlowQueue@@MAEPAVNetPacket@@AAPAV2@0@Z
547C70 ?EncryptChecksum@FlowQueue@@IAEXPAVNetPacket@@KPAK@Z
547CC0 ?IncrementLocalInterval@FlowQueue@@UAEXK@Z
547CD0 ?RecordBytesSent@ClientFlowQueue@@UAEXH@Z
547CF0 ?RemoveCur@?$NIListIter@K@@QAEXXZ
547D60 ??_G?$PQueueArray@KPAX@@UAEPAXI@Z
547D90 ?_ExpandNodes@?$PQueueArray@KPAX@@IAEXXZ
547DE0 ?_Heapify@?$PQueueArray@KPAX@@IAEXH@Z
547E50 ?UpdateTimeSensitivePayload@CTimeSyncHeader@@UAEHXZ
547E60 ?UpdateTimeSensitivePayload@CEchoRequestHeader@@UAEHXZ
547E70 ?SharedStaticCleanup@FlowQueue@@SAXXZ
547EB0 ?DequeueAck@FlowQueue@@QAEPAVNetPacket@@XZ
547F70 ?EnqueuePacket@FlowQueue@@MAEXPAVNetPacket@@AAPAV2@1@Z
547FE0 ?Insert@?$PQueueArray@KPAX@@QAEXKPAX@Z
548040 ?RemoveMin@?$PQueueArray@KPAX@@QAE_NAAKPAPAX@Z
5480B0 ??_E?$IntrusiveHashTable@KPAV?$HashTableData@KH@@$0A@@@UAEPAXI@Z
5480F0 ??_G?$CPackObjHeader@VNetError@@$0CAAAAA@$01@@UAEPAXI@Z
548130 ??0?$CSeqIDListHeader@$0CAAA@$0CB@@@IAE@PAKK@Z
548190 ?CreateFromData@CTimeSyncHeader@@SAPAVCOptionalHeader@@N@Z
5481E0 ?CreateFromData@CEchoRequestHeader@@SAPAVCOptionalHeader@@XZ
548230 ?EnqueueOptionalHeader@FlowQueue@@QAEXPAVCOptionalHeader@@@Z
548280 ?FlushSentPackets@FlowQueue@@QAEXKH@Z
548300 ?CoalesceData@FlowQueue@@IAEXXZ
548620 ?TransmitNewPackets@FlowQueue@@IAE_NXZ
548890 ?Enqueue@ClientFlowQueue@@UAEXPAVNetBlob@@@Z
5488E0 ?Dequeue@ClientFlowQueue@@UAEPAVNetBlob@@H@Z
548910 ?AddBeforeCur@?$NIListIter@K@@QAEXK@Z
5489B0 ?CreateFromData@?$CPackObjHeader@VNetError@@$0CAAAAA@$01@@SAPAVCOptionalHeader@@ABVNetError@@@Z
548A30 ?CreateFromData@?$COnePrimHeader@$0EAAAAA@$06UCICMDCommandStruct@@@@SAPAVCOptionalHeader@@UCICMDCommandStruct@@@Z
548A80 ?OnLocalIntervalAck@ClientFlowQueue@@UAEHABUIntervalData@@@Z
548AD0 ?IncrementLocalInterval@ClientFlowQueue@@UAEXK@Z
548C50 ??0?$IntrusiveHashTable@KPAV?$HashTableData@KH@@$0A@@@QAE@I@Z
548CE0 ??_E?$HashTable@KH$0A@@@UAEPAXI@Z
548D40 ??0FlowQueue@@QAE@Usockaddr_in@@GM@Z
548E60 ??1FlowQueue@@UAE@XZ
548EE0 ?EnqueueEmptyAck@FlowQueue@@QAEXK@Z
548FA0 ?DequeueEmptyAck@FlowQueue@@QAEHAAK@Z
549020 ?CompileEmptyAcks@FlowQueue@@QAEXXZ
5490A0 ?TransmitNaks@FlowQueue@@IAE_NXZ
549110 ?TransmitAcks@FlowQueue@@IAE_NXZ
549260 ??0ClientFlowQueue@@QAE@Usockaddr_in@@GM@Z
549320 ??_EFlowQueue@@UAEPAXI@Z
549340 ?Destroy@FlowQueue@@QAEXXZ
549440 ?EnqueueAcks@FlowQueue@@QAEXPBKH@Z
549580 ?Empty@FlowQueue@@QAEXXZ
549650 ??1ClientFlowQueue@@UAE@XZ
549680 ??_GClientFlowQueue@@UAEPAXI@Z
5496D0 ?SharedStaticInit@FlowQueue@@SAXXZ
5497A0 ??0NetInterface@@QAE@XZ
5497B0 ?GetNonEphemeralID@NetInterface@@QAE_KXZ
5497C0 ?AddToQueue@ReceiverData@@QAEXAAPAV1@0@Z
5497F0 ?RemoveFromQueue@ReceiverData@@QAEXAAPAV1@0@Z
549870 ?Encrypt@ReceiverData@@QAEKKPAEKPAK@Z
549880 ?Decrypt@ReceiverData@@QAEKKPAEKPAK@Z
549890 ??0?$AVLNode@KK@@QAE@KPAKPAV0@@Z
5498D0 ?SetConnectionState@ReceiverData@@QAEXW4ConnectionState@@@Z
5498F0 ?GetConnectionStateDuration@ReceiverData@@QBENXZ
549900 ?InitCrypto@ReceiverData@@QAEXKK@Z
549990 ??0ReceiverData@@QAE@XZ
5499D0 ??1ReceiverData@@QAE@XZ
549A50 ?SharedInit@ReceiverData@@QAEXAAUsockaddr_in@@KGGGGPAVNetKeyExch@@KK@Z
549B00 ?Init@ReceiverData@@QAEXUsockaddr_in@@KGGGGPAVNetKeyExch@@KK@Z
549B60 ?Clear@ReceiverData@@QAEXXZ
549C20 ?GetNaks@ReceiverData@@QAEHPAK@Z
549CA0 ?Add@?$AVL@KK@@QAEPAKKPAK@Z
549DA0 ?AddNakked@ReceiverData@@QAEXKPAK@Z
549E10 ?ComputeChecksum@NetPacket@@QAEXXZ
549ED0 ?ApplySpecialFrags@NetPacket@@QAEKPAVProtoHeader@@@Z
549F00 ?AddToTail@NetPacket@@QAEXAAPAV1@0@Z
549F30 ?AddToHead@NetPacket@@QAEXAAPAV1@0@Z
549F80 ?Remove@NetPacket@@QAEXPAV1@AAPAV1@1@Z
549FC0 ?AddOptionalHeader@NetPacket@@QAEXPAVCOptionalHeader@@@Z
54A070 ?RemoveDisposableOptionalHeaders@NetPacket@@QAE_NXZ
54A130 ?UpdateTimeSensitiveHeaders@NetPacket@@QAE_NXZ
54A1A0 ?AddFrag@NetPacket@@QAEXPAVBlobFrag@@GK@Z
54A250 ??0BlobFrag@@IAE@PAVNetBlob@@KKPAEK@Z
54A2E0 ??_EBlobFrag@@MAEPAXI@Z
54A320 ??0BlobFrag@@IAE@PBEKAAK@Z
54A380 ?CreateForSend@BlobFrag@@SAPAV1@PAVNetBlob@@KKPAEK@Z
54A3C0 ?CreateForRecv@BlobFrag@@SAPAV1@AAVCBufferIterator@@@Z
54A440 ?SetPrivateRandom@NetKeyExch@@QAEXABVvlong@AC1Legacy@@@Z
54A460 ?Pack@NetKeyExch@@UAEIAAPAXI@Z
54A4B0 ?UnPack@NetKeyExch@@UAEHAAPAXI@Z
54A4F0 ??0NetKeyExch@@QAE@PAVPortalDH@@@Z
54A520 ?GetPackSize@NetKeyExch@@UAEIXZ
54A540 ??_GNetKeyExch@@UAEPAXI@Z
54A580 ?ReceiveAddFragment@NetBlob@@QAEXPAVBlobFrag@@@Z
54A690 ?ReceiveBlobReady@NetBlob@@QAEXXZ
54A6F0 ??0NetBlob@@IAE@PAEIF@Z
54A780 ?UnPack@NetBlob@@UAEHAAPAXI@Z
54A850 ?Fragmentize@NetBlob@@QAEKPAPAVBlobFrag@@@Z
54AAA0 ??_ENetBlob@@MAEPAXI@Z
54AB40 ?DeleteCurrent@?$HashBaseIter@_K@@QAEXXZ
54ABD0 ?Next@?$HashBaseIter@_K@@QAEXXZ
54AC20 ?remove@?$HashBase@_K@@QAEPAV?$HashBaseData@_K@@_K@Z
54ACB0 ?lookup@?$HashBase@_K@@QBEPAV?$HashBaseData@_K@@_K@Z
54AD00 ?add@?$UI64Hash@VNetBlob@@@@QAEXPAVNetBlob@@@Z
54AD60 ??_E?$UI64Hash@VNetBlob@@@@UAEPAXI@Z
54ADB0 ??0Indicator@@QAE@XZ
54AED0 ?AddArrivedEphInfo@Indicator@@IAEXPAVArrivedEphInfo@@@Z
54AF30 ?FlushTimedOutEphInfo@Indicator@@QAEXXZ
54AFB0 ?FragIsObsoleteEmphemeral@Indicator@@IAEH_K@Z
54B080 ?destroy_contents@?$UI64Hash@VArrivedEphInfo@@@@QAEXXZ
54B0E0 ?CleanupWaitingBlobs@Indicator@@IAEXXZ
54B1A0 ?AcceptFrag@Indicator@@QAEXPAVBlobFrag@@G@Z
54B2F0 ??1Indicator@@UAE@XZ
54B340 ?CheckInPacket@Indicator@@QAEXPBVNetPacket@@G@Z
54B3A0 ??_EIndicator@@UAEPAXI@Z
54B3C0 ??_E?$IntrusiveHashTable@_KPAV?$HashTableData@_K_K@@$0A@@@UAEPAXI@Z
54B400 ?Contains@SentPacketStore@@QAEHK@Z
54B430 ?GenerateAck@SentPacketStore@@QAEPAVNetPacket@@K@Z
54B460 ?find_internal@?$IntrusiveHashTable@_KPAV?$HashTableData@_KPAV?$SmartArray@PAVQualityChangeHandler@@$00@@@@$0A@@@IBE?AV?$IntrusiveHashIterator@_KPAV?$HashTableData@_KPAV?$SmartArray@PAVQualityChangeHandler@@$00@@@@$0A@@@AB_K@Z
54B4B0 ??0?$IntrusiveHashTable@_KPAV?$HashTableData@_K_K@@$0A@@@QAE@I@Z
54B540 ?remove@?$IntrusiveHashTable@_KPAV?$HashTableData@_K_K@@$0A@@@QAEPAV?$HashTableData@_K_K@@AB_K@Z
54B5A0 ?set@?$HashTable@_K_K$0A@@@QAE_NAB_K0@Z
54B630 ??_E?$HashTable@_K_K$0A@@@UAEPAXI@Z
54B690 ??0SentPacketStore@@QAE@XZ
54B6C0 ??1SentPacketStore@@QAE@XZ
54B710 ?AddSentPacket@SentPacketStore@@QAEHPAVNetPacket@@@Z
54B860 ?EraseNetBlobID@SentPacketStore@@IAEX_K@Z
54B8E0 ?Flush@SentPacketStore@@QAEHKH@Z
54B9C0 ??0ArrivedEphInfo@@QAE@_K0@Z
54BA10 ?UpdateNetBlobID@ArrivedEphInfo@@QAEX_K@Z
54BA40 ?fTimedOut@ArrivedEphInfo@@QBE_NXZ
54BA60 ??_GArrivedEphInfo@@UAEPAXI@Z
54BA90 ?CleanUp@CFactory@@SAXXZ
54BAB0 ?MakeCommandInterpreter_Internal@CFactory@@MAEPAVCommandInterpreter@@XZ
54BAD0 ?MakeCommandInterpreter@CFactory@@SAPAVCommandInterpreter@@XZ
54BAF0 ?Make_Client_Cache@CFactory@@SAPAVCLCache@@XZ
54BB10 ?Make_Client_Cache_Internal@CFactory@@MAEPAVCLCache@@XZ
54BB30 ?MakeCWeenieObject@CFactory@@SAPAVCWeenieObject@@K@Z
54BB50 ?MakeGlobalEventHandler@CFactory@@SAPAVGlobalEventHandler@@XZ
54BB70 ?MakeQualityRegistrar@CFactory@@SAPAVQualityRegistrar@@XZ
54BB90 ?MakeQualityRegistrar_Internal@CFactory@@MAEPAVQualityRegistrar@@XZ
54BBB0 ?MakeCCommunicationSystem@CFactory@@SAPAVCCommunicationSystem@@XZ
54BBD0 ?MakeCCommunicationSystem_Internal@CFactory@@MAEPAVCCommunicationSystem@@XZ
54BBF0 ?MakeSmartBox@CFactory@@SAPAVSmartBox@@PAV?$NIList@PAVNetBlob@@@@@Z
54BC10 ?MakeSmartBox_Internal@CFactory@@MAEPAVSmartBox@@PAV?$NIList@PAVNetBlob@@@@@Z
54BC30 ?SetOverallGraphicsQuality@Render@@SAXK@Z
54BD80 ?DetermineOverallGraphicsQuality@Render@@SAKXZ
54BE30 ?Set3DView@Render@@SAHHHHH@Z
54BE50 ?set_vdst@Render@@SAXM@Z
54BEE0 ?SetFOVRad@Render@@SAHM@Z
54BF30 ?set_zfar@Render@@SAXM@Z
54BF50 ?SetFOVInternal@Render@@MAEXM@Z
54C010 ?GetViewerBBox@Render@@SAXABVCSphere@@AAVVector3@AC1Legacy@@1@Z
54C220 ?pick_ray@Render@@SA?AVVector3@AC1Legacy@@HH@Z
54C360 ?set_selection_cursor@Render@@SAXHH_N@Z
54C3A0 ?clear_selection_cursor@Render@@SAXXZ
54C3C0 ?SetSurfaceArray@Render@@SAXPAPAVCSurface@@@Z
54C3D0 ?SetLandscapeDetailSurface@Render@@SAXPAVCSurface@@@Z
54C3E0 ?SetBuildingDetailSurface@Render@@SAXPAVCSurface@@@Z
54C3F0 ?SetEnvironmentDetailSurface@Render@@SAXPAVCSurface@@@Z
54C400 ?SetObjectDetailSurface@Render@@SAXPAVCSurface@@@Z
54C410 ?SetLandscapeDetailTiling@Render@@SAXM@Z
54C420 ?SetEnvironmentDetailTiling@Render@@SAXM@Z
54C430 ?SetBuildingDetailTiling@Render@@SAXM@Z
54C440 ?SetObjectDetailTiling@Render@@SAXM@Z
54C450 ?get_pt_limit@Render@@KAMMMABVPlane@@@Z
54C540 ?corner_plane_check@Render@@KA?AW4BoundingType@@MMM@Z
54C5C0 ?obj_view_set@Render@@SAXXZ
54C9C0 ?positionPush@Render@@SAXHPBVPosition@@@Z
54C9E0 ?framePop@Render@@SAHXZ
54C9F0 ?CalcObjectMatrix@Render@@SAXXZ
54CA00 ?GetObjectMatrix@Render@@SAABVMatrix4@@XZ
54CA10 ?reset_active_lights_state@Render@@KAXXZ
54CBC0 ?add_active_light@Render@@KAXHH@Z
54CC90 ?enable_active_lights@Render@@KAXXZ
54CD80 ?minimize_envcell_lighting@Render@@KAXABVPosition@@M@Z
54CDC0 ?remove_object_light@Render@@KAHABVLIGHTINFO@@@Z
54CE30 ?restore_all_lighting@Render@@SAXXZ
54CE60 ?viewconeCheck@Render@@SA?AW4BoundingType@@PBVCSphere@@@Z
54CFD0 ?SetDegradeLevelInternal@Render@@KAHM@Z
54D0C0 ?StartupRenderingSystem@Render@@SA_NABVRenderConfig@@@Z
54D110 ?StartupDevice@Render@@KA_NKABVRenderDevicePresentation@@ABVRenderDeviceConfig@@@Z
54D160 ?ShutdownDevice@Render@@KAXXZ
54D190 ?ShutdownRenderingSystem@Render@@SAXXZ
54D200 ?RestartDevice@Render@@KA_NKAAVRenderDevicePresentation@@AAVRenderDeviceConfig@@@Z
54D2A0 ?CreateIndexBuffer@Render@@SAPAVRenderIndexBuffer@@XZ
54D2E0 ?SafelyStopUsingAndReleaseTexture@Render@@SAXAAPAVRenderTexture@@@Z
54D300 ?GRPCallback_OnRenderPreferenceChanged@Render@@SAXABV?$PStringBase@D@@@Z
54D310 ?ShouldDropHighDetail@Render@@SA_NXZ
54D340 ?GetFramerate@Render@@SAMXZ
54D350 ?GfxObjUnderSelectionRay@Render@@SA_NPBVCGfxObj@@@Z
54D560 ?GetMouseSelectionObjectID@Render@@SAKXZ
54D590 ?GetMouseSelectionPartIndex@Render@@SAHXZ
54D5C0 ?grow@?$DArray@Uview_poly@@@@QAEXK@Z
54D630 ??0view_vertex@@QAE@XZ
54D640 ?shrink@?$DArray@Uview_poly@@@@QAEXK@Z
54D6D0 ??0RenderLight@@QAE@XZ
54D9E0 ?update_viewpoint@Render@@SAXABVPosition@@@Z
54DC00 ?get_clip_height@Render@@SAXMMAAUViewIntervalType@@@Z
54DC70 ?block_plane_check@Render@@KA?AW4BoundingType@@MMMMMM@Z
54DCF0 ?set_view@Render@@SAXAAUview_type@@H@Z
54DD60 ?framePush@Render@@SAXHPBVFrame@@H@Z
54DDC0 ?insert_light@Render@@KAXHAAHPAVRenderLight@@PAPAV2@ABVLIGHTINFO@@KABVFrame@@H@Z
54DFF0 ?add_static_light@Render@@SAXABVLIGHTINFO@@KABVFrame@@@Z
54E030 ?add_dynamic_light@Render@@SAXABVLIGHTINFO@@KABVFrame@@@Z
54E060 ?useSunlightSet@Render@@SAXH@Z
54E090 ?minimize_object_lighting@Render@@KAXXZ
54E1A0 ?StartupRenderingDevice@Render@@SA_NABVRenderDevicePresentation@@ABVRenderDeviceConfig@@@Z
54E260 ?FlushGraphicsResources@Render@@SA_NXZ
54E2C0 ?RestartRenderingSystem@Render@@SA_NAAVRenderDevicePresentation@@AAVRenderDeviceConfig@@@Z
54E320 ?RestartRenderingSystem@Render@@SA_NXZ
54E370 ?UnlinkRGRCallback@Render@@SAXP6A_NXZ@Z
54E3B0 ??0LightParms@@QAE@XZ
54E460 ?UpdateFromPreferences@Render@@SAXXZ
54E6A0 ?Init@Render@@SAHXZ
54E830 ?update_viewpoint@Render@@SAXABVFrame@@@Z
54E860 ?block_check@Render@@SA?AW4BoundingType@@AAUViewIntervalType@@000MM@Z
54E930 ?grow@?$DArray@Uview_vertex@@@@QAEXK@Z
54EA40 ?shrink@?$DArray@Uview_vertex@@@@QAEXK@Z
54EBB0 ?Begin@Render@@AAEXXZ
54EBC0 ?End@Render@@AAEXXZ
54EBD0 ?copy_view@Render@@SAHPAUportal_view_type@@PAPAUVec2Dscreen@@I@Z
54F3B0 ?Shutdown@Render@@UAEXXZ
54F4A0 ?CheckForLostDevice@Render@@SAXXZ
54F510 ?CC_SetGraphicsQuality@Render@@KA_NABV?$PStringBaseArray@D@@@Z
54F5C0 ?Startup@Render@@UAE_NABVRenderConfig@@@Z
54FB60 ?set_default_view@Render@@SAXXZ
54FC10 ?LinkRGRCallback@Render@@SA_NP6A_NXZ@Z
54FC80 ?Set3DViewInternal@Render@@MAEHHHHH@Z
54FCC0 ?ReleaseSurfaceResources@RenderDevice@@IAEXXZ
54FD20 ?GetDisplayWidth@RenderDevice@@QBEKXZ
54FD30 ?GetDisplayHeight@RenderDevice@@QBEKXZ
54FD40 ?CreateLocalSurface@RenderDevice@@UBEPAVRenderSurface@@XZ
54FD60 ?ComputeAspectForViewport@RenderDevice@@QBEMKKKK_N@Z
54FDD0 ?SetViewport@RenderDevice@@UAEXKKKK_N@Z
54FE50 ?Startup@RenderDevice@@UAE_NKABVRenderDevicePresentation@@ABVRenderDeviceConfig@@@Z
54FE80 ?GetUISurfaceFormat@RenderDevice@@QBE?BW4PixelFormatID@@XZ
54FE90 ??4LIGHTINFO@@QAEAAV0@ABV0@@Z
54FEF0 ??4RenderLight@@QAEAAV0@ABV0@@Z
54FF40 ?Reset@?$SmartArray@VRenderLight@@$00@@QAEXXZ
550070 ?grow@?$SmartArray@VRenderLight@@$00@@QAE_NK@Z
550150 ??0GraphicsStatesType@RenderDevice@@QAE@XZ
5502A0 ?End@RenderDevice@@AAEXXZ
550310 ??4?$SmartArray@VRenderLight@@$00@@QAEAAV0@ABV0@@Z
550690 ??4GraphicsStatesType@RenderDevice@@QAEAAV01@ABV01@@Z
550850 ?Begin@RenderDevice@@AAEXXZ
550AC0 ?Shutdown@RenderDevice@@UAEXXZ
550AD0 ?PlaySoundInternal@SoundManager@@KAXPAVSoundBufRef@@JJ@Z
550C30 ?GetAttenuation@SoundManager@@KAHMMAAJH@Z
550FD0 ?SetPlayerPosition@SoundManager@@SAXABVPosition@@@Z
550FF0 ?Cleanup@SoundManager@@SAXXZ
551250 ?Init@SoundManager@@SAXPAUHWND__@@@Z
5514C0 ?PlayAmbientSoundFromCenter@SoundManager@@SAXW4SoundType@@PBVCSoundTable@@M@Z
551560 ?PlaySoundFromCenter@SoundManager@@SAXW4SoundType@@PBVCSoundTable@@@Z
5515F0 ?PlaySoundFromCenter@SoundManager@@SAXV?$IDClass@U_tagDataID@@$0CA@$0A@@@M@Z
551700 ?PlaySoundA@SoundManager@@SAXW4SoundType@@PBVCPhysicsObj@@M@Z
551800 ?CreateSound@SoundManager@@SAXV?$IDClass@U_tagDataID@@$0CA@$0A@@@@Z
551870 ?DestroySound@SoundManager@@SAXV?$IDClass@U_tagDataID@@$0CA@$0A@@@@Z
5518E0 ?GetVolume@AmbientSound@@UAEMXZ
551910 ?AddDir@IntermitSound@@QAEXW4Direction@LandDefs@@MM@Z
551990 ?ResetCount@ConstantSound@@UAEXXZ
5519A0 ?GetVolume@ConstantSound@@UAEMXZ
5519B0 ?PlaySoundA@Ambient@@QAEXW4SoundType@@PBVCSoundTable@@PBVPosition@@M@Z
5519F0 ?CalcWeight@Ambient@@QAEMABVVector3@AC1Legacy@@@Z
551A60 ?CalcDir@Ambient@@QAE?AW4Direction@LandDefs@@ABVVector3@AC1Legacy@@@Z
551BA0 ?CanHear@IntermitSound@@UAEHXZ
551BC0 ?PlayNow@IntermitSound@@UAEHXZ
551BF0 ?CanHear@ConstantSound@@UAEHXZ
551C20 ?AddTo@ConstantSound@@UAEXMABVVector3@AC1Legacy@@W4Direction@LandDefs@@@Z
551C30 ?grow_check@?$DArray@PAVAmbientSound@@@@QAEXK@Z
551C90 ?GetVolume@IntermitSound@@UAEMXZ
551CA0 ?GetPlayInterval@IntermitSound@@UAEMXZ
551CC0 ?GetPlayInterval@ConstantSound@@UAEMXZ
551CD0 ?GetSound@Ambient@@AAEPAVAmbientSound@@PAVAmbientSTBDesc@@K@Z
551DC0 ??0AmbientSTBDesc@@QAE@XZ
551DE0 ??1AmbientSTBDesc@@QAE@XZ
551E40 ?Pack@AmbientSTBDesc@@QAEIAAPAXAAI@Z
551F20 ?pack_size@AmbientSTBDesc@@QAEIXZ
551F30 ?UpdateSound@IntermitSound@@UAEXM@Z
551F70 ?GetSoundPos@IntermitSound@@UAEHAAVPosition@@@Z
552070 ?AddTo@IntermitSound@@UAEXMABVVector3@AC1Legacy@@W4Direction@LandDefs@@@Z
552160 ?UpdateSound@ConstantSound@@UAEXM@Z
5521A0 ?Destroy@Ambient@@QAEXXZ
5521F0 ?InitSounds@Ambient@@QAEXPBVPosition@@@Z
552230 ?AddSound@Ambient@@QAEXPAVAmbientSTBDesc@@ABVPosition@@@Z
552300 ??0Ambient@@QAE@XZ
552380 ??1Ambient@@QAE@XZ
5523C0 ?Play@Ambient@@QAEXPAVAmbientSound@@@Z
5524A0 ?UseTime@Ambient@@QAEXXZ
552510 ?UnPack@AmbientSTBDesc@@QAEHAAPAXAAI@Z
552670 ?UpdatePlayQueue@Ambient@@QAEXXZ
5526C0 ??0DBWave@@QAE@V?$IDClass@U_tagDataID@@$0CA@$0A@@@@Z
552710 ??_EDBWave@@WDA@AEPAXI@Z
552720 ??_EDBWave@@WDI@AEPAXI@Z
552730 ?Pack@DBWave@@UAEIAAPAXI@Z
5527B0 ?UnPack@DBWave@@UAEHAAPAXI@Z
552870 ?Allocate@DBWave@@UBEPAVDBObj@@XZ
552880 ??_GDBWave@@UAEPAXI@Z
5528F0 ?UnPack@CSoundTable@@UAEHAAPAXI@Z
552940 ??_G?$IntrusiveHashTable@KPAVSoundTableData@@$0A@@@UAEPAXI@Z
552AD0 ?Pack@SoundTableData@@UAEIAAPAXI@Z
552C70 ?GetSubDataIDs@CSoundTable@@UBEXAAVQualifiedDataIDArray@@@Z
552C80 ?Pack@CSoundTable@@UAEIAAPAXI@Z
552F90 ?UnPack@SoundTableData@@UAEHAAPAXI@Z
553150 ??0CSoundTable@@QAE@V?$IDClass@U_tagDataID@@$0CA@$0A@@@@Z
553180 ?GetDBOType@CSoundTable@@UBEKXZ
553190 ??_ECSoundTable@@WDA@AEPAXI@Z
553200 ?Allocate@CSoundTable@@UBEPAVDBObj@@XZ
553210 ??_GSoundTableData@@UAEPAXI@Z
553270 ??_GCSoundTable@@UAEPAXI@Z
553470 ?GetStatus@SoundBuf@@QAEJXZ
554640 ?ReleaseAll@WaveFile@@IAEXXZ
554C00 AddEventToStreamBuffer
554ED0 GetTrackEvent
555440 ?bLooped@@3HA
555560 ?ConvertToBuffer@@YAHKPAU_ConvertInfo@@@Z
5557A0 ??6ErrorStream@@QAEAAV0@P6AAAV0@AAV0@@Z@Z
5557B0 ?output@ErrorStream@@IAEXXZ
555800 ?endp@@YAAAVErrorStream@@AAV1@@Z
555810 ??6ErrorStream@@QAEAAV0@PBD@Z
555840 ??6ErrorStream@@QAEAAV0@V?$IDClass@U_tagDataID@@$0CA@$0A@@@@Z
555860 ?PopupError@@YAXPBDZZ
5558F0 ?StringFromVersion@Version@AC1Legacy@@SAPADAAUVERSION_NO_t@2@@Z
555940 ?FileVersionStringFromVersion@Version@AC1Legacy@@SAPADAAUVERSION_NO_t@2@@Z
555990 ?Init@Version@AC1Legacy@@SAHPBD@Z
555A20 ?Cleanup@Version@AC1Legacy@@SAXXZ
555A60 ?LoadData@Resource@AC1Legacy@@CAHPAD@Z
555AA0 ?Init@Resource@AC1Legacy@@SAHPBD@Z
555C90 ?Cleanup@Resource@AC1Legacy@@SAXXZ
555CB0 ?GetComments@Resource@AC1Legacy@@SAPADXZ
555D10 ?GetVersion@Resource@AC1Legacy@@SAHAAUVERSION_NO_t@2@@Z
555D80 ?UseTime@PositionManager@@QAEXXZ
555DB0 ?adjust_offset@PositionManager@@QAEXAAVFrame@@N@Z
555E00 ?UnStick@PositionManager@@QAEXXZ
555E10 ?InterpolateTo@PositionManager@@QAEXABVPosition@@H@Z
555E40 ?StopInterpolating@PositionManager@@QAEXXZ
555E50 ?StickTo@PositionManager@@QAEXKMM@Z
555E90 ?GetStickyObjectID@PositionManager@@QBEKXZ
555EA0 ?ConstrainTo@PositionManager@@QAEXABVPosition@@MM@Z
555ED0 ?UnConstrain@PositionManager@@QAEXXZ
555EE0 ?IsFullyConstrained@PositionManager@@QBEHXZ
555EF0 ?Create@PositionManager@@SAPAV1@PAVCPhysicsObj@@@Z
555F60 ?Destroy@PositionManager@@IAEXXZ
555FC0 ??1PositionManager@@QAE@XZ
555FD0 ?IsInterpolating@PositionManager@@QBEHXZ
555FF0 ?HandleUpdateTarget@PositionManager@@QAEXVTargetInfo@@@Z
556050 ?adjust_offset@StickyManager@@QAEXAAVFrame@@N@Z
556270 ?Destroy@StickyManager@@QAEXXZ
556300 ?SetPhysicsObject@StickyManager@@QAEXPAVCPhysicsObj@@@Z
556330 ?StickTo@StickyManager@@QAEXKMM@Z
5563A0 ?HandleUpdateTarget@StickyManager@@QAEXVTargetInfo@@@Z
556400 ??1StickyManager@@QAE@XZ
556420 ?Create@StickyManager@@SAPAV1@PAVCPhysicsObj@@@Z
556490 ?RemoveTail@LListBase@@QAEPAVLListData@@XZ
5564F0 ??0InterpolationManager@@AAE@PAVCPhysicsObj@@@Z
556550 ?Create@InterpolationManager@@SAPAV1@PAVCPhysicsObj@@@Z
556570 ?StopInterpolating@InterpolationManager@@QAEXXZ
5565C0 ?NodeCompleted@InterpolationManager@@AAEXH@Z
556670 ??0InterpolationNode@@QAE@XZ
5566B0 ?subtract2@Position@@QBE?AVFrame@@ABV1@@Z
556710 ?Destroy@InterpolationManager@@AAEXXZ
556740 ?InterpolateTo@InterpolationManager@@QAEXABVPosition@@H@Z
556950 ?adjust_offset@InterpolationManager@@QAEXAAVFrame@@N@Z
556B40 ?UseTime@InterpolationManager@@QAEXXZ
556C90 ??1InterpolationManager@@QAE@XZ
556CB0 ?SetPhysicsObject@ConstraintManager@@QAEXPAVCPhysicsObj@@@Z
556CE0 ?UnConstrain@ConstraintManager@@QAEXXZ
556CF0 ?IsFullyConstrained@ConstraintManager@@QBEHXZ
556D10 ??1ConstraintManager@@QAE@XZ
556D30 ?Create@ConstraintManager@@SAPAV1@PAVCPhysicsObj@@@Z
556DA0 ?adjust_offset@ConstraintManager@@QAEXAAVFrame@@N@Z
556E60 ?ConstrainTo@ConstraintManager@@QAEXABVPosition@@MM@Z
556EB0 ?Init@CCommunicationSystem@@SAXXZ
556ED0 ?IsUsingTurbineChat@CCommunicationSystem@@SAHXZ
556EE0 ?OnSendToRoom@ChatInterfaceProvider@CCommunicationSystem@@UAGXKPBG0UtagBLOB@@@Z
556EF0 nullsub_1893
556F00 ?CSendToTurbineRoomByID@CCommunicationSystem@@SAHKPBGUtagBLOB@@1@Z
5570E0 ?StartupTurbineChat@CCommunicationSystem@@SAHV?$PStringBase@D@AC1Legacy@@@Z
557170 ?Cleanup@CCommunicationSystem@@SAXXZ
5571C0 ?to_wpstring@?$PStringBase@D@AC1Legacy@@QBE?AV?$PStringBase@G@2@G@Z
557300 ??0CCommunicationSystem@@IAE@XZ
557330 ?StartupTurbineChat_Internal@CCommunicationSystem@@MAEHV?$PStringBase@D@AC1Legacy@@@Z
557450 ??_EAC1ClientChatManager@@UAEPAXI@Z
5574B0 ?IncludeFileInWatsonUpload@AC1ClientChatManager@@UAEHPAGK@Z
5577A0 ?CheckForMSXML4@@YA_NXZ
557840 ?Update@KeyStone@@SAXXZ
557930 ?Init@KeyStone@@SAHXZ
5579F0 ?DispatchMessageA@KeyStone@@SAHIIJPAH@Z
557A30 ?IsHelpFocused@KeyStone@@SAHXZ
557A60 ?IsOverKeystoneWindow@KeyStone@@SAHUtagPOINT@@@Z
557AC0 ?LoseFocus@KeyStone@@SAHXZ
557AF0 ?ClosePluginManager@KeyStone@@SAHXZ
557B10 ?OpenPluginManager@KeyStone@@SAHXZ
557B50 ?Release@KeyStone@@SAHXZ
557C50 ?OpenHelp@KeyStone@@SAHKJ@Z
557D80 ?IsPluginManagerOpen@KeyStone@@SAHXZ
557E40 ??0CParseXml@@QAE@XZ
557E60 ??1CParseXml@@QAE@XZ
557E80 ?Init@CParseXml@@QAE_NXZ
557F40 ??_ECFactory@@UAEPAXI@Z
557F60 ?MakeCommandInterpreter_Internal@ACCFactory@@MAEPAVCommandInterpreter@@XZ
557F80 ?Make_Client_Cache_Internal@ACCFactory@@MAEPAVCLCache@@XZ
557FA0 ?MakeCWeenieObject_Internal@ACCFactory@@MAEPAVCWeenieObject@@K@Z
557FC0 ?MakeGlobalEventHandler_Internal@ACCFactory@@MAEPAVGlobalEventHandler@@XZ
557FE0 ?MakeCCommunicationSystem_Internal@ACCFactory@@MAEPAVCCommunicationSystem@@XZ
558000 ?MakeSmartBox_Internal@ACCFactory@@MAEPAVSmartBox@@PAV?$NIList@PAVNetBlob@@@@@Z
558020 ?QueryInterface@?$ClassFactoryPlugin@VClientObjMaintSystem@@@@UAE?AVTResult@@ABUTurbine_GUID@@PAPAX@Z
5580B0 ?Release@?$ClassFactoryPlugin@VClientObjMaintSystem@@@@UBEKXZ
5580E0 ?CreateInstance@?$ClassFactoryPlugin@VClientObjMaintSystem@@@@UAE?AVTResult@@PAVInterface@@ABUTurbine_GUID@@PAPAX@Z
558190 ?_QueryInterface@?$InterfacePtr@VInterface@@@@AAE?AVTResult@@PAVClientObjMaintSystem@@@Z
558230 ?Init@ACCFactory@@SAXXZ
5582A0 ?SetVisualDesc@ACCObjectMaint@@UAEXPAVCPhysicsObj@@PAVVisualDesc@@@Z
5582C0 ?SetPlayerVisualDesc@ACCObjectMaint@@UAEXPAVVisualDesc@@@Z
558320 ?GetPlayerVisualDesc@ACCObjectMaint@@UBEPAVVisualDesc@@XZ
558330 ?DeleteObject@ACCObjectMaint@@UAEHK@Z
558370 ??1ClientObjMaintSystem@@MAE@XZ
5583F0 ?GetWeenieObject@ClientObjMaintSystem@@SAPAVACCWeenieObject@@K@Z
558410 ?GetPhysicsObject@ClientObjMaintSystem@@SAPAVCPhysicsObj@@K@Z
558430 ??0Attribute@@QAE@ABV0@@Z
558460 ??0SecondaryAttribute@@QAE@ABV0@@Z
558490 ?Release@ClientObjMaintSystem@@UBEKXZ
5584C0 ??_GACCObjectMaint@@UAEPAXI@Z
558510 ??_GClientObjMaintSystem@@MAEPAXI@Z
558540 ?QueryInterface@ClientObjMaintSystem@@UAE?AVTResult@@ABUTurbine_GUID@@PAPAX@Z
558630 ?QueryInterface@ClientObjMaintSystem@@W7AE?AVTResult@@ABUTurbine_GUID@@PAPAX@Z
558640 ?AddRef@ClientObjMaintSystem@@W7BEKXZ
558650 ?Release@ClientObjMaintSystem@@W7BEKXZ
558660 ?SetWeenieDesc@ACCObjectMaint@@UAEXPAVCWeenieObject@@PAVWeenieDesc@@H@Z
5587E0 ?UpdateStackSize@ClientObjMaintSystem@@QAE_NEKKK@Z
558850 ?InsertTail@?$PackableList@VInventoryPlacement@@@@QAEKABVInventoryPlacement@@@Z
5588C0 ?UpdateStat@?$@UAttribute_QualityType@@ABVAttribute@@@ClientObjMaintSystem@@IAEKKEKABVAttribute@@@Z
558940 ?UpdateStat@?$@UAttribute_QualityType@@K@ClientObjMaintSystem@@IAEKKEKK@Z
5589C0 ?UpdateStat@?$@UAttribute_2nd_QualityType@@ABVSecondaryAttribute@@@ClientObjMaintSystem@@IAEKKEKABVSecondaryAttribute@@@Z
558A40 ?UpdateStat@?$@UAttribute_2nd_QualityType@@K@ClientObjMaintSystem@@IAEKKEKK@Z
558AC0 ?UpdateStat@?$@USkill_QualityType@@ABVSkill@@@ClientObjMaintSystem@@IAEKKEKABVSkill@@@Z
558B40 ?UpdateStat@?$@USkill_QualityType@@K@ClientObjMaintSystem@@IAEKKEKK@Z
558BC0 ?UpdateStat@?$@USkill_QualityType@@W4SKILL_ADVANCEMENT_CLASS@@@ClientObjMaintSystem@@IAEKKEKW4SKILL_ADVANCEMENT_CLASS@@@Z
558C40 ?UpdateStat@?$@UInt_QualityType@@J@ClientObjMaintSystem@@IAEKKEKJ@Z
558CD0 ?UpdateStat@?$@UInt64_QualityType@@_J@ClientObjMaintSystem@@IAEKKEK_J@Z
558D50 ?UpdateStat@?$@UBool_QualityType@@H@ClientObjMaintSystem@@IAEKKEKH@Z
558DE0 ?UpdateStat@?$@UFloat_QualityType@@N@ClientObjMaintSystem@@IAEKKEKN@Z
558E60 ?UpdateStat@?$@UString_QualityType@@ABV?$PStringBase@D@AC1Legacy@@@ClientObjMaintSystem@@IAEKKEKABV?$PStringBase@D@AC1Legacy@@@Z
558F10 ?UpdateStat@?$@UDataID_QualityType@@V?$IDClass@U_tagDataID@@$0CA@$0A@@@@ClientObjMaintSystem@@IAEKKEKV?$IDClass@U_tagDataID@@$0CA@$0A@@@@Z
558FA0 ?UpdateStat@?$@UInstanceID_QualityType@@K@ClientObjMaintSystem@@IAEKKEKK@Z
559030 ?UpdateStat@?$@UPosition_QualityType@@ABVPosition@@@ClientObjMaintSystem@@IAEKKEKABVPosition@@@Z
5590B0 ?RemoveStat@?$@UInt_QualityType@@@ClientObjMaintSystem@@IAEKKEK@Z
559130 ?RemoveStat@?$@UInt64_QualityType@@@ClientObjMaintSystem@@IAEKKEK@Z
5591B0 ?RemoveStat@?$@UBool_QualityType@@@ClientObjMaintSystem@@IAEKKEK@Z
559230 ?RemoveStat@?$@UFloat_QualityType@@@ClientObjMaintSystem@@IAEKKEK@Z
5592B0 ?RemoveStat@?$@UString_QualityType@@@ClientObjMaintSystem@@IAEKKEK@Z
559330 ?RemoveStat@?$@UDataID_QualityType@@@ClientObjMaintSystem@@IAEKKEK@Z
5593B0 ?RemoveStat@?$@UInstanceID_QualityType@@@ClientObjMaintSystem@@IAEKKEK@Z
559430 ?RemoveStat@?$@UPosition_QualityType@@@ClientObjMaintSystem@@IAEKKEK@Z
5594B0 ?CreateObject@ACCObjectMaint@@UAEPAVCPhysicsObj@@KPAVVisualDesc@@PAVPhysicsDesc@@PAVWeenieDesc@@@Z
5596B0 ?ViewObjectContents@ACCObjectMaint@@QAEXKABV?$PackableList@VContentProfile@@@@@Z
559770 ?StopViewingObjectContents@ACCObjectMaint@@QAEXK@Z
5597B0 ??0ClientObjMaintSystem@@IAE@XZ
559860 ?OnShutdown@ClientObjMaintSystem@@MAEXXZ
5598C0 ?Handle_Qualities__UpdateAttribute@ClientObjMaintSystem@@QAEKEKKAAVAttribute@@@Z
5598E0 ?Handle_Qualities__UpdateAttributeLevel@ClientObjMaintSystem@@QAEKEKKJ@Z
559900 ?Handle_Qualities__UpdateAttribute2nd@ClientObjMaintSystem@@QAEKEKKAAVSecondaryAttribute@@@Z
559920 ?Handle_Qualities__UpdateAttribute2ndLevel@ClientObjMaintSystem@@QAEKEKKJ@Z
559940 ?Handle_Qualities__UpdateSkill@ClientObjMaintSystem@@QAEKEKKAAVSkill@@@Z
559960 ?Handle_Qualities__UpdateSkillLevel@ClientObjMaintSystem@@QAEKEKKJ@Z
559980 ?Handle_Qualities__UpdateSkillAC@ClientObjMaintSystem@@QAEKEKKW4SKILL_ADVANCEMENT_CLASS@@@Z
5599A0 ?Handle_Qualities__UpdateInt@ClientObjMaintSystem@@QAEKEKKJ@Z
5599C0 ?Handle_Qualities__UpdateInt64@ClientObjMaintSystem@@QAEKEKK_J@Z
5599F0 ?Handle_Qualities__UpdateBool@ClientObjMaintSystem@@QAEKEKKH@Z
559A10 ?Handle_Qualities__UpdateFloat@ClientObjMaintSystem@@QAEKEKKN@Z
559A40 ?Handle_Qualities__UpdateString@ClientObjMaintSystem@@QAEKEKKAAV?$PStringBase@D@AC1Legacy@@@Z
559A60 ?Handle_Qualities__UpdateDataID@ClientObjMaintSystem@@QAEKEKKV?$IDClass@U_tagDataID@@$0CA@$0A@@@@Z
559A80 ?Handle_Qualities__UpdateInstanceID@ClientObjMaintSystem@@QAEKEKKK@Z
559AA0 ?Handle_Qualities__UpdatePosition@ClientObjMaintSystem@@QAEKEKKABVPosition@@@Z
559AC0 ?Handle_Qualities__PrivateUpdateAttribute@ClientObjMaintSystem@@QAEKEKAAVAttribute@@@Z
559AF0 ?Handle_Qualities__PrivateUpdateAttributeLevel@ClientObjMaintSystem@@QAEKEKJ@Z
559B20 ?Handle_Qualities__PrivateUpdateAttribute2nd@ClientObjMaintSystem@@QAEKEKAAVSecondaryAttribute@@@Z
559B50 ?Handle_Qualities__PrivateUpdateAttribute2ndLevel@ClientObjMaintSystem@@QAEKEKJ@Z
559B80 ?Handle_Qualities__PrivateUpdateSkill@ClientObjMaintSystem@@QAEKEKAAVSkill@@@Z
559BB0 ?Handle_Qualities__PrivateUpdateSkillLevel@ClientObjMaintSystem@@QAEKEKJ@Z
559BE0 ?Handle_Qualities__PrivateUpdateSkillAC@ClientObjMaintSystem@@QAEKEKW4SKILL_ADVANCEMENT_CLASS@@@Z
559C10 ?Handle_Qualities__PrivateUpdateInt@ClientObjMaintSystem@@QAEKEKJ@Z
559C40 ?Handle_Qualities__PrivateUpdateInt64@ClientObjMaintSystem@@QAEKEK_J@Z
559C70 ?Handle_Qualities__PrivateUpdateBool@ClientObjMaintSystem@@QAEKEKH@Z
559CA0 ?Handle_Qualities__PrivateUpdateFloat@ClientObjMaintSystem@@QAEKEKN@Z
559CD0 ?Handle_Qualities__PrivateUpdateString@ClientObjMaintSystem@@QAEKEKAAV?$PStringBase@D@AC1Legacy@@@Z
559D00 ?Handle_Qualities__PrivateUpdateDataID@ClientObjMaintSystem@@QAEKEKV?$IDClass@U_tagDataID@@$0CA@$0A@@@@Z
559D30 ?Handle_Qualities__PrivateUpdateInstanceID@ClientObjMaintSystem@@QAEKEKK@Z
559D60 ?Handle_Qualities__PrivateUpdatePosition@ClientObjMaintSystem@@QAEKEKABVPosition@@@Z
559D90 ?Handle_Qualities__RemoveIntEvent@ClientObjMaintSystem@@QAEKEKK@Z
559DB0 ?Handle_Qualities__RemoveInt64Event@ClientObjMaintSystem@@QAEKEKK@Z
559DD0 ?Handle_Qualities__RemoveBoolEvent@ClientObjMaintSystem@@QAEKEKK@Z
559DF0 ?Handle_Qualities__RemoveFloatEvent@ClientObjMaintSystem@@QAEKEKK@Z
559E10 ?Handle_Qualities__RemoveStringEvent@ClientObjMaintSystem@@QAEKEKK@Z
559E30 ?Handle_Qualities__RemoveDataIDEvent@ClientObjMaintSystem@@QAEKEKK@Z
559E50 ?Handle_Qualities__RemoveInstanceIDEvent@ClientObjMaintSystem@@QAEKEKK@Z
559E70 ?Handle_Qualities__RemovePositionEvent@ClientObjMaintSystem@@QAEKEKK@Z
559E90 ?OnShutdown@ClientObjMaintSystem@@O7AEXXZ
559EA0 ?Allocate@ClientObjMaintSystem@@SAPAV1@XZ
559EC0 ?Handle_Qualities__PrivateRemoveIntEvent@ClientObjMaintSystem@@QAEKEK@Z
559F00 ?Handle_Qualities__PrivateRemoveInt64Event@ClientObjMaintSystem@@QAEKEK@Z
559F40 ?Handle_Qualities__PrivateRemoveBoolEvent@ClientObjMaintSystem@@QAEKEK@Z
559F80 ?Handle_Qualities__PrivateRemoveFloatEvent@ClientObjMaintSystem@@QAEKEK@Z
559FC0 ?Handle_Qualities__PrivateRemoveStringEvent@ClientObjMaintSystem@@QAEKEK@Z
55A000 ?Handle_Qualities__PrivateRemoveDataIDEvent@ClientObjMaintSystem@@QAEKEK@Z
55A040 ?Handle_Qualities__PrivateRemoveInstanceIDEvent@ClientObjMaintSystem@@QAEKEK@Z
55A080 ?Handle_Qualities__PrivateRemovePositionEvent@ClientObjMaintSystem@@QAEKEK@Z
55A0C0 ?Flush@?$PackableList@VInventoryPlacement@@@@QAEXXZ
55A110 ??4?$PackableList@VInventoryPlacement@@@@QAEAAV0@ABV0@@Z
55A190 ?UpdateObjectInventory@ACCObjectMaint@@QAEXKABV?$PackableList@VInventoryPlacement@@@@@Z
55A1B0 ??0ACSmartBox@@QAE@PAV?$NIList@PAVNetBlob@@@@@Z
55A1D0 ?IsReadyToDispatchEvent@ACSmartBox@@MAEHPAVNetBlob@@@Z
55A210 ?DispatchSmartBoxEvent@ACSmartBox@@MAE?AW4NetBlobProcessedStatus@@PAVNetBlob@@@Z
55A610 ??_GSmartBox@@MAEPAXI@Z
55A630 ?_AtlGetThreadACPFake@ATL@@YGIXZ
55A690 ?_AtlGetThreadACPThunk@ATL@@YGIXZ
55A6E0 ?A2BSTR@@YAPAGPBD@Z
55A740 ?GetACPlugin@APIManager@@SAPAUIACPlugin@@XZ
55A750 ?QueryInterface@IAsheronsCallImpl@APIManager@@UAGJABU_GUID@@PAPAX@Z
55A7B0 ?AddRef@IAsheronsCallImpl@APIManager@@UAGKXZ
55A7D0 ?IssueChatBarCommand@IAsheronsCallImpl@APIManager@@UAGJQAGH@Z
55A7E0 ?SelectItem@IAsheronsCallImpl@APIManager@@UAGJK@Z
55A800 ?SetSelectedObjectID@IAsheronsCallImpl@APIManager@@UAGJK@Z
55A820 ?SetPreviousSelectedItemID@IAsheronsCallImpl@APIManager@@UAGJK@Z
55A840 ?GetSelectedItemID@IAsheronsCallImpl@APIManager@@UAGJPAK@Z
55A860 ?GetPreviousSelectedItemID@IAsheronsCallImpl@APIManager@@UAGJPAK@Z
55A880 ?ExamineObject@IAsheronsCallImpl@APIManager@@UAGJK@Z
55A8A0 ?UseObject@IAsheronsCallImpl@APIManager@@UAGJK@Z
55A8C0 ?UseObjectOn@IAsheronsCallImpl@APIManager@@UAGJKK@Z
55A910 ?UseEquippedItem@IAsheronsCallImpl@APIManager@@UAGJKK@Z
55A960 ?ChangeCombatMode@IAsheronsCallImpl@APIManager@@UAGJW4eCombatMode@@@Z
55A9B0 ?GetVendorID@IAsheronsCallImpl@APIManager@@UAGJPAK@Z
55A9E0 ?MoveItemExternal@IAsheronsCallImpl@APIManager@@UAGJKKH@Z
55AA00 ?MoveItemInternal@IAsheronsCallImpl@APIManager@@UAGJKKHH@Z
55AA30 ?CastSpell@IAsheronsCallImpl@APIManager@@UAGJKK@Z
55AAB0 ?SetSelectedStackCount@IAsheronsCallImpl@APIManager@@UAGJI@Z
55AAC0 ?DecrementBusyCount@IAsheronsCallImpl@APIManager@@UAGJXZ
55AAD0 ?IsStandingStill@IAsheronsCallImpl@APIManager@@UAGJPAH@Z
55AB00 ?StopCompletely@IAsheronsCallImpl@APIManager@@UAGJXZ
55AB30 ?TurnToHeading@IAsheronsCallImpl@APIManager@@UAGJM@Z
55ABA0 ?SetAutoRun@IAsheronsCallImpl@APIManager@@UAGJH@Z
55ABE0 ?GetAllocatorRequirements@CBaseInputPin@@UAGJPAU_AllocatorProperties@@@Z
55ABF0 ?GetCurCoords@IAsheronsCallImpl@APIManager@@UAGJPAN0@Z
55AC40 ?GetCurLoc@IAsheronsCallImpl@APIManager@@UAGJPAKPAM111@Z
55AC70 ?GetPlayerID@IAsheronsCallImpl@APIManager@@UAGJPAK@Z
55ACC0 ?GetGroundContainerID@IAsheronsCallImpl@APIManager@@UAGJPAK@Z
55AD00 ?TradeWindow_Clear@IAsheronsCallImpl@APIManager@@UAGJXZ
55AD10 ?EndCharacterSession@IAsheronsCallImpl@APIManager@@UAGJXZ
55AD50 ?BeginCharacterSession@IAsheronsCallImpl@APIManager@@UAGJK@Z
55AD90 ?GetScreenDimensions@IAsheronsCallImpl@APIManager@@UAGJPAH0@Z
55ADC0 ?ItemIsKnown@IAsheronsCallImpl@APIManager@@UAGJKPAH@Z
55AE10 ?Release@IAsheronsCallImpl@APIManager@@UAGKXZ
55AE40 ?GetItemName@IAsheronsCallImpl@APIManager@@UAGJKPAPAG@Z
55AED0 APIManager::GetAsheronsCallImpl
55AF00 ?Init@APIManager@@SAHXZ
55B070 ?SetUIReady@APIManager@@SAXH@Z
55B0A0 ?APIIsReady@APIManager@@SAHXZ
55B0E0 ?WriteToChat@IAsheronsCallImpl@APIManager@@UAGJQAGW4eChatTypes@@@Z
55B180 ??1PageData@@UAE@XZ
55B1F0 ??_GPageData@@UAEPAXI@Z
55B210 UIQueueManager::QueryInterface
55B2E0 ?OnBeginCharacterSession@UIQueueManager@@QAEXXZ
55B310 UIQueueManager::OnEndCharacterSession
55B340 ?OnShutdown@UIQueueManager@@UAEXXZ
55B430 ?CrucialOrderedEventsReceived@UIQueueManager@@IAEXXZ
55B4A0 ?Pack@?$PackableList@VContentProfile@@@@UAEIAAPAXI@Z
55B4F0 ?pack_size@?$PackableList@VContentProfile@@@@IAEIXZ
55B530 ??0UIQueueManager@@QAE@PAV?$NIList@PAVNetBlob@@@@@Z
55B5A0 UIQueueManager::UIQueueManager_Destructor
55B5E0 ?InsertTail@?$PackableList@VContentProfile@@@@QAEKABVContentProfile@@@Z
55B650 ?HandleStringUpdateEvents@UIQueueManager@@IAEKPAXIK@Z
55B780 ?Flush@?$PackableList@VContentProfile@@@@QAEXXZ
55B7F0 ?Release@UIQueueManager@@UBEKXZ
55B820 ?OnStartup@UIQueueManager@@UAEXXZ
55BC00 ??1?$PackableList@VContentProfile@@@@UAE@XZ
55BC20 ?UnPack@?$PackableList@VContentProfile@@@@UAEHAAPAXI@Z
55BCA0 ??_E?$PackableList@VContentProfile@@@@UAEPAXI@Z
55BCD0 ?ProcessNetBlobData@UIQueueManager@@IAEKPAXI@Z
55DD80 ?ProcessOrderedNetBlob@UIQueueManager@@MAEXPAVNetBlob@@@Z
55DDE0 ?ProcessEphemeralNetBlob@UIQueueManager@@MAEXPAVNetBlob@@@Z
55DEE0 ?HandleOrderingForBlob@UIQueueManager@@IAEXPAVNetBlob@@@Z
55E050 ?UseTime@UIQueueManager@@UAEXXZ
55E100 ?BlocksUseOfShield@ACCWeenieObject@@QAEHXZ
55E130 ?Begin@CPlayerSystem@@IAEXXZ
55E1D0 ?GetPlayerSystem@CPlayerSystem@@SAPAV1@XZ
55E1E0 ?GetCharGenState@CPlayerSystem@@QAEAAVClientCharGenState@@XZ
55E220 ?GetComponentTracker@CPlayerSystem@@QAEPAVComponentTracker@@XZ
55E270 ?RecvNotice_NewParentContainer@CPlayerSystem@@UAEXK@Z
55E2A0 ?SetTeleportInProgress@CPlayerSystem@@QAEX_N@Z
55E2F0 ?Handle_CharacterError@CPlayerSystem@@QAEXW4charError@@@Z
55E310 ?Handle_CharacterDelete@CPlayerSystem@@QAEXXZ
55E380 ?Handle_AwaitingSubscriptionExpiration@CPlayerSystem@@QAEXK@Z
55E470 ?AccountHasThroneOfDestiny@CPlayerSystem@@QAE_NXZ
55E480 ?RestoreCharacter@CPlayerSystem@@QAEXK@Z
55E4A0 ?ExecuteLogOff@CPlayerSystem@@QAEXXZ
55E4F0 ?SetLogOffStarted@CPlayerSystem@@QAEXXZ
55E500 ?Get2DDistance@@YANNN@Z
55E530 ?GetWeightedZDistance@@YANN@Z
55E550 ?Farther@CPlayerSystem@@QAE_NNKNK@Z
55E5A0 ?GetRadarRadius@CPlayerSystem@@QAEMXZ
55E5C0 ?IsOutside@CPlayerSystem@@QAE_NXZ
55E5E0 ?PlaceInBackpack@CPlayerSystem@@QAE_NK_N@Z
55E660 ?ResetUnblocking@CPlayerSystem@@QAEXXZ
55E680 ??0CInvSlotModule@@QAE@XZ
55E9C0 ?Reset@CInvSlotModule@@QAEXXZ
55EAA0 ?RegisterInputMaps@CPlayerSystem@@IAEXXZ
55EB30 ?SetDisplayContractTracker@CPlayerSystem@@QAEXVCContractTracker@@@Z
55EB40 ?Handle_Admin__Environs@CPlayerSystem@@QAEKJ@Z
55F0D0 ?AddRef@CPlayerSystem@@UBEKXZ
55F0E0 ?QueryInterface@CPlayerSystem@@UAE?AVTResult@@ABUTurbine_GUID@@PAPAX@Z
55F1B0 ?RecvNotice_ServerSaysAttemptFailed@CPlayerSystem@@UAEXK@Z
55F210 ?Handle_Character__EnterGame_ServerReady@CPlayerSystem@@QAEKXZ
55F240 ??1CInvSlotModule@@QAE@XZ
55F410 ?OnBeginCharacterSession@CPlayerSystem@@MAEXXZ
55F420 ?Pack@?$PackableList@VInventoryPlacement@@@@UAEIAAPAXI@Z
55F470 ?insert@?$List@VObjectRangeInfo@@@@IAE_NPAV?$ListNode@VObjectRangeInfo@@@@ABVObjectRangeInfo@@@Z
55F4F0 ?_QueryInterface@?$InterfacePtr@VInterface@@@@AAE?AVTResult@@PAVCPlayerModule@@@Z
55F580 ?set@?$PStringBase@G@AC1Legacy@@QAEXPBG@Z
55F620 ?Handle_CharGenVerificationResponse@CPlayerSystem@@QAEXPAXI@Z
55F870 ?UpdateSpellComponent@CPlayerSystem@@QAE?AW4ComponentTrackerUpdate@@PAVACCWeenieObject@@H@Z
55F900 ?UnregisterObjectRangeHandler@CPlayerSystem@@QAEXPAVObjectRangeHandler@@K@Z
55F930 ?UnregisterAllObjectRangeHandlers@CPlayerSystem@@QAEXPAVObjectRangeHandler@@@Z
55F960 ?remove@?$PackableHashTable@KVCContractTracker@@@@QAEHABKAAVCContractTracker@@@Z
55F9F0 ?remove@?$List@VObjectRangeInfo@@@@IAE_NPAV?$ListNode@VObjectRangeInfo@@@@@Z
55FA60 ?OnShutdown@CPlayerSystem@@MAEXXZ
55FAD0 ?AutoWieldIsLegal@CPlayerSystem@@QAE_NKH@Z
55FCB0 ?AutoWearIsLegal@CPlayerSystem@@QAE_NKAAHH@Z
55FE30 ?UpdateContractTrackerTable@CPlayerSystem@@QAEXABVCContractTrackerTable@@@Z
55FF00 ?UpdateContractTracker@CPlayerSystem@@QAEXVCContractTracker@@H@Z
55FFE0 ?flush@?$List@VObjectRangeInfo@@@@QAEXXZ
560020 ??1CContractTrackerTable@@UAE@XZ
560070 ??_ECContractTrackerTable@@UAEPAXI@Z
5600D0 ?CalculateObjectRangeChecks@CPlayerSystem@@QAEXXZ
5601D0 ?RecvNotice_ItemAttributesChanged@CPlayerSystem@@UAEXKK@Z
560280 ?OnLoadChanged@CPlayerSystem@@QAE_NXZ
560440 ?Handle_Login__CharacterSet@CPlayerSystem@@QAEXPAXI@Z
5605A0 ?DeleteCharacter@CPlayerSystem@@QAEXK@Z
560600 ?LogOnCharacter@CPlayerSystem@@QAE_NK@Z
560710 ?SelectNext@CPlayerSystem@@QAEX_N0W4UI_SELECTION_TYPE@@0@Z
560CE0 ?ObjectIsWithinRadarRange@CPlayerSystem@@QAE_NK@Z
560E00 ?InqPlayerCoords@CPlayerSystem@@QAE_NAAN0@Z
560F30 ?AutoWear@CPlayerSystem@@QAE_NKAAHH@Z
560F80 ?IsOlthoi@CPlayerSystem@@SAHXZ
561040 ?RegisterObjectRangeHandler@CPlayerSystem@@QAEXPAVObjectRangeHandler@@KN_N1NN@Z
5610F0 ?UnPack@?$PackableList@VInventoryPlacement@@@@UAEHAAPAXI@Z
561180 ??_G?$PackableList@VInventoryPlacement@@@@UAEPAXI@Z
5611B0 ??_E?$List@VObjectRangeInfo@@@@UAEPAXI@Z
5611E0 ??0CPlayerSystem@@QAE@XZ
561400 ?Release@CPlayerSystem@@UBEKXZ
561430 ?End@CPlayerSystem@@IAEXXZ
561490 ?RecvNotice_SetSelectedItem@CPlayerSystem@@UAEXKK@Z
5615D0 ?RecvNotice_EnchantmentsChanged@CPlayerSystem@@UAEXXZ
5615E0 ?OnObjectRangeExit@CPlayerSystem@@UAEXK@Z
561660 ?OnQualityRemoved@CPlayerSystem@@MAEXPAVCWeenieObject@@W4StatType@@K@Z
561670 ?SendQueryPluginData@CPlayerSystem@@IAEXK@Z
561710 ?AutoSort@CPlayerSystem@@QAE_NKHH@Z
5617D0 ?AutoWield@CPlayerSystem@@QAE_NKW4UI_SLOT_SIDE@@HHHH@Z
562600 ?OnAction@CPlayerSystem@@MAE_NABVInputEvent@@@Z
563610 ?OnEndCharacterSession@CPlayerSystem@@MAEXXZ
563660 ??1CPlayerSystem@@MAE@XZ
563810 ?Handle_AccountBooted@CPlayerSystem@@QAEXPAXI@Z
563970 ?Handle_AccountBanned@CPlayerSystem@@QAEXPAXI@Z
563B70 ?RequestLogOff@CPlayerSystem@@QAEXXZ
563C30 ?SendLoginCompleteNotification@CPlayerSystem@@QAEXXZ
563CC0 ?AttemptSendLoginCompleteNotification@CPlayerSystem@@QAEXXZ
563D10 ?UsingItem@CPlayerSystem@@QAE_NKHH@Z
563E80 ??_GCPlayerSystem@@MAEPAXI@Z
563EB0 ?UseTime@CPlayerSystem@@MAEXXZ
564000 ?RecvNotice_ServerSaysMoveItem@CPlayerSystem@@UAEXKKKKKHKK@Z
5642C0 ?LogOffCharacter@CPlayerSystem@@QAEX_N@Z
564310 ?InitializePlayer@CPlayerSystem@@QAEXXZ
564440 ?Handle_PlayerDescription@CPlayerSystem@@QAEXPAXI@Z
564660 ??0ClientCharGenState@@QAE@XZ
5646B0 ?GetRandomInt@CharGenState@@MBEHH@Z
5646C0 ?GetRandomInt@CharGenState@@MBEHHH@Z
5646E0 ?GetRandomReal@CharGenState@@MBENXZ
564700 ??1ClientCharGenState@@QAE@XZ
564730 ?GetColorFromPal@ClientCharGenState@@QAEKV?$IDClass@U_tagDataID@@$0CA@$0A@@@H@Z
5647C0 ?UpdateTrueFacePal@ClientCharGenState@@UAEXXZ
5649F0 ?AddTextToScroll@ClientSystem@@QAEXABV?$PStringBase@G@@K_NK@Z
564D30 ?GetUISystem@ClientUISystem@@SAPAV1@XZ
564D40 ?OnStartup@ClientUISystem@@MAEXXZ
564D50 ?GetUISoundTable@ClientUISystem@@QAEPBVCSoundTable@@XZ
564D80 ?Handle_Item__QueryItemManaResponse@ClientUISystem@@QAEKKMH@Z
564DB0 ?AttemptSellToVendor@ClientUISystem@@QAEXKK@Z
564E10 ?CloseVendor@ClientUISystem@@QAEX_N@Z
564E30 ?Handle_Character__ReturnPing@ClientUISystem@@QAEKXZ
564E40 ?Handle_Character__ConfirmationRequest@ClientUISystem@@QAEKJKABV?$PStringBase@D@AC1Legacy@@@Z
564F20 ?Handle_Character__ConfirmationDone@ClientUISystem@@QAEKJK@Z
564F40 ?Handle_Login__WorldInfo@ClientUISystem@@QAEKJJABV?$PStringBase@D@AC1Legacy@@@Z
564F60 ?InitializeCameraSet@ClientUISystem@@QAEXPAVSmartBox@@@Z
564F90 ?AccessCameraSet@ClientUISystem@@QAEPAVCameraSet@@XZ
564FA0 ?RecvNotice_ToggleChatEntry@ClientUISystem@@MAEX_N@Z
564FC0 ?Handle_Social__FriendsUpdate@ClientUISystem@@QAEKABVFriendDataList@@J@Z
564FE0 ?Handle_Social__CharacterTitleTable@ClientUISystem@@QAEKABVCharacterTitleTable@@@Z
565000 ?Handle_Social__AddOrSetCharacterTitle@ClientUISystem@@QAEKKH@Z
565030 ?Handle_Social__SendClientContractTrackerTable@ClientUISystem@@QAEKABVCContractTrackerTable@@@Z
565050 ?Handle_Character__StartBarber@ClientUISystem@@QAEKV?$IDClass@U_tagDataID@@$0CA@$0A@@@0000000000000JJ@Z
5650B0 ??1ClientUISystem@@MAE@XZ
565140 ?Release@ClientUISystem@@UBEKXZ
565170 ?OnShutdown@ClientUISystem@@MAEXXZ
5651E0 ?QueryInterface@ClientUISystem@@UAE?AVTResult@@ABUTurbine_GUID@@PAPAX@Z
5652B0 ?SetGroundObject@ClientUISystem@@QAEXK_N@Z
565380 ?OnBeginCharacterSession@ClientUISystem@@MAEXXZ
5653D0 ?UpdateCursorState@ClientUISystem@@QAEXXZ
5654F0 ?Handle_Social__SendClientContractTracker@ClientUISystem@@QAEKABVCContractTracker@@HH@Z
565540 ??0ClientUISystem@@QAE@XZ
5655E0 ??_GClientUISystem@@MAEPAXI@Z
565610 ?IncrementBusyCount@ClientUISystem@@QAEXXZ
565630 ?DecrementBusyCount@ClientUISystem@@QAEXXZ
565640 ?CleanUpGameUI@ClientUISystem@@QAEXXZ
5656A0 ?Handle_Item__UseDone@ClientUISystem@@QAEKK@Z
5656E0 ?SetTargetMode@ClientUISystem@@QAEXW4Target_Mode@@@Z
565750 ?UseObject@ClientUISystem@@QAEXK@Z
5657B0 ?ExamineObject@ClientUISystem@@QAEXK@Z
565810 ?ExamineSpell@ClientUISystem@@QAEXK@Z
565870 ?OnEndCharacterSession@ClientUISystem@@MAEXXZ
5658D0 ?ExecuteTargetModeForItem@ClientUISystem@@QAEXKW4Target_Mode@@@Z
565910 ?ExecuteTargetModeForSpell@ClientUISystem@@QAEXKW4Target_Mode@@@Z
565930 ?OnAction@ClientUISystem@@MAE_NABVInputEvent@@@Z
565CD0 ?Handle_Misc__PortalStormSubsided@ClientUISystem@@QAEKXZ
565D70 ?Handle_Misc__PortalStormBrewing@ClientUISystem@@QAEKM@Z
565E40 ?Handle_Misc__PortalStormImminent@ClientUISystem@@QAEKM@Z
565F10 ?Handle_Misc__PortalStorm@ClientUISystem@@QAEKXZ
565F90 ?UseTime@ClientUISystem@@MAEXXZ
5660A0 ?GenerateMaterialsSalvagedString@@YA?AV?$PStringBase@D@@PBV?$PackableList@VSalvageResult@@@@@Z
566220 ?GenerateNonSuitablesString@@YA?AV?$PStringBase@G@@PBV?$PackableList@K@@@Z
5663C0 ?Handle_Inventory__Recv_SalvageOperationsResultData@ClientUISystem@@QAEKABVSalvageOperationsResultData@@@Z
566610 ?OnViewContents@ClientUISystem@@QAEXKAAV?$PackableList@VContentProfile@@@@@Z
566700 ?TargetedUsageCallback@ClientUISystem@@SAXABVPropertyCollection@@@Z
5668C0 ?UsageCallback@ClientUISystem@@SAXABVPropertyCollection@@@Z
566AB0 ?Handle_VendorInfo@ClientUISystem@@QAEXPAXI@Z
566BB0 ?DeltaTimeToString@ClientUISystem@@SA_NNAAV?$PStringBase@G@@@Z
566D10 ?replace@?$PStringBase@D@AC1Legacy@@QAEJABV12@0@Z
566EE0 ?TargetedUsageConfirmation_ManaStone@ClientUISystem@@QAE_NKK@Z
5671C0 ?UsageConfirmation_PKAltar@ClientUISystem@@QAE_NK@Z
5673B0 ?UsageConfirmation_NPKAltar@ClientUISystem@@QAE_NK@Z
5675A0 ?UsageConfirmation_VolatileRare@ClientUISystem@@QAE_NK@Z
567790 ?TargetedUsageConfirmation_Salvage@ClientUISystem@@QAE_NKK@Z
567C00 ?GetMagicSystem@ClientMagicSystem@@SAPAV1@XZ
567C10 ?GetSpellComponentTable@ClientMagicSystem@@QAEPAVSpellComponentTable@@XZ
567C40 ?OnShutdown@ClientMagicSystem@@MAEXXZ
567C90 ?FreeHandsAndCastSpell@ClientMagicSystem@@QAEXKK@Z
567CF0 ?OnEndCharacterSession@ClientMagicSystem@@MAEXXZ
567D00 ?QueryInterface@ClientMagicSystem@@UAE?AVTResult@@ABUTurbine_GUID@@PAPAX@Z
567DD0 ??_E?$IntrusiveHashTable@KPAV?$HashTableData@KPAVGraphic@@@@$00@@UAEPAXI@Z
567E10 ??_E?$IntrusiveHashTable@V?$IDClass@U_tagDataID@@$0CA@$0A@@@PAV?$HashTableData@V?$IDClass@U_tagDataID@@$0CA@$0A@@@PAVGraphic@@@@$00@@UAEPAXI@Z
567E50 ?InqSpellBase@CSpellTable@@QBEHKAAVCSpellBase@@@Z
567EB0 ?InqSpellBase@ClientMagicSystem@@QAE_NKAAVCSpellBase@@@Z
567EF0 ?GetSpellName@ClientMagicSystem@@QAE?AV?$PStringBase@D@AC1Legacy@@K@Z
567F60 ?GetSpellDescription@ClientMagicSystem@@QAE?AV?$PStringBase@D@AC1Legacy@@K@Z
567FD0 ?ObjectCompatibleWithSpellTargetType@ClientMagicSystem@@SA_NKK_N@Z
5682F0 ?CompositeSpellIcon@ClientMagicSystem@@QAEXKPAVGraphic@@@Z
5684C0 ?CompositeSpellComponentIcon@ClientMagicSystem@@QAEXV?$IDClass@U_tagDataID@@$0CA@$0A@@@PAVGraphic@@@Z
568590 ?Handle_Magic__UpdateSpell@ClientMagicSystem@@QAEKK@Z
568630 ?Handle_Magic__RemoveSpell@ClientMagicSystem@@QAEKK@Z
5686D0 ?Handle_Magic__UpdateEnchantment@ClientMagicSystem@@QAEKABVEnchantment@@@Z
568780 ?Handle_Magic__UpdateMultipleEnchantments@ClientMagicSystem@@QAEKAAV?$PackableList@VEnchantment@@@@@Z
568810 ?Handle_Magic__PurgeEnchantments@ClientMagicSystem@@QAEKXZ
5688A0 ?Handle_Magic__PurgeBadEnchantments@ClientMagicSystem@@QAEKXZ
568930 ?AreSpellComponentsRequired@ClientMagicSystem@@QBE_NXZ
5689D0 ?ObjectCompatibleWithSpell@ClientMagicSystem@@SA_NKK_N0@Z
568AF0 ?GetAppropriateSpellFormula@ClientMagicSystem@@SA?AVSpellFormula@@ABVCSpellBase@@@Z
568D40 ?grow@?$IntrusiveHashTable@KPAV?$HashTableData@KPAVGraphic@@@@$00@@QAE_NXZ
568D90 ?grow@?$IntrusiveHashTable@V?$IDClass@U_tagDataID@@$0CA@$0A@@@PAV?$HashTableData@V?$IDClass@U_tagDataID@@$0CA@$0A@@@PAVGraphic@@@@$00@@QAE_NXZ
568DE0 ?CastSpell@ClientMagicSystem@@SAXK_N@Z
5690C0 ??0?$IntrusiveHashTable@KPAV?$HashTableData@KPAVGraphic@@@@$00@@QAE@I@Z
569150 ??0?$IntrusiveHashTable@V?$IDClass@U_tagDataID@@$0CA@$0A@@@PAV?$HashTableData@V?$IDClass@U_tagDataID@@$0CA@$0A@@@PAVGraphic@@@@$00@@QAE@I@Z
5691E0 ?resize_internal@?$IntrusiveHashTable@KPAV?$HashTableData@KPAVGraphic@@@@$00@@IAE_NK@Z
569320 ?resize_internal@?$IntrusiveHashTable@V?$IDClass@U_tagDataID@@$0CA@$0A@@@PAV?$HashTableData@V?$IDClass@U_tagDataID@@$0CA@$0A@@@PAVGraphic@@@@$00@@IAE_NK@Z
569460 ?NotifyOfEnchantmentRemoval@ClientMagicSystem@@IAE_NK@Z
5695F0 ?add@?$IntrusiveHashTable@KPAV?$HashTableData@KPAVGraphic@@@@$00@@QAE_NPAV?$HashTableData@KPAVGraphic@@@@@Z
569670 ?add@?$IntrusiveHashTable@V?$IDClass@U_tagDataID@@$0CA@$0A@@@PAV?$HashTableData@V?$IDClass@U_tagDataID@@$0CA@$0A@@@PAVGraphic@@@@$00@@QAE_NPAV?$HashTableData@V?$IDClass@U_tagDataID@@$0CA@$0A@@@PAVGraphic@@@@@Z
5696F0 ?Handle_Magic__RemoveEnchantment@ClientMagicSystem@@QAEKK_N@Z
5697D0 ?Handle_Magic__RemoveMultipleEnchantments@ClientMagicSystem@@QAEKAAV?$PackableList@K@@_N@Z
5698B0 ?Handle_Magic__DispelEnchantment@ClientMagicSystem@@QAEKK@Z
5698C0 ?Handle_Magic__DispelMultipleEnchantments@ClientMagicSystem@@QAEKAAV?$PackableList@K@@@Z
5698D0 ?add@?$HashTable@KPAVGraphic@@$00@@QAE_NABKABQAVGraphic@@@Z
569930 ?add@?$HashTable@V?$IDClass@U_tagDataID@@$0CA@$0A@@@PAVGraphic@@$00@@QAE_NABV?$IDClass@U_tagDataID@@$0CA@$0A@@@ABQAVGraphic@@@Z
569990 ?GetSpellIcon@ClientMagicSystem@@QAEPAVGraphic@@K@Z
569A50 ?GetSpellComponentIcon@ClientMagicSystem@@QAEPAVGraphic@@V?$IDClass@U_tagDataID@@$0CA@$0A@@@@Z
569B10 ??_E?$HashTable@KPAVGraphic@@$00@@UAEPAXI@Z
569B70 ??_E?$HashTable@V?$IDClass@U_tagDataID@@$0CA@$0A@@@PAVGraphic@@$00@@UAEPAXI@Z
569BD0 ??0ClientMagicSystem@@QAE@XZ
569C40 ??1ClientMagicSystem@@IAE@XZ
569DD0 ?Release@ClientMagicSystem@@UBEKXZ
569E00 ??1ClientFellowshipSystem@@IAE@XZ
569E30 ?GetFellowshipSystem@ClientFellowshipSystem@@SAPAV1@XZ
569E40 ?OnEndCharacterSession@ClientFellowshipSystem@@MAEXXZ
569E60 ?Handle_Fellowship__UpdateFellow@ClientFellowshipSystem@@QAEKKABVFellow@@K@Z
569ED0 ?IsFellow@ClientFellowshipSystem@@QAE_NK@Z
569EF0 ?IsFellowshipLeader@ClientFellowshipSystem@@QAE_NK@Z
569F10 ?QueryInterface@ClientFellowshipSystem@@UAE?AVTResult@@ABUTurbine_GUID@@PAPAX@Z
569FE0 ?Release@ClientFellowshipSystem@@UBEKXZ
56A010 ??0ClientFellowshipSystem@@QAE@XZ
56A050 ?Pack@?$PackableHashTable@KJ@@UAEIAAPAXI@Z
56A0E0 ?pack_size@?$PackableHashTable@KH@@QAEIXZ
56A110 ??_E?$PackableHashTable@KJ@@UAEPAXI@Z
56A160 ?Handle_Fellowship__FullUpdate@ClientFellowshipSystem@@QAEKABVCFellowship@@@Z
56A290 ?SelectNextFellow@ClientFellowshipSystem@@QAEXXZ
56A360 ?SelectPreviousFellow@ClientFellowshipSystem@@QAEXXZ
56A410 ?UnPack@?$PackableHashTable@KJ@@UAEHAAPAXI@Z
56A530 ?add@?$PackableHashTable@KVFellow@@@@QAEHABKABVFellow@@@Z
56A5D0 ??4?$PackableHashTable@KV?$IDClass@U_tagDataID@@$0CA@$0A@@@@@QAEAAV0@ABV0@@Z
56A650 ??_G?$PackableHashData@KVFellow@@@@QAEPAXI@Z
56A6A0 ?EmptyContents@?$PackableHashTable@KVFellow@@@@QAEXXZ
56A740 ?Pack@?$PackableHashTable@KVFellow@@@@UAEIAAPAXI@Z
56A7D0 ?pack_size@?$PackableHashTable@KVFellow@@@@QAEIXZ
56A830 ?UnPack@?$PackableHashTable@KVFellow@@@@UAEHAAPAXI@Z
56A970 ??_G?$PackableHashTable@KVFellow@@@@UAEPAXI@Z
56A9C0 ??4?$PackableHashTable@KVFellow@@@@QAEAAV0@ABV0@@Z
56AA40 ??1Fellowship@@UAE@XZ
56AAD0 ??0Fellowship@@QAE@ABV0@@Z
56AB50 ?DeleteFellowship@ClientFellowshipSystem@@IAEXXZ
56ABF0 ?OnShutdown@ClientFellowshipSystem@@MAEXXZ
56AC10 ?Handle_Fellowship__Disband@ClientFellowshipSystem@@QAEKXZ
56AC30 ?Handle_Fellowship__Quit@ClientFellowshipSystem@@QAEKK@Z
56ACB0 ?Handle_Fellowship__Dismiss@ClientFellowshipSystem@@QAEKK@Z
56AD30 ?GetAllegianceSystem@ClientAllegianceSystem@@SAPAV1@XZ
56AD40 ?OnEndCharacterSession@ClientAllegianceSystem@@MAEXXZ
56AD50 ?OnShutdown@ClientAllegianceSystem@@MAEXXZ
56AD70 ?Handle_Allegiance__AllegianceUpdateAborted@ClientAllegianceSystem@@QAEKK@Z
56AD90 ?Handle_Allegiance__AllegianceLoginNotificationEvent@ClientAllegianceSystem@@QAEKKH@Z
56ADB0 ??1ClientAllegianceSystem@@IAE@XZ
56ADF0 ?QueryInterface@ClientAllegianceSystem@@UAE?AVTResult@@ABUTurbine_GUID@@PAPAX@Z
56AEC0 ?Handle_Allegiance__AllegianceUpdate@ClientAllegianceSystem@@QAEKABVCAllegianceProfile@@K@Z
56AEF0 ??0ClientAllegianceSystem@@QAE@XZ
56AF40 ?Release@ClientAllegianceSystem@@UBEKXZ
56AF70 ?Handle_Allegiance__AllegianceInfoResponseEvent@ClientAllegianceSystem@@QAEKKABVCAllegianceProfile@@@Z
56B1A0 ?Begin@ClientCombatSystem@@IAEXXZ
56B210 ?GetCombatSystem@ClientCombatSystem@@SAPAV1@XZ
56B220 ?OnStartup@ClientCombatSystem@@MAEXXZ
56B250 ?OnShutdown@ClientCombatSystem@@MAEXXZ
56B2A0 ?Handle_Combat__QueryHealthResponse@ClientCombatSystem@@QAEKKM@Z
56B2C0 ?CompatibleCombatMode@ClientCombatSystem@@QAE_NW4COMBAT_MODE@@@Z
56B340 ?ObjectIsAttackable@ClientCombatSystem@@QAE_NK@Z
56B420 ?HandleMagicAction@ClientCombatSystem@@IAE_NABVInputEvent@@@Z
56B4BA def_56B445
56B4C0 jpt_56B445
56B5A0 ?RepeatAttackInProgress@ClientCombatSystem@@QAE_NXZ
56B5D0 ?SetPowerBarLevel@ClientCombatSystem@@IAEXM@Z
56B5F0 ?HidePowerBar@ClientCombatSystem@@IAEXXZ
56B630 ?GetAttackTarget@ClientCombatSystem@@QAEKXZ
56B690 ?UpdateTargetTracking@ClientCombatSystem@@IAEXXZ
56B6F0 ?FinishJump@ClientCombatSystem@@QAEXXZ
56B760 ?RegisterInputMaps@ClientCombatSystem@@IAEXW4COMBAT_MODE@@0@Z
56B8A0 ?Get@CombatManeuverTable@@SAPAV1@V?$IDClass@U_tagDataID@@$0CA@$0A@@@@Z
56B8C0 ??1ClientCombatSystem@@MAE@XZ
56B950 ?AddRef@ClientObjMaintSystem@@UBEKXZ
56B960 ?Release@ClientCombatSystem@@UBEKXZ
56B990 ?QueryInterface@ClientCombatSystem@@UAE?AVTResult@@ABUTurbine_GUID@@PAPAX@Z
56BA60 ?HandleCommenceAttackEvent@ClientCombatSystem@@QAEXXZ
56BAF0 ?StartPowerBarBuild@ClientCombatSystem@@IAEXXZ
56BB20 ?GetPowerBarLevel@ClientCombatSystem@@IBEMXZ
56BBD0 ?AbortAutomaticAttack@ClientCombatSystem@@QAEXXZ
56BC10 ?TrackTarget@ClientCombatSystem@@QAEX_N@Z
56BC30 ?OnBeginCharacterSession@ClientCombatSystem@@MAEXXZ
56BC70 ?OnEndCharacterSession@ClientCombatSystem@@MAEXXZ
56BCD0 ?CommenceJump@ClientCombatSystem@@QAEXXZ
56BD90 ?GetJumpPowerLevel@ClientCombatSystem@@QBEMXZ
56BDD0 ??0ClientCombatSystem@@QAE@XZ
56BE20 ??_EClientCombatSystem@@MAEPAXI@Z
56BE50 ?DoJump@ClientCombatSystem@@QAEX_N@Z
56BFDF def_56BF3C
56BFEC jpt_56BF3C
56C050 ?GetDefaultCombatMode@ClientCombatSystem@@QAE?AW4COMBAT_MODE@@_N@Z
56C160 ?HandleAttackerNotificationEvent@ClientCombatSystem@@QAEXABV?$PStringBase@D@AC1Legacy@@W4DAMAGE_TYPE@@NJH_J@Z
56C570 ?PlayerInReadyPosition@ClientCombatSystem@@QAE_N_N@Z
56C850 ?AttemptStartBuildingAttack@ClientCombatSystem@@IAEXXZ
56C8C0 ?ExecuteAttack@ClientCombatSystem@@IAEXW4ATTACK_HEIGHT@@_N@Z
56C9D0 ?AutoTarget@ClientCombatSystem@@IAEXXZ
56CAD0 ?RecvNotice_SelectionChanged@ClientCombatSystem@@MAEXXZ
56CB80 ?SetCombatMode@ClientCombatSystem@@QAEXW4COMBAT_MODE@@_N@Z
56CD90 ?StartAttackRequest@ClientCombatSystem@@QAEXXZ
56CE30 ?EndAttackRequest@ClientCombatSystem@@QAEXW4ATTACK_HEIGHT@@M@Z
56CF00 ?OnQualityChanged@ClientCombatSystem@@MAEXPAVCWeenieObject@@W4StatType@@K@Z
56CF40 ?UseTime@ClientCombatSystem@@MAEXXZ
56D070 ?HandlePlayerDeathEvent@ClientCombatSystem@@QAEHPAXI@Z
56D160 ?HandleVictimNotificationEvent@ClientCombatSystem@@QAEHPAXI@Z
56D250 ?HandleAttackDoneEvent@ClientCombatSystem@@QAEXK@Z
56D370 ?HandleEvasionDefenderNotificationEvent@ClientCombatSystem@@QAEXABV?$PStringBase@D@AC1Legacy@@@Z
56D4F0 ?HandleEvasionAttackerNotificationEvent@ClientCombatSystem@@QAEXABV?$PStringBase@D@AC1Legacy@@@Z
56D610 ?ToggleCombatMode@ClientCombatSystem@@QAEXXZ
56D640 ?SetRequestedAttackHeight@ClientCombatSystem@@QAEXW4ATTACK_HEIGHT@@@Z
56D670 ?HandleDefenderNotificationEvent@ClientCombatSystem@@QAEXABV?$PStringBase@D@AC1Legacy@@W4DAMAGE_TYPE@@NJJH_J@Z
56E3B0 ?HandleCombatAction@ClientCombatSystem@@IAE_NABVInputEvent@@@Z
56E4DB def_56E3DD
56E4E4 jpt_56E3DD
56E594 jpt_56E4BB
56E640 ?OnAction@ClientCombatSystem@@MAE_NABVInputEvent@@@Z
56E6B0 ?GetTradeSystem@ClientTradeSystem@@SAPAV1@XZ
56E6C0 ?OnShutdown@ClientTradeSystem@@MAEXXZ
56E6E0 ?Handle_Trade__Recv_OpenTrade@ClientTradeSystem@@QAEKK@Z
56E700 ?Handle_Trade__Recv_ResetTrade@ClientTradeSystem@@QAEKK@Z
56E740 ?Handle_Trade__Recv_TradeFailure@ClientTradeSystem@@QAEKKK@Z
56E770 ?Handle_Trade__Recv_ClearTradeAcceptance@ClientTradeSystem@@QAEKXZ
56E780 ?AddItemToSelfTradeList@ClientTradeSystem@@QAEXKJ@Z
56E7A0 ?AcceptTrade@ClientTradeSystem@@QAEXXZ
56E7C0 ?DeclineTrade@ClientTradeSystem@@QAEXXZ
56E7D0 ?ResetTrade@ClientTradeSystem@@QAEXXZ
56E7E0 ?CloseTradeNegotiations@ClientTradeSystem@@QAEXXZ
56E7F0 ?GetNumSelfObjectsInTrade@ClientTradeSystem@@QBEKXZ
56E810 ?GetNumPartnerObjectsInTrade@ClientTradeSystem@@QBEKXZ
56E830 ?IsPartnerTradingItem@ClientTradeSystem@@QAE_NK@Z
56E850 ?OnEndCharacterSession@ClientTradeSystem@@MAEXXZ
56E8A0 ??1ClientTradeSystem@@IAE@XZ
56E8E0 ?QueryInterface@ClientTradeSystem@@UAE?AVTResult@@ABUTurbine_GUID@@PAPAX@Z
56E9B0 ?Handle_Trade__Recv_RemoveFromTrade@ClientTradeSystem@@QAEKKK@Z
56E9F0 ?Handle_Trade__Recv_AcceptTrade@ClientTradeSystem@@QAEKK@Z
56EA90 ?Handle_Trade__Recv_DeclineTrade@ClientTradeSystem@@QAEKK@Z
56EB10 ??0ClientTradeSystem@@QAE@XZ
56EB80 ?GetItemLocationInPartnerTradeList@ClientTradeSystem@@QAEJK@Z
56EBB0 ?Release@ClientTradeSystem@@UBEKXZ
56EBE0 ?Handle_Trade__Recv_CloseTrade@ClientTradeSystem@@QAEKK@Z
56EC90 ?AttemptToOpenTradeNegotiations@ClientTradeSystem@@QAE_NK@Z
56ED30 ?AttemptToTradeItem@ClientTradeSystem@@QAEXKK@Z
56EE00 ?Handle_Trade__Recv_RegisterTrade@ClientTradeSystem@@QAEKKKN@Z
56EEB0 ?AddPartnerItem@ClientTradeSystem@@IAE_NKK@Z
56EF90 ?Handle_Trade__Recv_AddToTrade@ClientTradeSystem@@QAEKKKK@Z
56EFF0 ?NotifyServerThatTradeIsOutOfSync@ClientTradeSystem@@QAEXXZ
56F040 ?SpellComponentCategoryFromString@MagicEnumMapper@@SAHQBDAAW4SpellComponentCategory@@@Z
56F230 ?GetCommunicationSystem@ClientCommunicationSystem@@SAPAV1@XZ
56F240 ClientCommunicationSystem::OnBeginCharacterSession
56F270 ClientCommunicationSystem::OnEndCharacterSession
56F2A0 ?Handle_Communication__Recv_ChatRoomTracker@ClientCommunicationSystem@@QAEKABVChatRoomTracker@@@Z
56F300 ?Handle_Communication__HearRangedSpeech@ClientCommunicationSystem@@QAEKABV?$PStringBase@D@AC1Legacy@@0KMK@Z
56F330 ClientCommunicationSystem::IsMessageSpam
56F380 ?HelpMessageTypes@ClientCommunicationSystem@@IAE_NW4HelpType@1@PBDAAV?$PStringBase@D@@@Z
56F3A0 ?DoBirth@ClientCommunicationSystem@@IAE_NHPAPAD@Z
56F3B0 ClientCommunicationSystem::DoClear
56F3F0 ClientCommunicationSystem::DoChannelIndex
56F400 ClientCommunicationSystem::EnableChatTalkFocuses
56F510 ?FindSubStringIter@?$PStringBaseIter_Common@D@@KA_NPBD0@Z
56F560 ?AddRef@ClientUISystem@@UBEKXZ
56F570 ?QueryInterface@ClientCommunicationSystem@@UAE?AVTResult@@ABUTurbine_GUID@@PAPAX@Z
56F640 ?RecvNotice_DisplayStringInfo@ClientCommunicationSystem@@UAEXKABVStringInfo@@@Z
56F690 ?RecvNotice_PlayerDescReceived@ClientCommunicationSystem@@UAEXABVCACQualities@@ABVCPlayerModule@@@Z
56F6A0 ?RecvNotice_PlayerOptionChanged@ClientCommunicationSystem@@UAEXW4PlayerOption@@@Z
56F6D0 ??_E?$IntrusiveHashTable@V?$CaseInsensitiveStringBase@V?$PStringBase@D@@@@PAVCmdHashData@ClientCommunicationSystem@@$00@@UAEPAXI@Z
56F710 ?FindSubString@?$PStringBaseIter_Common@D@@QAE_NABV?$PStringBase@D@@_N@Z
56F7F0 ?is_int32@PSUtils@@YA_NV?$PStringBase@D@@@Z
56F860 ??1ClientCommunicationSystem@@IAE@XZ
56F940 ?Handle_Communication__SetSquelchDB@ClientCommunicationSystem@@QAEKABVSquelchDB@@@Z
56F9A0 ?trim@?$PStringBase@D@AC1Legacy@@QAEXHHV12@@Z
56FAE0 ??0CmdHashData@ClientCommunicationSystem@@QAE@ABV?$CaseInsensitiveStringBase@V?$PStringBase@D@@@@P81@AE_NHPAPAD@ZP81@AE_NW4HelpType@1@PBDAAV?$PStringBase@D@@@Z@Z
56FB20 ?IsMessageSafe@ClientCommunicationSystem@@QBEHABV?$PStringBase@D@@@Z
56FC60 ?NextArg@@YA?AV?$PStringBase@D@@AAHAAPAPAD@Z
56FCE0 ?DoAllegianceHometown@ClientCommunicationSystem@@IAE_NHPAPAD@Z
56FD40 ?DoAllegianceHouse@ClientCommunicationSystem@@IAE_NHPAPAD@Z
570060 ?HelpStupidChannelHack@ClientCommunicationSystem@@IAE_NW4HelpType@1@PBDAAV?$PStringBase@D@@@Z
5702E0 ?DoJoinChat@ClientCommunicationSystem@@IAE_NHPAPAD@Z
5705C0 ?DoLeaveChat@ClientCommunicationSystem@@IAE_NHPAPAD@Z
5708A0 ?DoChatToggle@ClientCommunicationSystem@@IAE_NHPAPAD@Z
5709A0 ?DoNoTell@ClientCommunicationSystem@@IAE_NHPAPAD@Z
570A40 ?DoLifestone@ClientCommunicationSystem@@IAE_NHPAPAD@Z
570AB0 ?DoMarketplace@ClientCommunicationSystem@@IAE_NHPAPAD@Z
570B20 ?DoFillComponents@ClientCommunicationSystem@@IAE_NHPAPAD@Z
570DC0 ?DoSaveUI@ClientCommunicationSystem@@IAE_NHPAPAD@Z
570F20 ?DoLoadUI@ClientCommunicationSystem@@IAE_NHPAPAD@Z
571080 ?DoSaveAutoUI@ClientCommunicationSystem@@IAE_NHPAPAD@Z
571100 ?DoLoadAutoUI@ClientCommunicationSystem@@IAE_NHPAPAD@Z
571180 ?DoLockUI@ClientCommunicationSystem@@IAE_NHPAPAD@Z
571220 ?DoHouseRecall@ClientCommunicationSystem@@IAE_NHPAPAD@Z
571280 ?DoMansionRecall@ClientCommunicationSystem@@IAE_NHPAPAD@Z
5712E0 ?DoHouseAvailableList@ClientCommunicationSystem@@IAE_NHPAPAD@Z
5714C0 ?DoDay@ClientCommunicationSystem@@IAE_NHPAPAD@Z
5715A0 ?DoFrameRate@ClientCommunicationSystem@@IAE_NHPAPAD@Z
571620 ?FindAllWords@PSUtils@@YAKV?$PStringBase@D@@0AAV?$List@V?$PStringBase@D@@@@@Z
571870 ?Release@ClientCommunicationSystem@@UBEKXZ
5718A0 ?InqChatPoseCommand@ChatPoseTable@@QAEHABV?$PStringBase@D@AC1Legacy@@AAV23@11@Z
571960 ?Handle_Communication__ChannelBroadcast@ClientCommunicationSystem@@QAEKKABV?$PStringBase@D@AC1Legacy@@0@Z
571FA0 ClientCommunicationSystem::Handle_Character__QueryAgeResponse
572070 ?Handle_Communication__HearSpeech@ClientCommunicationSystem@@QAEKABV?$PStringBase@D@AC1Legacy@@0KK@Z
572370 ?Handle_Communication__HearDirectSpeech@ClientCommunicationSystem@@QAEKABV?$PStringBase@D@AC1Legacy@@AAV23@KKKK@Z
572760 ?HandleFailureEvent@ClientCommunicationSystem@@QAEXKABV?$PStringBase@G@@@Z
576890 ?JoinArgs@@YA?AV?$PStringBase@D@@HPAPAD@Z
5769E0 ?JoinArgsAsName@@YA?AV?$PStringBase@D@@HPAPAD@Z
576A80 ?DoAllegianceChat@ClientCommunicationSystem@@IAE_NHPAPAD@Z
576FC0 ?DoAllegianceBroadcast@ClientCommunicationSystem@@IAE_NHPAPAD@Z
577070 ?DoAllegianceBan@ClientCommunicationSystem@@IAE_NHPAPAD@Z
577330 ?DoAllegianceInfo@ClientCommunicationSystem@@IAE_NHPAPAD@Z
577420 ?DoAllegianceOfficer@ClientCommunicationSystem@@IAE_NHPAPAD@Z
5777E0 ?DoAllegianceOfficerTitle@ClientCommunicationSystem@@IAE_NHPAPAD@Z
577A50 ?DoAllegianceName@ClientCommunicationSystem@@IAE_NHPAPAD@Z
577C40 ?DoAllegianceLock@ClientCommunicationSystem@@IAE_NHPAPAD@Z
577F20 ?DoMotd@ClientCommunicationSystem@@IAE_NHPAPAD@Z
578100 ?HelpMotd@ClientCommunicationSystem@@IAE_NW4HelpType@1@PBDAAV?$PStringBase@D@@@Z
578160 ?HelpSpeaker@ClientCommunicationSystem@@IAE_NW4HelpType@1@PBDAAV?$PStringBase@D@@@Z
5781B0 ?HelpChannelsGroup@ClientCommunicationSystem@@IAE_NW4HelpType@1@PBDAAV?$PStringBase@D@@@Z
578270 ?DoChannelCommand@ClientCommunicationSystem@@IAE_NHPAPAD@Z
578350 ?HelpJoinChat@ClientCommunicationSystem@@IAE_NW4HelpType@1@PBDAAV?$PStringBase@D@@@Z
5783A0 ?HelpLeaveChat@ClientCommunicationSystem@@IAE_NW4HelpType@1@PBDAAV?$PStringBase@D@@@Z
5783F0 ?HelpTurbineChat_Allegiance@ClientCommunicationSystem@@IAE_NW4HelpType@1@PBDAAV?$PStringBase@D@@@Z
578440 ?HelpTurbineChat_General@ClientCommunicationSystem@@IAE_NW4HelpType@1@PBDAAV?$PStringBase@D@@@Z
578490 ?HelpTurbineChat_Trade@ClientCommunicationSystem@@IAE_NW4HelpType@1@PBDAAV?$PStringBase@D@@@Z
5784E0 ?HelpTurbineChat_LFG@ClientCommunicationSystem@@IAE_NW4HelpType@1@PBDAAV?$PStringBase@D@@@Z
578530 ?HelpTurbineChat_Roleplay@ClientCommunicationSystem@@IAE_NW4HelpType@1@PBDAAV?$PStringBase@D@@@Z
578580 ?HelpTurbineChat_Olthoi@ClientCommunicationSystem@@IAE_NW4HelpType@1@PBDAAV?$PStringBase@D@@@Z
5785D0 ?HelpTurbineChat_Society@ClientCommunicationSystem@@IAE_NW4HelpType@1@PBDAAV?$PStringBase@D@@@Z
578620 ?HelpChatToggle@ClientCommunicationSystem@@IAE_NW4HelpType@1@PBDAAV?$PStringBase@D@@@Z
578680 ?HelpNoTell@ClientCommunicationSystem@@IAE_NW4HelpType@1@PBDAAV?$PStringBase@D@@@Z
5786E0 ?DoReply@ClientCommunicationSystem@@IAE_NHPAPAD@Z
578820 ?HelpReply@ClientCommunicationSystem@@IAE_NW4HelpType@1@PBDAAV?$PStringBase@D@@@Z
5789A0 ?DoReTell@ClientCommunicationSystem@@IAE_NHPAPAD@Z
578B50 ?HelpReTell@ClientCommunicationSystem@@IAE_NW4HelpType@1@PBDAAV?$PStringBase@D@@@Z
578BB0 ?HelpSay@ClientCommunicationSystem@@IAE_NW4HelpType@1@PBDAAV?$PStringBase@D@@@Z
578C10 ?DoTell@ClientCommunicationSystem@@IAE_NHPAPAD@Z
578DD0 ?HelpTell@ClientCommunicationSystem@@IAE_NW4HelpType@1@PBDAAV?$PStringBase@D@@@Z
578E30 ?HelpAFK@ClientCommunicationSystem@@IAE_NW4HelpType@1@PBDAAV?$PStringBase@D@@@Z
578F90 ?HelpConsent@ClientCommunicationSystem@@IAE_NW4HelpType@1@PBDAAV?$PStringBase@D@@@Z
578FF0 ?DoCorpse@ClientCommunicationSystem@@IAE_NHPAPAD@Z
579200 ?HelpCorpse@ClientCommunicationSystem@@IAE_NW4HelpType@1@PBDAAV?$PStringBase@D@@@Z
579270 ?HelpDie@ClientCommunicationSystem@@IAE_NW4HelpType@1@PBDAAV?$PStringBase@D@@@Z
5792D0 ?HelpLifestone@ClientCommunicationSystem@@IAE_NW4HelpType@1@PBDAAV?$PStringBase@D@@@Z
579320 ?HelpMarketplace@ClientCommunicationSystem@@IAE_NW4HelpType@1@PBDAAV?$PStringBase@D@@@Z
579370 ?DoPermit@ClientCommunicationSystem@@IAE_NHPAPAD@Z
579640 ?HelpPermit@ClientCommunicationSystem@@IAE_NW4HelpType@1@PBDAAV?$PStringBase@D@@@Z
5796A0 ?DoPKArena@ClientCommunicationSystem@@IAE_NHPAPAD@Z
579750 ?HelpPKArena@ClientCommunicationSystem@@IAE_NW4HelpType@1@PBDAAV?$PStringBase@D@@@Z
5797A0 ?DoPKLArena@ClientCommunicationSystem@@IAE_NHPAPAD@Z
579850 ?HelpPKLArena@ClientCommunicationSystem@@IAE_NW4HelpType@1@PBDAAV?$PStringBase@D@@@Z
5798A0 ?DoEmote@ClientCommunicationSystem@@IAE_NHPAPAD@Z
579950 ?HelpEmote@ClientCommunicationSystem@@IAE_NW4HelpType@1@PBDAAV?$PStringBase@D@@@Z
579A30 ?HelpEmoteList@ClientCommunicationSystem@@IAE_NW4HelpType@1@PBDAAV?$PStringBase@D@@@Z
579A80 ?HelpFillComponents@ClientCommunicationSystem@@IAE_NW4HelpType@1@PBDAAV?$PStringBase@D@@@Z
579AF0 ?HelpSaveUI@ClientCommunicationSystem@@IAE_NW4HelpType@1@PBDAAV?$PStringBase@D@@@Z
579B60 ?HelpLoadUI@ClientCommunicationSystem@@IAE_NW4HelpType@1@PBDAAV?$PStringBase@D@@@Z
579BD0 ?HelpSaveAutoUI@ClientCommunicationSystem@@IAE_NW4HelpType@1@PBDAAV?$PStringBase@D@@@Z
579C40 ?HelpLoadAutoUI@ClientCommunicationSystem@@IAE_NW4HelpType@1@PBDAAV?$PStringBase@D@@@Z
579CB0 ?HelpLockUI@ClientCommunicationSystem@@IAE_NW4HelpType@1@PBDAAV?$PStringBase@D@@@Z
579D10 ?HelpFriends@ClientCommunicationSystem@@IAE_NW4HelpType@1@PBDAAV?$PStringBase@D@@@Z
579D80 ?DoFriendsAdd@ClientCommunicationSystem@@IAE_NHPAPAD@Z
579E50 ?DoFriendsRemove@ClientCommunicationSystem@@IAE_NHPAPAD@Z
579F70 ?DoHouseGuests@ClientCommunicationSystem@@IAE_NHPAPAD@Z
57A330 ?DoHouseStorage@ClientCommunicationSystem@@IAE_NHPAPAD@Z
57A740 ?DoHouseBoot@ClientCommunicationSystem@@IAE_NHPAPAD@Z
57A8A0 ?HelpHouse@ClientCommunicationSystem@@IAE_NW4HelpType@1@PBDAAV?$PStringBase@D@@@Z
57A910 ?HelpHouseAvailableList@ClientCommunicationSystem@@IAE_NW4HelpType@1@PBDAAV?$PStringBase@D@@@Z
57A960 ?HelpAdvancedSquelch@ClientCommunicationSystem@@IAE_NW4HelpType@1@PBDAAV?$PStringBase@D@@@Z
57A9B0 ?HelpAdvancedUnSquelch@ClientCommunicationSystem@@IAE_NW4HelpType@1@PBDAAV?$PStringBase@D@@@Z
57AA00 ?ProcessSquelchArgs@ClientCommunicationSystem@@IAE_NHPAPAD_NAA_NAAV?$PStringBase@D@@AAK@Z
57ADE0 ?DoMessageTypes@ClientCommunicationSystem@@IAE_NHPAPAD@Z
57AE80 ?HelpAge@ClientCommunicationSystem@@IAE_NW4HelpType@1@PBDAAV?$PStringBase@D@@@Z
57AED0 ?HelpBirth@ClientCommunicationSystem@@IAE_NW4HelpType@1@PBDAAV?$PStringBase@D@@@Z
57AF20 ?HelpDay@ClientCommunicationSystem@@IAE_NW4HelpType@1@PBDAAV?$PStringBase@D@@@Z
57AF70 ?HelpEndurance@ClientCommunicationSystem@@IAE_NW4HelpType@1@PBDAAV?$PStringBase@D@@@Z
57AFD0 ?HelpFrameRate@ClientCommunicationSystem@@IAE_NW4HelpType@1@PBDAAV?$PStringBase@D@@@Z
57B020 ?DoLoc@ClientCommunicationSystem@@IAE_NHPAPAD@Z
57B200 ?HelpLoc@ClientCommunicationSystem@@IAE_NW4HelpType@1@PBDAAV?$PStringBase@D@@@Z
57B260 ?DoPKLite@ClientCommunicationSystem@@IAE_NHPAPAD@Z
57B310 ?HelpPKLite@ClientCommunicationSystem@@IAE_NW4HelpType@1@PBDAAV?$PStringBase@D@@@Z
57B370 ?HelpVersion@ClientCommunicationSystem@@IAE_NW4HelpType@1@PBDAAV?$PStringBase@D@@@Z
57B3C0 ?HelpClear@ClientCommunicationSystem@@IAE_NW4HelpType@1@PBDAAV?$PStringBase@D@@@Z
57B410 ?DoTitle@ClientCommunicationSystem@@IAE_NHPAPAD@Z
57B5B0 ?HelpTitle@ClientCommunicationSystem@@IAE_NW4HelpType@1@PBDAAV?$PStringBase@D@@@Z
57B600 ?HelpFilter@ClientCommunicationSystem@@IAE_NW4HelpType@1@PBDAAV?$PStringBase@D@@@Z
57B660 ?HelpUnFilter@ClientCommunicationSystem@@IAE_NW4HelpType@1@PBDAAV?$PStringBase@D@@@Z
57B6C0 ?HelpLoadFile@ClientCommunicationSystem@@IAE_NW4HelpType@1@PBDAAV?$PStringBase@D@@@Z
57B720 ?DoSetOutputHelp@ClientCommunicationSystem@@IAE_NW4HelpType@1@PBDAAV?$PStringBase@D@@@Z
57B780 ?DoChannelList@ClientCommunicationSystem@@IAE_NHPAPAD@Z
57B850 ?DoChannelOn@ClientCommunicationSystem@@IAE_NHPAPAD@Z
57B920 ?DoChannelOff@ClientCommunicationSystem@@IAE_NHPAPAD@Z
57B9F0 ?PlayerIsPSR@ClientCommunicationSystem@@IBE_NXZ
57BA90 ?CloseLogFile@ClientCommunicationSystem@@IAE_NXZ
57BB50 ?grow@?$IntrusiveHashTable@V?$CaseInsensitiveStringBase@V?$PStringBase@D@@@@PAVCmdHashData@ClientCommunicationSystem@@$00@@QAE_NXZ
57BBA0 ?OnShutdown@ClientCommunicationSystem@@MAEXXZ
57BBC0 ?Handle_Communication__WeenieError@ClientCommunicationSystem@@QAEKK@Z
57BBE0 ?HelpAllegiance@ClientCommunicationSystem@@IAE_NW4HelpType@1@PBDAAV?$PStringBase@D@@@Z
57BCC0 ?DoAllegianceBoot@ClientCommunicationSystem@@IAE_NHPAPAD@Z
57BF00 ?DoStupidChannelHack@ClientCommunicationSystem@@IAE_NHPAPAD@Z
57BF70 ?HelpChattingGroup@ClientCommunicationSystem@@IAE_NW4HelpType@1@PBDAAV?$PStringBase@D@@@Z
57C1C0 ?DoAFK@ClientCommunicationSystem@@IAE_NHPAPAD@Z
57C680 ?HelpDeathGroup@ClientCommunicationSystem@@IAE_NW4HelpType@1@PBDAAV?$PStringBase@D@@@Z
57C840 ?DieDialogCallback@ClientCommunicationSystem@@KAXABVPropertyCollection@@@Z
57C900 ?DoEmoteList@ClientCommunicationSystem@@IAE_NHPAPAD@Z
57C9D0 ?DoFriends@ClientCommunicationSystem@@IAE_NHPAPAD@Z
57CC60 ?HouseAbandonDialogCallback_Second@ClientCommunicationSystem@@KAXABVPropertyCollection@@@Z
57CD20 ?DoSquelch@ClientCommunicationSystem@@IAE_NHPAPAD@Z
57CE40 ?DoUnSquelch@ClientCommunicationSystem@@IAE_NHPAPAD@Z
57CF60 ?HelpSquelch@ClientCommunicationSystem@@IAE_NW4HelpType@1@PBDAAV?$PStringBase@D@@@Z
57D0A0 ?PerformGlobalSquelchMod@ClientCommunicationSystem@@IAE_NHPAPAD_N@Z
57D1E0 ?HelpStatusGroup@ClientCommunicationSystem@@IAE_NW4HelpType@1@PBDAAV?$PStringBase@D@@@Z
57D370 ?DoAge@ClientCommunicationSystem@@IAE_NHPAPAD@Z
57D3C0 ?DoEndurance@ClientCommunicationSystem@@IAE_NHPAPAD@Z
57D490 ?HelpTextGroup@ClientCommunicationSystem@@IAE_NW4HelpType@1@PBDAAV?$PStringBase@D@@@Z
57D630 ?DoFilter@ClientCommunicationSystem@@IAE_NHPAPAD@Z
57D650 ?DoUnFilter@ClientCommunicationSystem@@IAE_NHPAPAD@Z
57D670 ?StartCopyOutputToFile@ClientCommunicationSystem@@IAE_NABV?$PStringBase@D@@@Z
57D6F0 ??0?$IntrusiveHashTable@V?$CaseInsensitiveStringBase@V?$PStringBase@D@@@@PAVCmdHashData@ClientCommunicationSystem@@$00@@QAE@I@Z
57D780 ?add_internal@?$IntrusiveHashTable@V?$CaseInsensitiveStringBase@V?$PStringBase@D@@@@PAVCmdHashData@ClientCommunicationSystem@@$00@@AAEXPAVCmdHashData@ClientCommunicationSystem@@@Z
57D7D0 ?resize_internal@?$IntrusiveHashTable@V?$CaseInsensitiveStringBase@V?$PStringBase@D@@@@PAVCmdHashData@ClientCommunicationSystem@@$00@@IAE_NK@Z
57D910 ?OnQualityChanged@ClientCommunicationSystem@@MAEXPAVCWeenieObject@@W4StatType@@K@Z
57D960 ?Handle_Communication__WeenieErrorWithString@ClientCommunicationSystem@@QAEKKABV?$PStringBase@D@AC1Legacy@@@Z
57D9B0 ?Handle_Communication__HearEmote@ClientCommunicationSystem@@QAEKKABV?$PStringBase@D@AC1Legacy@@0@Z
57DDF0 ?Handle_Communication__HearSoulEmote@ClientCommunicationSystem@@QAEKKABV?$PStringBase@D@AC1Legacy@@0@Z
57DE90 ?Handle_Communication__ChannelIndex@ClientCommunicationSystem@@QAEKABV?$PackableList@V?$PStringBase@D@AC1Legacy@@@@@Z
57E000 ?Handle_Communication__ChannelList@ClientCommunicationSystem@@QAEKABV?$PackableList@V?$PStringBase@D@AC1Legacy@@@@@Z
57E170 ?Handle_Communication__TransientString@ClientCommunicationSystem@@QAEKABV?$PStringBase@D@AC1Legacy@@@Z
57E1D0 ?HelpAllegiancesGroup@ClientCommunicationSystem@@IAE_NW4HelpType@1@PBDAAV?$PStringBase@D@@@Z
57E2B0 ?DoAllegiance@ClientCommunicationSystem@@IAE_NHPAPAD@Z
57E7C0 ?DoSpeaker@ClientCommunicationSystem@@IAE_NHPAPAD@Z
57E820 ?SendTurbineChat@ClientCommunicationSystem@@IAE_NKW4ChatTypeEnum@@ABV?$PStringBase@D@@_N@Z
57EAB0 ?DoConsent@ClientCommunicationSystem@@IAE_NHPAPAD@Z
57EE30 ?DoRenderOption@ClientCommunicationSystem@@IAE_NHPAPAD@Z
57EEC0 ?DoVersion@ClientCommunicationSystem@@IAE_NHPAPAD@Z
57EFF0 ?DoCommand@ClientCommunicationSystem@@IAE_NXZ
57F200 ?DoSetOutput@ClientCommunicationSystem@@IAE_NHPAPAD@Z
57F410 ?RecvNotice_DisplayWeenieError@ClientCommunicationSystem@@UAEXKABV?$PStringBase@D@AC1Legacy@@@Z
57F460 ?add@?$IntrusiveHashTable@V?$CaseInsensitiveStringBase@V?$PStringBase@D@@@@PAVCmdHashData@ClientCommunicationSystem@@$00@@QAE_NPAVCmdHashData@ClientCommunicationSystem@@@Z
57F4A0 ?remove@?$IntrusiveHashTable@V?$CaseInsensitiveStringBase@V?$PStringBase@D@@@@PAVCmdHashData@ClientCommunicationSystem@@$00@@QAEPAVCmdHashData@ClientCommunicationSystem@@ABV?$CaseInsensitiveStringBase@V?$PStringBase@D@@@@@Z
57F500 ?HelpAllGroup@ClientCommunicationSystem@@IAE_NW4HelpType@1@PBDAAV?$PStringBase@D@@@Z
57F8B0 ?DoTurbineChat_Allegiance@ClientCommunicationSystem@@IAE_NHPAPAD@Z
57F960 ?DoTurbineChat_General@ClientCommunicationSystem@@IAE_NHPAPAD@Z
57F9F0 ?DoTurbineChat_Trade@ClientCommunicationSystem@@IAE_NHPAPAD@Z
57FA80 ?DoTurbineChat_LFG@ClientCommunicationSystem@@IAE_NHPAPAD@Z
57FB10 ?DoTurbineChat_Roleplay@ClientCommunicationSystem@@IAE_NHPAPAD@Z
57FBA0 ?DoTurbineChat_Olthoi@ClientCommunicationSystem@@IAE_NHPAPAD@Z
57FC30 ?DoTurbineChat_Society@ClientCommunicationSystem@@IAE_NHPAPAD@Z
57FCC0 ?StartupTurbineChatSystem@ClientCommunicationSystem@@QAE_NXZ
5806F0 ?DoHelp@ClientCommunicationSystem@@IAE_NHPAPAD@Z
580B90 ?Handle_Communication__PopUpString@ClientCommunicationSystem@@QAEKABV?$PStringBase@D@AC1Legacy@@@Z
580D60 ?DoDie@ClientCommunicationSystem@@IAE_NHPAPAD@Z
580F50 ClientCommunicationSystem::HouseAbandonDialogCallback_First
581190 ClientCommunicationSystem::Pose
581450 ClientCommunicationSystem::MakeLoadFileVariableSubstitutions
581570 ?Handle_Communication__TextboxString@ClientCommunicationSystem@@QAEKAAV?$PStringBase@D@AC1Legacy@@K@Z
5816E0 ?DoHouse@ClientCommunicationSystem@@IAE_NHPAPAD@Z
581E50 ClientCommunicationSystem::RemoveTextBetween
581F70 ClientCommunicationSystem::PublicChat
5820C0 ClientCommunicationSystem::DoSay
5821A0 ClientCommunicationSystem::OnChatCommand
582590 ClientCommunicationSystem::LoadFile
5826F0 ?DoLoadFile@ClientCommunicationSystem@@IAE_NHPAPAD@Z
5827F0 ?InitializeCommands@ClientCommunicationSystem@@IAEXXZ
5863A0 ??0ClientCommunicationSystem@@QAE@XZ
5864D0 ??1ClientMiniGameSystem@@IAE@XZ
586500 ?OnShutdown@ClientMiniGameSystem@@MAEXXZ
586520 ?Handle_Game__Recv_JoinGameResponse@ClientMiniGameSystem@@QAEKKJ@Z
586540 ?Handle_Game__Recv_StartGame@ClientMiniGameSystem@@QAEKKJ@Z
586560 ?Handle_Game__Recv_MoveResponse@ClientMiniGameSystem@@QAEKKJ@Z
586580 ?Handle_Game__Recv_OpponentTurn@ClientMiniGameSystem@@QAEKKJABVGameMoveData@@@Z
5865A0 ?Handle_Game__Recv_OppenentStalemateState@ClientMiniGameSystem@@QAEKKJH@Z
5865C0 ?Handle_Game__Recv_GameOver@ClientMiniGameSystem@@QAEKKJ@Z
5865E0 ?QueryInterface@ClientMiniGameSystem@@UAE?AVTResult@@ABUTurbine_GUID@@PAPAX@Z
5866B0 ?Release@ClientMiniGameSystem@@UBEKXZ
5866E0 ??0ClientMiniGameSystem@@QAE@XZ
586720 ?SetRestrictions@ACCWeenieObject@@QAEXABVRestrictionDB@@@Z
586770 ??1ClientHousingSystem@@IAE@XZ
5867A0 ?OnShutdown@ClientHousingSystem@@MAEXXZ
5867C0 ?Handle_House__Recv_HouseProfile@ClientHousingSystem@@QAEKKABVHouseProfile@@@Z
5867E0 ?Handle_House__Recv_HouseTransaction@ClientHousingSystem@@QAEKK@Z
586800 ?Handle_House__Recv_HouseData@ClientHousingSystem@@QAEKABVHouseData@@@Z
586820 ?Handle_House__Recv_UpdateRentTime@ClientHousingSystem@@QAEKJ@Z
586840 ?Handle_House__Recv_UpdateRentPayment@ClientHousingSystem@@QAEKABVHousePaymentList@@@Z
586860 ?Handle_House__Recv_UpdateRestrictions@ClientHousingSystem@@QAEKEKABVRestrictionDB@@@Z
5868C0 ?QueryInterface@ClientHousingSystem@@UAE?AVTResult@@ABUTurbine_GUID@@PAPAX@Z
586990 ?Release@ClientHousingSystem@@UBEKXZ
5869C0 ??0ClientHousingSystem@@QAE@XZ
586A00 ?Handle_House__Recv_UpdateHAR@ClientHousingSystem@@QAEKABVHAR@@@Z
586AA0 ?DisplayListOfCoords@ClientHousingSystem@@IAEXABV?$PackableList@K@@@Z
586BD0 ?Handle_House__Recv_AvailableHouses@ClientHousingSystem@@QAEKKABV?$PackableList@K@@H@Z
586D20 ??_G?$IntrusiveHashTable@V?$IDClass@U_tagDataID@@$0CA@$0A@@@PAV?$HashSetData@V?$IDClass@U_tagDataID@@$0CA@$0A@@@@@$00@@UAEPAXI@Z
586D60 ?GetFirstObjectID@ComponentData@@QBEKXZ
586D80 ?DetermineComponentCategory@ComponentTracker@@QAE?AW4SpellComponentCategory@@V?$IDClass@U_tagDataID@@$0CA@$0A@@@@Z
586E10 ?GetNumComponent@ComponentTracker@@QAEXV?$IDClass@U_tagDataID@@$0CA@$0A@@@AAJ@Z
586EC0 ?GetCompNameFromWCID@ComponentTracker@@QAEXV?$IDClass@U_tagDataID@@$0CA@$0A@@@AAV?$PStringBase@D@AC1Legacy@@@Z
586FC0 ?grow@?$IntrusiveHashTable@V?$IDClass@U_tagDataID@@$0CA@$0A@@@PAV?$HashSetData@V?$IDClass@U_tagDataID@@$0CA@$0A@@@@@$00@@QAE_NXZ
587010 ?ObjectIsOwnedComponent@ComponentTracker@@QAEHKAAV?$IDClass@U_tagDataID@@$0CA@$0A@@@@Z
587060 ??0?$IntrusiveHashTable@V?$IDClass@U_tagDataID@@$0CA@$0A@@@PAV?$HashSetData@V?$IDClass@U_tagDataID@@$0CA@$0A@@@@@$00@@QAE@I@Z
5870F0 ?delete_contents@?$IntrusiveHashTable@KPAUHashListData@?$HashList@KPAVCInputMap@@$00@@$00@@QAEXXZ
587170 ?resize_internal@?$IntrusiveHashTable@V?$IDClass@U_tagDataID@@$0CA@$0A@@@PAV?$HashSetData@V?$IDClass@U_tagDataID@@$0CA@$0A@@@@@$00@@IAE_NK@Z
5872B0 ?ComponentIsOwned@ComponentTracker@@QAEHV?$IDClass@U_tagDataID@@$0CA@$0A@@@@Z
5872F0 ?add@?$IntrusiveHashTable@V?$IDClass@U_tagDataID@@$0CA@$0A@@@PAV?$HashSetData@V?$IDClass@U_tagDataID@@$0CA@$0A@@@@@$00@@QAE_NPAV?$HashSetData@V?$IDClass@U_tagDataID@@$0CA@$0A@@@@@@Z
587370 ?add@?$HashSet@V?$IDClass@U_tagDataID@@$0CA@$0A@@@@@QAE_NABV?$IDClass@U_tagDataID@@$0CA@$0A@@@@Z
5873E0 ??_G?$HashSet@V?$IDClass@U_tagDataID@@$0CA@$0A@@@@@UAEPAXI@Z
587440 ?AddItem@ComponentData@@QAEXPAVACCWeenieObject@@@Z
5874B0 ?RemoveItem@ComponentData@@QAEXPAVACCWeenieObject@@@Z
587500 ?UpdateStackSize@ComponentData@@QAEXPAVACCWeenieObject@@AAW4ComponentTrackerUpdate@@@Z
5875A0 ??0ComponentTracker@@QAE@PAVSpellComponentTable@@@Z
587610 ?UpdateComponentStackSize@ComponentTracker@@AAEXPAVACCWeenieObject@@AAW4ComponentTrackerUpdate@@@Z
587660 ??0ComponentData@@QAE@PAVACCWeenieObject@@@Z
587790 ??1ComponentData@@QAE@XZ
5877F0 ?InsertNewComponentData@ComponentTracker@@AAEXPAVACCWeenieObject@@PAV?$DLList@VComponentData@@@@PAVComponentData@@@Z
587850 ?AddComponent@ComponentTracker@@AAEXPAVACCWeenieObject@@@Z
587980 ?RemoveComponent@ComponentTracker@@AAEXPAVACCWeenieObject@@@Z
587A40 ??1ComponentTracker@@QAE@XZ
587C10 ?UpdateComponent@ComponentTracker@@QAEXPAVACCWeenieObject@@AAW4ComponentTrackerUpdate@@@Z
587CC0 ?CheckHookStatus@ItemHolder@@SAHPAVACCWeenieObject@@0AAH@Z
587D30 ?GetObjectSplitSize@ItemHolder@@SAKPAVACCWeenieObject@@@Z
587D60 ?IsMergeAttemptLegal@ItemHolder@@SAHKKH@Z
587EF0 ?AttemptToPlaceInContainer_IsItemLegal@ItemHolder@@SAHKH@Z
588200 ?AttemptSetGroundObject@ItemHolder@@SAHK@Z
588350 ?TargetCompatibleWithObject@ItemHolder@@SA_NKK_N0@Z
588720 ?AttemptMerge@ItemHolder@@SAHKKH@Z
5887E0 ?AttemptToPlaceInContainer_IsContainerLegal@ItemHolder@@SAHKKH@Z
588A70 ?AttemptAutoMerge@ItemHolder@@SAHKKK@Z
588B90 ?WillItemFitInContainer@ItemHolder@@SAHKK@Z
588CC0 ?IsDragIntoContainerAttemptLegal@ItemHolder@@SAHKK@Z
588EA0 ?IsTargetCompatibleWithTargetingObject@ItemHolder@@SA_NK@Z
588F70 ?AttemptToPlaceInContainer@ItemHolder@@SAHKKKHH@Z
589230 ?IsComponentPack@ACCWeenieObject@@QBEHXZ
589290 ?DetermineUseResult@ItemHolder@@SAGPAVACCWeenieObject@@@Z
589430 ?AttemptPlaceIn3D@ItemHolder@@SAHKKH@Z
5898B0 ?UseObject@ItemHolder@@SAXKHH@Z
589D20 ?TargetAcquired@ItemHolder@@SAXK@Z
589E30 ?QueryInterface@ChatInterfaceProvider@CCommunicationSystem@@UAGJABU_GUID@@PAPAX@Z
589E40 ??_EChatInterfaceProvider@CCommunicationSystem@@UAEPAXI@Z
589E70 ?SetTalkFocus@gmCCommunicationSystem@@SAXK@Z
589E90 ?GetTalkFocus@gmCCommunicationSystem@@SAKXZ
589EB0 ?SetTalkFocusEnabled@gmCCommunicationSystem@@SAXK_N@Z
589F00 ?IsTalkFocusEnabled@gmCCommunicationSystem@@SA_NK@Z
589F20 ?GetChatRoomTracker@gmCCommunicationSystem@@SAPAVChatRoomTracker@@XZ
589F40 ?SetChatRoomTracker@gmCCommunicationSystem@@SAHPBVChatRoomTracker@@@Z
589F60 ?SetWantsToBeInAllegChat@gmCCommunicationSystem@@SAXH@Z
589F80 ?WantsToBeInAllegChat@gmCCommunicationSystem@@SAHXZ
589FA0 ?SetLastSpeakableTarget@gmCCommunicationSystem@@SAXK@Z
589FC0 ?GetLastSpeakableTarget@gmCCommunicationSystem@@SAKXZ
589FD0 ?SetLastTeller@gmCCommunicationSystem@@SAXK@Z
589FF0 ?GetLastTeller@gmCCommunicationSystem@@SAKXZ
58A000 ?IsSquelched@gmCCommunicationSystem@@SAHKABV?$PStringBase@D@AC1Legacy@@K@Z
58A050 ?SetSquelchDB@gmCCommunicationSystem@@SAXABVSquelchDB@@@Z
58A070 ?ClearSquelchDB@gmCCommunicationSystem@@SAXXZ
58A090 ??_G?$PackableHashIterator@KVSquelchInfo@@@@UAEPAXI@Z
58A0B0 ?QueryInterface@ChatInterfaceProvider@CCommunicationSystem@@W3AGJABU_GUID@@PAPAX@Z
58A0C0 ?QueryInterface@ChatInterfaceProvider@CCommunicationSystem@@W7AGJABU_GUID@@PAPAX@Z
58A0D0 ?begin@?$PackableHashTable@KVSquelchInfo@@@@QBE?AV?$PackableHashIterator@KVSquelchInfo@@@@XZ
58A130 ?GetNext@?$PackableHashIterator@KVSquelchInfo@@@@QAEXXZ
58A180 ?InqName@SquelchInfo@@QBEXAAV?$PStringBase@D@AC1Legacy@@@Z
58A1D0 ??_ESquelchInfo@@UAEPAXI@Z
58A1F0 ??0gmCCommunicationSystem@@QAE@XZ
58A2B0 ?SetLastTelleeName@gmCCommunicationSystem@@SAXV?$PStringBase@D@@@Z
58A330 ?SetLastTellerName@gmCCommunicationSystem@@SAXABV?$PStringBase@D@@@Z
58A380 ?GetLastTellerName@gmCCommunicationSystem@@SA?AV?$PStringBase@D@@XZ
58A3C0 ?SetLastAtMonarchUserName@gmCCommunicationSystem@@SAXV?$PStringBase@D@AC1Legacy@@@Z
58A440 ?GetLastAtMonarchUserName@gmCCommunicationSystem@@SA?AV?$PStringBase@D@AC1Legacy@@XZ
58A480 ?SetLastAtPatronUserName@gmCCommunicationSystem@@SAXV?$PStringBase@D@AC1Legacy@@@Z
58A500 ?GetLastAtPatronUserName@gmCCommunicationSystem@@SA?AV?$PStringBase@D@AC1Legacy@@XZ
58A540 ?StartSquelchIteration@gmCCommunicationSystem@@SAXXZ
58A580 ?StartupTurbineChat_Internal@gmCCommunicationSystem@@MAEHV?$PStringBase@D@AC1Legacy@@@Z
58A5E0 ?Release@?$RefCountIUnknown@VuiChatInterfaceProvider@gmCCommunicationSystem@@@@UAGKXZ
58A5F0 ??_G?$RefCountIUnknown@VuiChatInterfaceProvider@gmCCommunicationSystem@@@@MAEPAXI@Z
58A610 ??1?$RefCountIUnknown@VuiChatInterfaceProvider@gmCCommunicationSystem@@@@MAE@XZ
58A640 ?AddRef@?$RefCountIUnknown@VuiChatInterfaceProvider@gmCCommunicationSystem@@@@W3AGKXZ
58A650 ?Release@?$RefCountIUnknown@VuiChatInterfaceProvider@gmCCommunicationSystem@@@@W3AGKXZ
58A660 ?AddRef@?$RefCountIUnknown@VuiChatInterfaceProvider@gmCCommunicationSystem@@@@W7AGKXZ
58A670 ?Release@?$RefCountIUnknown@VuiChatInterfaceProvider@gmCCommunicationSystem@@@@W7AGKXZ
58A680 ??_E?$RefCountIUnknown@VuiChatInterfaceProvider@gmCCommunicationSystem@@@@OM@AEPAXI@Z
58A690 ?CanHear@gmCCommunicationSystem@@SAHKK@Z
58A790 ?NextSquelchIteration@gmCCommunicationSystem@@SAHAAV?$PStringBase@D@AC1Legacy@@AAH@Z
58A830 ?CreateChatInterfaceProvider@gmCCommunicationSystem@@MAEPAVChatInterfaceProvider@CCommunicationSystem@@XZ
58A870 ?GetLastTelleeName@gmCCommunicationSystem@@SA?AV?$PStringBase@D@@XZ
58A8B0 ?ConvertSQToPString@gmCCommunicationSystem@@KAXABVSquelchInfo@@AAV?$PStringBase@D@AC1Legacy@@H@Z
58AC60 ?OnSendToRoomByIDResult@uiChatInterfaceProvider@gmCCommunicationSystem@@UAGXJKPBGUtagBLOB@@@Z
58ACE0 gmCCommunicationSystem::GetListofSquelchChannels
58AD90 gmCCommunicationSystem::HandleRangedTalkEvent
58AED0 ?DoGlobalSquelchQuery@gmCCommunicationSystem@@SAHXZ
58B0F0 ?DoSquelchQuery@gmCCommunicationSystem@@SAHXZ
58B3C0 ?OnSendToRoom@uiChatInterfaceProvider@gmCCommunicationSystem@@UAGXKPBG0UtagBLOB@@@Z
58B690 ?Allocator@ACCharGenData@@SAPAVDBObj@@XZ
58B6B0 ?Allocator@Attribute2ndTable@@SAPAVDBObj@@XZ
58B6E0 ?Allocator@SkillTable@@SAPAVDBObj@@XZ
58B700 ?Allocator@CSpellTable@@SAPAVDBObj@@XZ
58B730 ?Allocator@SpellComponentTable@@SAPAVDBObj@@XZ
58B750 ?Allocator@ExperienceTable@@SAPAVDBObj@@XZ
58B770 ?Allocator@CQuestDefDB@@SAPAVDBObj@@XZ
58B790 ?Allocator@ACQualityFilter@@SAPAVDBObj@@XZ
58B7B0 ?Allocator@CombatManeuverTable@@SAPAVDBObj@@XZ
58B7D0 ?Allocator@CContractTable@@SAPAVDBObj@@XZ
58B7F0 ??0gmCLCache@@QAE@XZ
58B820 ??_EgmCLCache@@WBDA@AEPAXI@Z
58B830 ??_GgmCLCache@@UAEPAXI@Z
58B870 ?Init@gmCLCache@@UAE_NABV?$PStringBase@D@@_N111KJ@Z
58B8F0 ?Init_Internal@gmCLCache@@MAEXXZ
58BCF0 ??_G?$IntrusiveHashTable@KPAV?$HashTableData@KPAVRenderVertexStreamD3D@@@@$0A@@@UAEPAXI@Z
58BD30 ?GetFogAdjustment@Render@@MBEMM@Z
58BD40 ??_ERender@@UAEPAXI@Z
58BD80 ?GetObjectMatrixInternal@PrimD3DRender@@MAEABVMatrix4@@XZ
58BD90 ??1PrimD3DRender@@UAE@XZ
58BDC0 ??0?$IntrusiveHashTable@KPAV?$HashTableData@KPAVRenderVertexStreamD3D@@@@$0A@@@QAE@I@Z
58BE50 ??1?$HashTable@KPAVRenderVertexStreamD3D@@$0A@@@UAE@XZ
58BE90 ??_G?$HashTable@KPAVRenderVertexStreamD3D@@$0A@@@UAEPAXI@Z
58BEF0 ??_GD3DPolyRender@@UAEPAXI@Z
58BF30 ?AllocateRender@RenderAllocator@@SAPAVRender@@XZ
58BF90 ?TakeControlFromServer@ACCmdInterp@@UAEXXZ
58BFB0 ?UITogglesRun@ACCmdInterp@@MBEHXZ
58BFD0 ?CommenceJump@ACCmdInterp@@MAEXXZ
58BFF0 ?DoJump@ACCmdInterp@@MAEX_N@Z
58C000 ?FinishJump@ACCmdInterp@@UAEXXZ
58C020 ?HandleNewForwardMovement@ACCmdInterp@@MAEXXZ
58C040 ?SendAutonomyLevelEvent@ACCmdInterp@@MAEHK@Z
58C060 ?SendDoMovementEvent@ACCmdInterp@@MAEHKMW4HoldKey@@@Z
58C080 ?SendStopMovementEvent@ACCmdInterp@@MAEHKW4HoldKey@@@Z
58C0A0 ?SendMoveToStateEvent@ACCmdInterp@@MAEHAAVMoveToStatePack@@@Z
58C0C0 ?SendAutonomousPositionEvent@ACCmdInterp@@MAEHAAVAutonomousPositionPack@@@Z
58C0E0 ?SendTurnToEvent@ACCmdInterp@@MAEHAAVTurnToEventPack@@@Z
58C100 ?RecvNotice_PlayerOptionChanged@ACCmdInterp@@MAEXW4PlayerOption@@@Z
58C140 ?SetMotion@ACCmdInterp@@IAEXK_N@Z
58C1A0 ?OnAction@ACCmdInterp@@MAE_NABVInputEvent@@@Z
58C340 ?InitializeEmoteInputActionHash@ACCmdInterp@@IAEXXZ
58C960 ??0ACCmdInterp@@QAE@XZ
58C9C0 ?IsEnabled@CommandInterpreter@@UBEHXZ
58C9D0 ?SetMouseLookActive@CommandInterpreter@@UAEXH@Z
58C9E0 ?GetMouseLookActive@CommandInterpreter@@UAEHXZ
58C9F0 ?SetMouseLeftDown@CommandInterpreter@@UAEXH@Z
58CA00 ?GetMouseLeftDown@CommandInterpreter@@UAEHXZ
58CA10 ??1ACCmdInterp@@UAE@XZ
58CAB0 ??_EACCmdInterp@@UAEPAXI@Z
58CAD0 ?SetOpenable@ACCWeenieObject@@QAEXH@Z
58CB00 ?SetStuck@ACCWeenieObject@@QAEXH@Z
58CB30 ?SetInscribable@ACCWeenieObject@@QAEXH@Z
58CB60 ?SetHiddenAdmin@ACCWeenieObject@@QAEXH@Z
58CB90 ?SetUIHidden@ACCWeenieObject@@QAEXH@Z
58CBC0 ?SetCellBarrierImmune@ACCWeenieObject@@QAEXH@Z
58CBF0 ?ResetPlayerDesc@ACCWeenieObject@@UAEXXZ
58CC40 ?SetParentedState@ACCWeenieObject@@UAEXH@Z
58CC70 ?ServerSaysContainID@ACCWeenieObject@@QAEXKHH@Z
58CCA0 ?DeterminePositionState@ACCWeenieObject@@QAEXXZ
58CCE0 ?GetNumContainedItems@ACCWeenieObject@@QAEHXZ
58CCF0 ?GetNumContainedContainers@ACCWeenieObject@@QAEHXZ
58CD00 ?GetNumEmptyItemSlots@ACCWeenieObject@@QAEHXZ
58CD20 ?GetContainedItemsList@ACCWeenieObject@@QAEPAVIDList@@XZ
58CD30 ?GetContainedContainersList@ACCWeenieObject@@QAEPAVIDList@@XZ
58CD40 ?GetExhaustiveContainedItemsList@ACCWeenieObject@@QAE?AVIDList@@XZ
58CE20 ?GetInvPlacementList@ACCWeenieObject@@QAEPAV?$PackableList@VInventoryPlacement@@@@XZ
58CE30 ?AllContainedObjectsExist@ACCWeenieObject@@QAEHXZ
58CEC0 ?GetPlaceInItemsList@ACCWeenieObject@@QAEHK@Z
58CEE0 ?GetPlaceInContainersList@ACCWeenieObject@@QAEHK@Z
58CF00 ?SetWaitingState@ACCWeenieObject@@QAEXH@Z
58CF30 ?SetShortcutNum@ACCWeenieObject@@QAEXH_N@Z
58CF70 ?SetTradeState@ACCWeenieObject@@QAEXH@Z
58CFA0 ?SetSellState@ACCWeenieObject@@QAEXH@Z
58CFD0 ?ObjectsInRange@ACCWeenieObject@@SAHKKN_N0@Z
58D050 ?RecordRequest@ACCWeenieObject@@SAXKW4InventoryRequest@@@Z
58D080 ?InqShowableOnRadar@ACCWeenieObject@@QBEHABVVector3@AC1Legacy@@@Z
58D0B0 ?SetStructure@ACCWeenieObject@@QAEXK@Z
58D0D0 ?SetMaxStructure@ACCWeenieObject@@QAEXK@Z
58D0F0 ?SetStackSize@ACCWeenieObject@@QAEXK@Z
58D110 ?SetSelectedObject@ACCWeenieObject@@SAXKH@Z
58D1B0 ?SetPreviousSelectedObject@ACCWeenieObject@@SAXK@Z
58D1C0 ?SetSelectedObjectID@ACCWeenieObject@@SAXK@Z
58D1D0 ?DoCollision@ACCWeenieObject@@UAEHABVEnvCollisionProfile@@@Z
58D200 ?IsThePlayer@ACCWeenieObject@@UBEHXZ
58D220 ?IsCreature@ACCWeenieObject@@UBEHXZ
58D230 ?CanJump@ACCWeenieObject@@UBE_NM@Z
58D270 ?JumpStaminaCost@ACCWeenieObject@@UBE_NMAAJ@Z
58D2B0 ?PlayScript@ACCWeenieObject@@UAEHW4PScriptType@@M@Z
58D2D0 ?GetNumEmitters@ACCWeenieObject@@UAEKXZ
58D2F0 ?GetGlobalVelocity@ACCWeenieObject@@UBEHAAVVector3@AC1Legacy@@@Z
58D330 ?CanBypassMoveRestrictions@ACCWeenieObject@@UBEHXZ
58D350 ?InqJumpVelocity@ACCWeenieObject@@UBE_NMAAM@Z
58D390 ?InqRunRate@ACCWeenieObject@@UBE_NAAM@Z
58D3D0 ?InqMaxRunRate@ACCWeenieObject@@UBE_NAAM@Z
58D410 ?SetupStamper@ACCWeenieObject@@IAEHXZ
58D460 ?IsAllegianceMember@ACCWeenieObject@@QBEHPAV1@@Z
58D490 ?IsHook@ACCWeenieObject@@UBEHXZ
58D4B0 ?OnStatUpdated@ACCWeenieObject@@QAEXKH@Z
58D560 ??_ECWeenieObject@@WM@AEPAXI@Z
58D570 ??_GCWeenieObject@@UAEPAXI@Z
58D5C0 ??0ACCWeenieObject@@QAE@K@Z
58D6C0 ?IsPlayer@ACCWeenieObject@@UBEHXZ
58D6D0 ?IsPKLite@ACCWeenieObject@@UBEHXZ
58D6E0 ?IsPK@ACCWeenieObject@@UBEHXZ
58D6F0 ?IsImpenetrable@ACCWeenieObject@@UBEHXZ
58D700 ?InqType@ACCWeenieObject@@UBE?AW4ITEM_TYPE@@XZ
58D710 ?IsCorpse@ACCWeenieObject@@UBEHXZ
58D720 ??_EACCWeenieObject@@WM@AEPAXI@Z
58D730 ?InqIconID@ACCWeenieObject@@UBE?AV?$IDClass@U_tagDataID@@$0CA@$0A@@@XZ
58D740 ?IsPlayerKiller@ACCWeenieObject@@UBEHXZ
58D760 ??1ACCWeenieObject@@UAE@XZ
58D7D0 ?AddContentsToDestructionQueue@ACCWeenieObject@@QAEXXZ
58D850 ?RemoveContentsFromDestructionQueue@ACCWeenieObject@@QAEXXZ
58D8E0 ?RecordResponse@ACCWeenieObject@@SAXK@Z
58D910 ?InqCollisionProfile@ACCWeenieObject@@UBEHAAVObjCollisionProfile@@@Z
58D980 ?UpdateHouseRestrictionTS@ACCWeenieObject@@QAEHE@Z
58D9B0 ?MagicPackIsOwned@ACCWeenieObject@@QAEHV?$IDClass@U_tagDataID@@$0CA@$0A@@@@Z
58DA10 ?IsStorage@ACCWeenieObject@@UBEHXZ
58DA50 ??_GACCWeenieObject@@UAEPAXI@Z
58DA70 ?ServerSaysSetStackSize@ACCWeenieObject@@QAEXHK@Z
58DB10 ?AddContent@ACCWeenieObject@@QAEXPAV1@H@Z
58DBA0 ?RemoveContent@ACCWeenieObject@@QAEXPAV1@@Z
58DC00 ?GetLocationOnObject@ACCWeenieObject@@QAEKK@Z
58DC30 ?GetObjectAtLocation@ACCWeenieObject@@QAEKKK@Z
58DC80 ?IsOwnedByTrader@ACCWeenieObject@@QAEHK@Z
58DCE0 ?IsOwnedByObject@ACCWeenieObject@@QAEHK@Z
58DD60 ??_GIconData@@UAEPAXI@Z
58DDB0 ?GetHousePayment@ACCWeenieObject@@QBEJXZ
58DDC0 ?InsertPos@?$PackableList@VInventoryPlacement@@@@QAEKKABVInventoryPlacement@@@Z
58DE80 ?IsPlayerReadyToMakeInventoryRequest@ACCWeenieObject@@SAHH@Z
58DF90 ?IsOwnedByPlayer@ACCWeenieObject@@QAEHXZ
58DFB0 ?RenderIcons@IconData@@QAEXPAVACCWeenieObject@@@Z
58E2D0 ?Remove@?$PackableList@VInventoryPlacement@@@@QAEHAAVInventoryPlacement@@@Z
58E3C0 ?UIAttemptWield@ACCWeenieObject@@QAEXK@Z
58E450 ?UIAttemptGive@ACCWeenieObject@@QAEXKK@Z
58E4B0 ?UIAttemptPutInContainer@ACCWeenieObject@@QAEXKH@Z
58E530 ?UIAttemptPutIn3D@ACCWeenieObject@@QAEXXZ
58E5A0 ?UIAttemptMerge@ACCWeenieObject@@QAEXKH@Z
58E600 ?UIAttemptSplitToContainer@ACCWeenieObject@@QAEXKHH@Z
58E680 ?UIAttemptSplitTo3D@ACCWeenieObject@@QAEXH@Z
58E6F0 ?SetPlayerWieldLocation@ACCWeenieObject@@QAEXK@Z
58E7B0 ??0IconData@@QAE@PAVACCWeenieObject@@H@Z
58E800 ?UpdateIcons@IconData@@QAEHPAVACCWeenieObject@@@Z
58E870 ?CanMoveInto@ACCWeenieObject@@UAEHPAVCWeenieObject@@@Z
58E9A0 ?HasCorpseBeenOpened@ACCWeenieObject@@SAHK@Z
58E9E0 ?ServerSaysMoveItem@ACCWeenieObject@@QAEXKHKKH@Z
58EB50 ?Remove@ACCWeenieObject@@QAEXXZ
58EC00 ?IconDataChanged@ACCWeenieObject@@IAEXXZ
58EC60 ?GetIconData@ACCWeenieObject@@QAEPAVIconData@@XZ
58ECF0 ?SetType@ACCWeenieObject@@QAEXW4ITEM_TYPE@@@Z
58ED10 ?SetUseability@ACCWeenieObject@@QAEXW4ITEM_USEABLE@@@Z
58ED30 ?SetEffects@ACCWeenieObject@@QAEXK@Z
58ED50 ?OnStatUpdated@ACCWeenieObject@@QAEXKJ@Z
58EFB0 ?OnStatUpdated@ACCWeenieObject@@QAEXKV?$IDClass@U_tagDataID@@$0CA@$0A@@@@Z
58F050 ?OnStatUpdated@ACCWeenieObject@@QAEXKK@Z
58F170 ?DeclareValid@ACCWeenieObject@@QAEXXZ
58F2F0 ?ServerSaysRemove@ACCWeenieObject@@QAEXXZ
58F300 ?ObjectBeingDeleted@ACCWeenieObject@@UAEXXZ
58F480 ?GetIcon@ACCWeenieObject@@QAEPAVGraphic@@XZ
58F490 ?GetDragIcon@ACCWeenieObject@@QAEPAVGraphic@@XZ
58F4A0 ?SetCorpseOpened@ACCWeenieObject@@SAXK@Z
58F4F0 ?SetCorpseDeleted@ACCWeenieObject@@SAXK@Z
58F510 ?GetObjectName@ACCWeenieObject@@QAEPADW4NameType@@H@Z
58F840 ?GetObjectName@ACCWeenieObject@@SAPADKW4NameType@@H@Z
58F8B0 ?GetObjectNameWide@ACCWeenieObject@@QAE?AV?$PStringBase@G@@W4NameType@@H@Z
58F8E0 ?GetObjectNameWide@ACCWeenieObject@@SA?AV?$PStringBase@G@@KW4NameType@@H@Z
58F910 ?ServerSaysAttemptFailed@ACCWeenieObject@@QAEXKH@Z
58FCE0 ?HasSpellBook@CACQualities@@QBEHXZ
58FCF0 ?IsSpellKnown@CACQualities@@QBEHK@Z
58FD10 ?TranscribeSpells@CACQualities@@QBEHAAV?$PackableList@K@@@Z
58FD30 ?HasEnchantmentRegistry@CACQualities@@QBEHXZ
58FD40 ?IsEnchanted@CACQualities@@QBEHK@Z
58FD60 ?PurgeEnchantments@CACQualities@@QAEHXZ
58FD70 ?PurgeBadEnchantments@CACQualities@@QAEHXZ
58FD80 ?GetEnchantmentsInEffect@CACQualities@@QBEHAAV?$PackableList@VEnchantment@@@@@Z
58FDA0 ?RemoveEnchantment@CACQualities@@QAEHK@Z
58FDC0 ?RemoveEnchantments@CACQualities@@QAEHAAV?$PackableList@K@@@Z
58FDE0 ?UpdateEnchantment@CACQualities@@QAEHABVEnchantment@@@Z
58FE20 ?UpdateEnchantments@CACQualities@@QAEHAAV?$PackableList@VEnchantment@@@@@Z
58FE60 ?InqVitae@CACQualities@@QBEHAAVEnchantment@@@Z
58FE80 ?GetVitaeValue@CACQualities@@QBEMXZ
58FEA0 ?EnchantAttribute@CACQualities@@IBEHKAAK@Z
58FEC0 ?EnchantAttribute2nd@CACQualities@@IBEHKAAK@Z
58FEE0 ?EnchantSkill@CACQualities@@IBEHKAAJ@Z
58FF00 ?EnchantInt@CACQualities@@MBEHKAAJH@Z
58FF20 ?EnchantFloat@CACQualities@@MBEHKAAN@Z
58FF40 ?GetFloatEnchantmentDetails@CACQualities@@MBEHKAAUEnchantedQualityDetails@@@Z
58FF60 ?InqLoad@CACQualities@@QBEHAAM@Z
58FFF0 ??0BodyPart@@QAE@XZ
590030 ??_EBodyPart@@UAEPAXI@Z
590050 ?AddSpell@CACQualities@@QAEHK@Z
5900B0 ?RemoveSpell@CACQualities@@QAEHK@Z
5900F0 ?EmptyContents@?$PackableHashTable@JVBodyPart@@@@QAEXXZ
590150 ?add@?$PackableHashTable@JVBodyPart@@@@QAEHABJABVBodyPart@@@Z
5901F0 ?Pack@?$PackableHashTable@JVBodyPart@@@@UAEIAAPAXI@Z
590280 ?pack_size@?$PackableHashTable@JVBodyPart@@@@QAEIXZ
5902E0 ?InsertTail@?$PackableList@VCreationProfile@@@@QAEKABVCreationProfile@@@Z
590350 ?Pack@?$PackableList@VCreationProfile@@@@UAEIAAPAXI@Z
5903A0 ?pack_size@?$PackableList@VCreationProfile@@@@IAEIXZ
5903E0 ??1?$PackableHashTable@JVBodyPart@@@@UAE@XZ
590420 ?UnPack@?$PackableHashTable@JVBodyPart@@@@UAEHAAPAXI@Z
590560 ??_G?$PackableHashTable@JVBodyPart@@@@UAEPAXI@Z
5905B0 ??0Body@@QAE@XZ
5905E0 ?Flush@?$PackableList@VCreationProfile@@@@QAEXXZ
590650 ??_GBody@@UAEPAXI@Z
590680 ?InqPluralNameString@CACQualities@@UAEHAAV?$PStringBase@D@AC1Legacy@@@Z
590880 ?UnPack@?$PackableList@VCreationProfile@@@@UAEHAAPAXI@Z
590900 ??_G?$PackableList@VCreationProfile@@@@UAEPAXI@Z
590930 ??0?$PackableHashTable@KJ@@QAE@I@Z
590960 ??0?$PackableHashTable@K_J@@QAE@I@Z
590990 ?remove@?$PackableHashTable@K_J@@QAEHABKAA_J@Z
590A20 ??0?$PackableHashTable@KH@@QAE@I@Z
590A50 ?remove@?$PackableHashTable@KV?$IDClass@U_tagDataID@@$0CA@$0A@@@@@QAEHABKAAV?$IDClass@U_tagDataID@@$0CA@$0A@@@@Z
590AE0 ??0?$PackableHashTable@KN@@QAE@I@Z
590B10 ?lookup@?$PackableHashTable@KN@@QBEPANABK@Z
590B50 ??0?$PackableHashTable@KV?$IDClass@U_tagDataID@@$0CA@$0A@@@@@QAE@I@Z
590B80 ??0?$PackableHashTable@KV?$PStringBase@D@AC1Legacy@@@@QAE@I@Z
590BB0 ??0?$PackableHashTable@KVPosition@@@@QAE@I@Z
590BE0 ?lookup@?$PackableHashTable@KVPosition@@@@QBEPAVPosition@@ABK@Z
590C20 ?InqInt@CBaseQualities@@QBEHKAAJHH@Z
590C70 ?InqInt64@CBaseQualities@@QBEHKAA_J@Z
590CA0 ?InqBool@CBaseQualities@@QBEHKAAH@Z
590CD0 ?InqFloat@CBaseQualities@@QBEHKAANH@Z
590D20 ?InqDataID@CBaseQualities@@QBEHKAAV?$IDClass@U_tagDataID@@$0CA@$0A@@@@Z
590D50 ?InqInstanceID@CBaseQualities@@QBEHKAAK@Z
590D80 ?InqPosition@CBaseQualities@@QBEHKAAVPosition@@@Z
590DC0 ?add@?$PackableHashTable@KN@@QAEHABKABN@Z
590E60 ?Pack@?$PackableHashTable@K_J@@UAEIAAPAXI@Z
590EE0 ?UnPack@?$PackableHashTable@K_J@@UAEHAAPAXI@Z
590FF0 ?Destroy@?$PackableHashTable@K_J@@QAEXXZ
591020 ?Pack@?$PackableHashTable@KN@@UAEIAAPAXI@Z
5910A0 ?pack_size@?$PackableHashTable@K_J@@QAEIXZ
5910D0 ?UnPack@?$PackableHashTable@KN@@UAEHAAPAXI@Z
5911E0 ?EmptyContents@?$PackableHashTable@K_J@@QAEXXZ
591230 ?Pack@?$PackableHashTable@KVPosition@@@@UAEIAAPAXI@Z
5912C0 ?pack_size@?$PackableHashTable@KVPosition@@@@QAEIXZ
591320 ??_E?$PackableHashTable@K_J@@UAEPAXI@Z
591350 ??_G?$PackableHashTable@KH@@UAEPAXI@Z
591380 ??_E?$PackableHashTable@KN@@UAEPAXI@Z
5913B0 ??0?$PackableHashData@KVPosition@@@@QAE@ABKABVPosition@@H@Z
591400 ?RemoveInt@CBaseQualities@@QAEHK@Z
591430 ?SetInt@CBaseQualities@@QAEHKJ@Z
591500 ?RemoveInt64@CBaseQualities@@QAEHK@Z
591530 ?SetInt64@CBaseQualities@@QAEHK_J@Z
591610 ?RemoveBool@CBaseQualities@@QAEHK@Z
591640 ?SetBool@CBaseQualities@@QAEHKH@Z
591710 ?RemoveFloat@CBaseQualities@@QAEHK@Z
591740 ?SetFloat@CBaseQualities@@QAEHKN@Z
591820 ?SetDataID@CBaseQualities@@QAEHKV?$IDClass@U_tagDataID@@$0CA@$0A@@@@Z
5918F0 CBaseQualities::RemoveInstanceID
591920 ?SetInstanceID@CBaseQualities@@QAEHKK@Z
5919F0 ?InqString@CBaseQualities@@QBEHKAAV?$PStringBase@D@AC1Legacy@@@Z
591A50 ?Pack@?$PackableHashTable@KV?$IDClass@U_tagDataID@@$0CA@$0A@@@@@UAEIAAPAXI@Z
591AE0 ?add@?$PackableHashTable@KV?$PStringBase@D@AC1Legacy@@@@QAEHABKABV?$PStringBase@D@AC1Legacy@@@Z
591C20 ?remove@?$PackableHashTable@KVPosition@@@@QAEHABKAAVPosition@@@Z
591CC0 ?SetString@CBaseQualities@@QAEHKABV?$PStringBase@D@AC1Legacy@@@Z
591DA0 ?SetPosition@CBaseQualities@@QAEHKABVPosition@@@Z
591E80 ?UnPack@?$PackableHashTable@KV?$IDClass@U_tagDataID@@$0CA@$0A@@@@@UAEHAAPAXI@Z
591F80 ?remove@?$PackableHashTable@KV?$PStringBase@D@AC1Legacy@@@@QAEHABKAAV?$PStringBase@D@AC1Legacy@@@Z
592020 ?UnPack@?$PackableHashTable@KVPosition@@@@UAEHAAPAXI@Z
5921C0 ??_E?$PackableHashTable@KV?$IDClass@U_tagDataID@@$0CA@$0A@@@@@UAEPAXI@Z
5921F0 ??_G?$PackableHashTable@KVPosition@@@@UAEPAXI@Z
592220 ?RemoveDataID@CBaseQualities@@QAEHK@Z
592250 ?RemovePosition@CBaseQualities@@QAEHK@Z
5922E0 ?Pack@?$PackableHashTable@KV?$PStringBase@D@AC1Legacy@@@@UAEIAAPAXI@Z
5923D0 ?UnPack@?$PackableHashTable@KV?$PStringBase@D@AC1Legacy@@@@UAEHAAPAXI@Z
592530 ?EmptyContents@?$PackableHashTable@KV?$PStringBase@D@AC1Legacy@@@@QAEXXZ
5925C0 ??_G?$PackableHashTable@KV?$PStringBase@D@AC1Legacy@@@@UAEPAXI@Z
5925F0 ?RemoveString@CBaseQualities@@QAEHK@Z
592660 ?Calculate@SkillFormula@@QBEHKKAAK@Z
5926D0 ?InqAttribute@CACQualities@@QBEHKAAVAttribute@@@Z
592700 ?InqAttribute@CACQualities@@QBEHKAAKH@Z
592750 ?SetAttribute@CACQualities@@QAEHKABVAttribute@@@Z
5927A0 ?SetAttribute@CACQualities@@QAEHKK@Z
5927F0 ?InqAttribute2nd@CACQualities@@QBEHKAAVSecondaryAttribute@@@Z
592820 ?InqMaxRunRate@CACQualities@@UBEHAAM@Z
592850 ?CanJump@CACQualities@@UBEHM@Z
592890 ?JumpStaminaCost@CACQualities@@UBEHMAAJ@Z
592950 ??0?$PackableHashTable@KVSkill@@@@QAE@I@Z
592980 ?lookup@?$PackableHashTable@KVSkill@@@@QBEPAVSkill@@ABK@Z
5929C0 ??0?$PackableHashData@KVSkill@@@@QAE@ABKABVSkill@@H@Z
592A20 ?InqAttribute2ndBaseLevel@CACQualities@@QBEHKAAKH@Z
592AF0 ?InqSkill@CACQualities@@QBEHKAAVSkill@@@Z
592B40 ?InqSkillLevel@CACQualities@@QBEHKAAJ@Z
592B70 ?InqSkillAdvancementClass@CACQualities@@QBEHKAAW4SKILL_ADVANCEMENT_CLASS@@@Z
592BA0 ?add@?$PackableHashTable@KVSkill@@@@QAEHABKABVSkill@@@Z
592C30 ?Pack@?$PackableHashTable@KVSkill@@@@UAEIAAPAXI@Z
592CC0 ?pack_size@?$PackableHashTable@KVSkill@@@@QAEIXZ
592D20 ?InqAttribute2nd@CACQualities@@QBEHKAAKH@Z
592E00 ?BoundsCheck@CACQualities@@QAEHKAAJAAK@Z
592E60 ?InqSkillBaseLevel@CACQualities@@QBEHKAAJH@Z
592F60 ?SetSkill@CACQualities@@QAEHKABVSkill@@@Z
593060 ?SetSkillLevel@CACQualities@@QAEHKK@Z
593150 ?SetSkillAdvancementClass@CACQualities@@QAEHKW4SKILL_ADVANCEMENT_CLASS@@@Z
593250 ?SetAttribute2nd@CACQualities@@QAEHKABVSecondaryAttribute@@@Z
593310 ?SetAttribute2nd@CACQualities@@QAEHKKAAK0@Z
593380 ?InqSkill@CACQualities@@QBEHKAAJH@Z
593570 ?InqRunRate@CACQualities@@UBEHAAM@Z
593740 ?InqJumpVelocity@CACQualities@@UBEHMAAM@Z
593920 ?UnPack@?$PackableHashTable@KVSkill@@@@UAEHAAPAXI@Z
593A30 ?Destroy@?$PackableHashTable@KVSkill@@@@QAEXXZ
593A60 ?EmptyContents@?$PackableHashTable@KVSkill@@@@QAEXXZ
593AC0 ??_E?$PackableHashTable@KVSkill@@@@UAEPAXI@Z
593AF0 ?SetAttribute2nd@CACQualities@@QAEHKK@Z
593B10 ?Clear@CACQualities@@IAEXXZ
593C00 ?InqWeenieTypeString@CACQualities@@MBEHPADI@Z
593C20 ?SetPackHeader@CACQualities@@AAEXAAK@Z
593CC0 ?GetPackSize@CACQualities@@MAEIXZ
593DE0 ?PlayerIsPSRLead@PlayerDesc@@QAE_NXZ
593E30 ?PlayerIsPSR@PlayerDesc@@QAE_NXZ
593E70 ??0CACQualities@@QAE@V?$IDClass@U_tagDataID@@$0CA@$0A@@@@Z
593EF0 ?GetDBOType@CACQualities@@UBEKXZ
593F00 ??_EPlayerDesc@@WDA@AEPAXI@Z
593F10 ??_ECACQualities@@WDI@AEPAXI@Z
593F20 ?QueryInterface@PlayerDesc@@UAE?AVTResult@@ABUTurbine_GUID@@PAPAX@Z
593FE0 ?Allocate@CACQualities@@UBEPAVDBObj@@XZ
593FF0 ?Allocator@CACQualities@@SAPAVDBObj@@XZ
594020 ?Pack@CACQualities@@UAEIAAPAXI@Z
594130 ?_QueryInterface@?$InterfacePtr@VInterface@@@@AAE?AVTResult@@PAVPlayerDesc@@@Z
5941C0 ?Pack@CACQualities@@W7AEIAAPAXI@Z
5941D0 ?UnPack@CACQualities@@UAEHAAPAXI@Z
594620 ??0PlayerDesc@@QAE@XZ
5946A0 ?AddRef@PlayerDesc@@UBEKXZ
5946B0 ?Release@PlayerDesc@@UBEKXZ
5946C0 ??_GCACQualities@@UAEPAXI@Z
594710 ?Cleanup@PlayerDesc@@QAEXXZ
594760 ?UnPack@CACQualities@@W7AEHAAPAXI@Z
594770 ?InqVitae@CEnchantmentRegistry@@QBEHAAVEnchantment@@@Z
594790 ?GetVitaeValue@CEnchantmentRegistry@@QBEMXZ
5947B0 ?pack_size@CEnchantmentRegistry@@QAEIXZ
594820 ??0CEnchantmentRegistry@@QAE@XZ
594840 ?Clear@CEnchantmentRegistry@@IAEXXZ
594890 ?UpdateVitae@CEnchantmentRegistry@@QAEHABVEnchantment@@@Z
5948F0 ?Pack@CEnchantmentRegistry@@UAEIAAPAXI@Z
594980 ?GetSpellBase@CSpellTable@@QBEPBVCSpellBase@@K@Z
5949C0 ?Enchant@CEnchantmentRegistry@@IBEHAAV?$PackableList@VEnchantment@@@@AAM@Z
5949F0 ?Enchant@CEnchantmentRegistry@@IBEHAAV?$PackableList@VEnchantment@@@@AAUEnchantedQualityDetails@@@Z
594A20 ?ReplaceEnchantmentInList@CEnchantmentRegistry@@IAEHABVEnchantment@@PAV?$PackableList@VEnchantment@@@@@Z
594A70 ?IsEnchantmentInList@CEnchantmentRegistry@@IBEHKPBV?$PackableList@VEnchantment@@@@@Z
594AB0 ?UpdateSpellTotals@CEnchantmentRegistry@@IAEHKJ@Z
594B40 ?CountSpellsInList@CEnchantmentRegistry@@IAEXPAV?$PackableList@VEnchantment@@@@@Z
594B70 ?AttemptToReplaceSpellInList@CEnchantmentRegistry@@IAEHABVEnchantment@@AAPAV?$PackableList@VEnchantment@@@@@Z
594BD0 ?InsertHead@?$PackableList@VEnchantment@@@@QAEXABVEnchantment@@@Z
594C30 ??_ECEnchantmentRegistry@@UAEPAXI@Z
594C60 ?AddEnchantmentToList@CEnchantmentRegistry@@IAEHABVEnchantment@@AAPAV?$PackableList@VEnchantment@@@@@Z
594CE0 ?UpdateEnchantment@CEnchantmentRegistry@@QAEHABVEnchantment@@@Z
594DC0 ?UpdateEnchantmentList@CEnchantmentRegistry@@QAEHAAV?$PackableList@VEnchantment@@@@@Z
594DF0 ?IsEnchanted@CEnchantmentRegistry@@QBEHK@Z
594E60 ?UnPack@CEnchantmentRegistry@@UAEHAAPAXI@Z
595030 ?Remove@?$PackableList@VEnchantment@@@@QAEHAAVEnchantment@@@Z
595120 ?Duel@CEnchantmentRegistry@@IBEHABVEnchantment@@AAV?$PackableList@VEnchantment@@@@@Z
5951D0 ?RemoveEnchantmentFromList@CEnchantmentRegistry@@IAEHKPAV?$PackableList@VEnchantment@@@@@Z
595230 ?OnCooldown@CEnchantmentRegistry@@QBEHKAAN@Z
5952A0 ?GetEnchantmentsInEffectFromList@CEnchantmentRegistry@@IBEHPAV?$PackableList@VEnchantment@@@@AAV2@@Z
5952E0 ?CullEnchantmentsFromList@CEnchantmentRegistry@@IBEHPAV?$PackableList@VEnchantment@@@@KKAAV2@@Z
595350 ?RemoveEnchantment@CEnchantmentRegistry@@QAEHK@Z
5953B0 ?GetEnchantmentsInEffect@CEnchantmentRegistry@@QBEHAAV?$PackableList@VEnchantment@@@@@Z
5953E0 ?EnchantAttribute@CEnchantmentRegistry@@QBEHKAAK@Z
5954E0 ?EnchantAttribute2nd@CEnchantmentRegistry@@QBEHKAAK@Z
595620 ?EnchantSkill@CEnchantmentRegistry@@QBEHKAAJ@Z
595710 ?EnchantInt@CEnchantmentRegistry@@QBEHKAAJH@Z
595820 ?EnchantFloat@CEnchantmentRegistry@@QBEHKAAN@Z
595900 ?GetFloatEnchantmentDetails@CEnchantmentRegistry@@QBEHKAAUEnchantedQualityDetails@@@Z
5959B0 ?RemoveEnchantments@CEnchantmentRegistry@@QAEHAAV?$PackableList@K@@@Z
595AC0 ?PurgeEnchantmentList@CEnchantmentRegistry@@IAEHPAV?$PackableList@VEnchantment@@@@@Z
595B80 ?PurgeBadEnchantmentList@CEnchantmentRegistry@@IAEHPAV?$PackableList@VEnchantment@@@@@Z
595C50 ?PurgeEnchantments@CEnchantmentRegistry@@QAEHXZ
595C70 ?PurgeBadEnchantments@CEnchantmentRegistry@@QAEHXZ
595C90 ?UnPack@CEmoteTable@@UAEHAAPAXI@Z
595CA0 ?InsertTail@?$PackableList@VEmoteSet@@@@QAEKABVEmoteSet@@@Z
595D10 ?Pack@?$PackableHashTable@KV?$PackableList@VEmoteSet@@@@@@UAEIAAPAXI@Z
5963C0 ?begin@?$PackableHashTable@KVSpellBookPage@@@@QBE?AV?$PackableHashIterator@KVSpellBookPage@@@@XZ
596420 ?Exists@CSpellBook@@QBEHK@Z
596470 ?TranscribeSpells@CSpellBook@@QBEHAAV?$PackableList@K@@@Z
596600 ?EmptyContents@?$PackableHashTable@KVSpellBookPage@@@@QAEXXZ
596660 ?add@?$PackableHashTable@KVSpellBookPage@@@@QAEHABKABVSpellBookPage@@@Z
596700 ?remove@?$PackableHashTable@KVSpellBookPage@@@@QAEHABKAAVSpellBookPage@@@Z
596790 ?AddSpell@CSpellBook@@QAEHKABVSpellBookPage@@@Z
5967C0 ?RemoveSpell@CSpellBook@@QAEHKAAVSpellBookPage@@@Z
5967E0 ?Prune@CSpellBook@@AAEXXZ
5968B0 ??1?$PackableHashTable@KVSpellBookPage@@@@UAE@XZ
5968F0 ?UnPack@?$PackableHashTable@KVSpellBookPage@@@@UAEHAAPAXI@Z
596A30 ??_E?$PackableHashTable@KVSpellBookPage@@@@UAEPAXI@Z
596A80 ??0CSpellBook@@QAE@XZ
596AB0 ?UnPack@CSpellBook@@UAEHAAPAXI@Z
596B10 ??_GCSpellBook@@UAEPAXI@Z
596B40 ?Clear@CBaseQualities@@IAEXXZ
596BD0 ?SetPackHeader@CBaseQualities@@AAEXAAK@Z
596C30 ?GetPackSize@CBaseQualities@@IAEIXZ
596D00 ??0CBaseQualities@@QAE@V?$IDClass@U_tagDataID@@$0CA@$0A@@@@Z
596D30 ??1CBaseQualities@@UAE@XZ
596D40 ?Pack@CBaseQualities@@UAEIAAPAXI@Z
596E10 ?UnPack@CBaseQualities@@UAEHAAPAXI@Z
5970F0 ??4?$PackableHashTable@K_J@@QAEAAV0@ABV0@@Z
597170 ??4?$PackableHashTable@KV?$PStringBase@D@AC1Legacy@@@@QAEAAV0@ABV0@@Z
5971F0 ?InsertTail@?$PackableList@VEmote@@@@QAEKABVEmote@@@Z
597270 ?Pack@?$PackableList@VEmote@@@@UAEIAAPAXI@Z
5972C0 ?pack_size@?$PackableList@VEmote@@@@IAEIXZ
597300 ?pack_size@EmoteSet@@QAEIXZ
5973A0 ?Pack@EmoteSet@@UAEIAAPAXI@Z
5974A0 ?Flush@?$PackableList@VEmote@@@@QAEXXZ
597520 ?UnPack@EmoteSet@@UAEHAAPAXI@Z
597630 ??4?$PackableList@VEmote@@@@QAEAAV0@ABV0@@Z
597670 ?UnPack@?$PackableList@VEmote@@@@UAEHAAPAXI@Z
597720 ??_G?$PackableList@VEmote@@@@UAEPAXI@Z
597750 ??0EmoteSet@@QAE@XZ
5978A0 ??_GEmoteSet@@UAEPAXI@Z
597900 ??0EmoteSet@@QAE@ABV0@@Z
597950 ?InqSkillForSpell@CSpellBase@@QBEKXZ
5979A0 ?InqDuration@CSpellBase@@QBENXZ
5979D0 ??4CSpellBase@@QAEAAV0@ABV0@@Z
597B00 ?packed_size@CSpellBase@@AAEIXZ
597B70 ?Pack@CSpellBase@@UAEIAAPAXI@Z
597CD0 ??0CSpellBase@@QAE@ABV0@@Z
597D40 ?InqName@SpellComponentBase@@QBE?AV?$PStringBase@D@AC1Legacy@@XZ
597DB0 ?InqDescription@CSpellBase@@QBE?AV?$PStringBase@D@AC1Legacy@@XZ
597E20 ?InqSpellFormula@CSpellBase@@QBE?AVSpellFormula@@XZ
597F70 ?InqCustomizedSpellFormula@CSpellBase@@QBE?AVSpellFormula@@ABV?$PStringBase@D@AC1Legacy@@@Z
597FC0 ?InqScarabOnlyFormula@CSpellBase@@QBE?AVSpellFormula@@XZ
5981A0 ?InqTargetType@CSpellBase@@QBEKXZ
5981D0 ?InqSpellLevelByRoughHeuristic@CSpellBase@@QBEKXZ
598200 ?UnPack@CSpellBase@@UAEHAAPAXI@Z
598370 ?SchoolEnumToName@CSpellBase@@SA?AV?$PStringBase@D@AC1Legacy@@K@Z
598410 ?IsUntargeted@CSpellBase@@QBEHXZ
598430 ??_G?$PackableHashIterator@KVCSpellBase@@@@UAEPAXI@Z
598450 ?Pack@CSpellTable@@UAEIAAPAXI@Z
5984C0 ?UnPack@CSpellTable@@UAEHAAPAXI@Z
598550 ?begin@?$PackableHashTable@KVCSpellBase@@@@QBE?AV?$PackableHashIterator@KVCSpellBase@@@@XZ
5985B0 ??_E?$IntrusiveHashTable@KPAV?$HashTableData@KVSpellSet@@@@$0A@@@UAEPAXI@Z
5985F0 ?Pack@?$PackableHashTable@KVCSpellBase@@@@UAEIAAPAXI@Z
598680 ?pack_size@?$PackableHashTable@KVCSpellBase@@@@QAEIXZ
5986E0 ?GetSubDataIDs@CSpellTable@@MBEXAAVQualifiedDataIDArray@@@Z
598760 ?EmptyContents@?$PackableHashTable@KVCSpellBase@@@@QAEXXZ
598840 ?UnPack@?$PackableHashTable@KVCSpellBase@@@@UAEHAAPAXI@Z
5989A0 ?add@?$PackableHashTable@KVCSpellBase@@@@QAEHABKABVCSpellBase@@@Z
598A50 ??_E?$PackableHashTable@KVCSpellBase@@@@UAEPAXI@Z
598AA0 ??0?$IntrusiveHashTable@KPAV?$HashTableData@KVSpellSet@@@@$0A@@@QAE@I@Z
598B30 ??_GSpellSetTierList@@UAEPAXI@Z
598B70 ?pop_front@?$List@VSpellSetTierList@@@AC1Legacy@@QAEHAAVSpellSetTierList@@@Z
598BF0 ?flush@?$List@VSpellSetTierList@@@AC1Legacy@@QAEXXZ
598CA0 ??_E?$PList@VSpellSetTierList@@@@WBA@AEPAXI@Z
598CB0 ?Pack@?$PList@VSpellSetTierList@@@@UAEIAAPAXI@Z
598D00 ?GetPackSize@?$PList@VSpellSetTierList@@@@UAEIXZ
598D40 ?UnPack@?$PList@VSpellSetTierList@@@@UAEHAAPAXI@Z
598E40 ?push_back@?$List@VSpellSetTierList@@@AC1Legacy@@QAEHABVSpellSetTierList@@@Z
598EB0 ??_E?$List@VSpellSetTierList@@@AC1Legacy@@UAEPAXI@Z
598EE0 ??_E?$PList@VSpellSetTierList@@@@UAEPAXI@Z
598F20 ??0SpellSet@@QAE@XZ
598F50 ??_GSpellSet@@UAEPAXI@Z
598F90 ?delete_contents@?$IntrusiveHashTable@KPAV?$HashTableData@KVSpellSet@@@@$0A@@@QAEXXZ
599090 ??_E?$PHashTable@KVSpellSet@@@@WHE@AEPAXI@Z
5990A0 ?StreamPack@?$PHashTable@KVSpellSet@@@@UAEHW4STREAMTYPE@@AAPAXAAI@Z
599310 ?add_for_unpacking@?$IntrusiveHashTable@KPAV?$HashTableData@KPAVStringTableString@@@@$0A@@@QAE_NPAV?$HashTableData@KPAVStringTableString@@@@0@Z
5993E0 ??0CSpellTable@@QAE@V?$IDClass@U_tagDataID@@$0CA@$0A@@@@Z
599460 ??_ECSpellTable@@WDA@AEPAXI@Z
599470 ??_ECSpellTable@@UAEPAXI@Z
599490 ??1CSpellTable@@UAE@XZ
599530 ?Allocate@CSpellTable@@UBEPAVDBObj@@XZ
599540 ?BuildSpell@Spell@@SAPAV1@W4SpellType@@@Z
5996B4 def_59954E
5996B8 jpt_59954E
599700 ??4Spell@@UAEAAV0@ABV0@@Z
599710 ??0MetaSpell@@QAE@XZ
599730 ?InqDuration@MetaSpell@@QBENXZ
599750 ?Pack@MetaSpell@@UAEIAAPAXI@Z
5997B0 ?UnPack@MetaSpell@@UAEHAAPAXI@Z
599820 ??0Spell@@QAE@XZ
599830 ?InqDuration@Spell@@UBENXZ
599840 ?Pack@Spell@@UAEIAAPAXI@Z
599860 ?UnPack@Spell@@UAEHAAPAXI@Z
599890 ??1MetaSpell@@UAE@XZ
5998C0 ??4MetaSpell@@QAEAAV0@ABV0@@Z
599920 ??_EMetaSpell@@UAEPAXI@Z
599960 ?Pack@DispelSpell@@UAEIAAPAXI@Z
599990 ?UnPack@DispelSpell@@UAEHAAPAXI@Z
5999C0 ??0DispelSpell@@QAE@XZ
5999E0 ?SetEqual@DispelSpell@@UAEXPBVSpell@@0@Z
599A00 ??0FellowshipDispelSpell@@QAE@XZ
599A20 ??0PortalSendingSpell@@QAE@XZ
599A60 ??0FellowshipPortalSendingSpell@@QAE@XZ
599A80 ??4EnchantmentSpell@@QAEAAV0@ABV0@@Z
599B10 ?BuildEnchantment@EnchantmentSpell@@UBEHAAVEnchantment@@@Z
599B50 ?pack_size@EnchantmentSpell@@UAEIXZ
599B60 ??0EnchantmentSpell@@QAE@XZ
599BA0 ?InqDuration@PortalSummonSpell@@UBENXZ
599D70 ?UnPack@ProjectileEnchantmentSpell@@UAEHAAPAXI@Z
599E30 ?BuildEnchantment@ProjectileEnchantmentSpell@@UBEHAAVEnchantment@@@Z
599E50 ??0ProjectileSpell@@QAE@XZ
599E70 ??0ProjectileLifeSpell@@QAE@XZ
599E90 ??0ProjectileEnchantmentSpell@@QAE@XZ
599EB0 ?pack_size@PortalSummonSpell@@UAEIXZ
599FB0 ?SetEqual@BoostSpell@@UAEXPBVSpell@@0@Z
599FD0 j_?pack_size@EtherealHook@@UAEIXZ
59A020 ??0TransferSpell@@QAE@XZ
59A040 ??0CAllegianceData@@QAE@XZ
59A060 ??_GCAllegianceData@@UAEPAXI@Z
59A080 ??0CAllegianceProfile@@QAE@XZ
59A0A0 ??_ECAllegianceProfile@@UAEPAXI@Z
59A0C0 ??4CContractTracker@@QAEAAV0@ABV0@@Z
59A100 ??0CContractTracker@@QAE@XZ
59A130 ??0CContractTracker@@QAE@ABV0@@Z
59A180 CContractTracker::Pack
59A1E0 ?UnPack@CContractTracker@@UAEHAAPAXI@Z
59A250 ??0CContractTrackerTable@@QAE@XZ
59A280 ??1QuestDef@@UAE@XZ
59A2B0 ?EmptyContents@?$PackableHashTable@V?$CaseInsensitiveStringBase@V?$PStringBase@D@AC1Legacy@@@AC1Legacy@@VQuestDef@@@@QAEXXZ
59A370 ??1?$PackableHashTable@V?$CaseInsensitiveStringBase@V?$PStringBase@D@AC1Legacy@@@AC1Legacy@@VQuestDef@@@@UAE@XZ
59A3B0 ?Pack@?$PackableHashTable@V?$CaseInsensitiveStringBase@V?$PStringBase@D@AC1Legacy@@@AC1Legacy@@VQuestDef@@@@UAEIAAPAXI@Z
59A440 ?pack_size@?$PackableHashTable@V?$CaseInsensitiveStringBase@V?$PStringBase@D@AC1Legacy@@@AC1Legacy@@VQuestDef@@@@QAEIXZ
59A4B0 ?UnPack@?$PackableHashTable@V?$CaseInsensitiveStringBase@V?$PStringBase@D@AC1Legacy@@@AC1Legacy@@VQuestDef@@@@UAEHAAPAXI@Z
59A610 ?add@?$PackableHashTable@V?$CaseInsensitiveStringBase@V?$PStringBase@D@AC1Legacy@@@AC1Legacy@@VQuestDef@@@@QAEHABV?$CaseInsensitiveStringBase@V?$PStringBase@D@AC1Legacy@@@AC1Legacy@@ABVQuestDef@@@Z
59A670 ??0?$PackableHashData@V?$CaseInsensitiveStringBase@V?$PStringBase@D@AC1Legacy@@@AC1Legacy@@VQuestDef@@@@QAE@ABV?$CaseInsensitiveStringBase@V?$PStringBase@D@AC1Legacy@@@AC1Legacy@@ABVQuestDef@@H@Z
59A6C0 ??0QuestDef@@QAE@ABV0@@Z
59A700 QuestDef::vector_deleting_destructor
59A740 ?lookup@?$PackableHashTable@V?$CaseInsensitiveStringBase@V?$PStringBase@D@AC1Legacy@@@AC1Legacy@@VQuestDef@@@@QBEPAVQuestDef@@ABV?$CaseInsensitiveStringBase@V?$PStringBase@D@AC1Legacy@@@AC1Legacy@@@Z
59A7A0 ??_E?$PackableHashTable@V?$CaseInsensitiveStringBase@V?$PStringBase@D@AC1Legacy@@@AC1Legacy@@VQuestDef@@@@UAEPAXI@Z
59A7F0 ??1QuestDefDB@@UAE@XZ
59A850 ??_ECQuestDefDB@@WDA@AEPAXI@Z
59A860 ??0CQuestDefDB@@QAE@XZ
59A880 ??_ECQuestDefDB@@UAEPAXI@Z
59A8A0 ?Allocate@CQuestDefDB@@UBEPAVDBObj@@XZ
59A8B0 ??_G?$PackableHashIterator@KVCContract@@@@UAEPAXI@Z
59A8D0 ?UnPack@SkillTable@@UAEHAAPAXI@Z
59A930 ?begin@?$PackableHashTable@KVCContract@@@@QBE?AV?$PackableHashIterator@KVCContract@@@@XZ
59A990 ?Pack@?$PackableHashTable@KVCContract@@@@UAEIAAPAXI@Z
59AA20 ?pack_size@?$PackableHashTable@KVCContract@@@@QAEIXZ
59AA80 ??1CContract@@UAE@XZ
59ABD0 ?GetSubDataIDs@CContractTable@@MBEXAAVQualifiedDataIDArray@@@Z
59AC30 ?EmptyContents@?$PackableHashTable@KVCContract@@@@QAEXXZ
59AC90 ??1?$PackableHashTable@KVCContract@@@@UAE@XZ
59ACD0 ?UnPack@?$PackableHashTable@KVCContract@@@@UAEHAAPAXI@Z
59AE30 ?add@?$PackableHashTable@KVCContract@@@@QAEHABKABVCContract@@@Z
59AEE0 ??_E?$PackableHashTable@KVCContract@@@@UAEPAXI@Z
59AF30 ??0CContractTable@@QAE@V?$IDClass@U_tagDataID@@$0CA@$0A@@@@Z
59AF80 ??_ECContractTable@@WDA@AEPAXI@Z
59AF90 ??_ECContractTable@@UAEPAXI@Z
59AFD0 ?Allocate@CContractTable@@UBEPAVDBObj@@XZ
59AFE0 ??0CContract@@QAE@XZ
59B140 ??0CContract@@QAE@ABV0@@Z
59B250 ??_GCContract@@UAEPAXI@Z
59B270 ?GetPackSize@CContract@@IAEIK@Z
59B390 ?Pack@CContract@@UAEIAAPAXI@Z
59B470 ?UnPack@CContract@@UAEHAAPAXI@Z
59B570 ??0CFellowship@@QAE@XZ
59B590 ??_ECFellowship@@UAEPAXI@Z
59B5B0 ??0CShortCutData@@QAE@JKK@Z
59B5E0 ??1CPlayerModule@@UAE@XZ
59B600 ?IsAutoSaveOption@CPlayerModule@@IAE_NW4PlayerOption@@@Z
59B670 ?SaveToServer@CPlayerModule@@QAEX_N@Z
59B6A0 ?OnInitialize@CPlayerModule@@QAEXXZ
59B720 ?UseTime@CPlayerModule@@QAEXXZ
59B760 ??0CPlayerModule@@QAE@XZ
59B7A0 ??_GCPlayerModule@@UAEPAXI@Z
59B7E0 ?QueryInterface@CPlayerModule@@UAE?AVTResult@@ABUTurbine_GUID@@PAPAX@Z
59B8A0 ?OnChanged@CPlayerModule@@MAEXABVBaseProperty@@K@Z
59B8F0 ?OnChanged@CPlayerModule@@MAEXW4PlayerOption@@@Z
59BA50 ?ScreenToViewTransform@PrimD3DRender@@SAXPAVVector3@AC1Legacy@@MM@Z
59BB50 ?SetFOVInternal@PrimD3DRender@@MAEXM@Z
59BBA0 ?GetDirection@LIGHTINFO@@QBE?AVVector3@AC1Legacy@@XZ
59BBE0 ?CleanupInternal@PrimD3DRender@@MAEXXZ
59BC00 ?InitializeLights@PrimD3DRender@@KAJXZ
59BD40 ?config_hardware_light@PrimD3DRender@@SAHHPAU_D3DLIGHT9@@KPAVLIGHTINFO@@@Z
59BEE0 ?UpdateLightsInternal@PrimD3DRender@@MBEXXZ
59C5F0 ?positionPushInternal@PrimD3DRender@@MBEXHPBVPosition@@@Z
59C790 ?positionPopInternal@PrimD3DRender@@MBEHXZ
59C840 ?CalcObjectMatrixInternal@PrimD3DRender@@MAEXXZ
59C990 ?InitInternal@PrimD3DRender@@MAEHXZ
59C9A0 ?xformStart@PrimD3DRender@@SAPAUVec2Dscreen@@PBVVector3@AC1Legacy@@H@Z
59CAB0 ?xformPointInternal@PrimD3DRender@@UBE?AW4BoundingType@@ABVVector3@AC1Legacy@@AAVVec2D@@@Z
59CB40 ??0RenderStateCacheType@@QAE@XZ
59CC40 ??_GRenderVertexStreamD3D@@UAEPAXI@Z
59CC70 ?InitInternal@D3DPolyRender@@MAEHXZ
59CC90 ?CleanupInternal@D3DPolyRender@@MAEXXZ
59CCA0 ?DrawPortalPolyInternal@D3DPolyRender@@SAXPAVCPolygon@@_N@Z
59CFD0 ?SelectBestAdapter@D3DPolyRender@@IAE_NXZ
59D090 copyVert
59D160 ?SetDetailTiling@D3DPolyRender@@SA_NPAVMeshBuffer@@M@Z
59D1E0 ?DestroyMesh@D3DPolyRender@@SA_NAAPAVMeshBuffer@@@Z
59D240 ?AddMeshToAlphaList@D3DPolyRender@@KA_NPAVMeshBuffer@@HPAVCSurface@@_N22@Z
59D370 ?ReferenceDynamicIndexStream@D3DPolyRender@@QAEPAVRenderIndexStreamD3D@@XZ
59D3E0 ?Reset@?$SmartArray@E$0A@@@QAEXXZ
59D420 ?convert_to_local@LIGHTINFO@@SAXAAV1@0ABVFrame@@@Z
59D4C0 ?GetTextureMap@CSurface@@QAEPAVImgTex@@XZ
59D520 ?SetSurface@D3DPolyRender@@KAJPBVCSurface@@_N11@Z
59D900 ?calc_point_light@@YAXPAUCUSTOM_D3D_VERTEX2@@AAM11ABVLIGHTINFO@@@Z
59DA60 ?RenderMeshSubset@D3DPolyRender@@SA_NHPAVCSurface@@_N1PAVMeshBuffer@@@Z
59E040 ?grow@?$SmartArray@U_D3DXATTRIBUTERANGE@@$0A@@@QAE_NK@Z
59E0F0 ?SetStaticLightingVertexColors@D3DPolyRender@@SA_NPAVMeshBuffer@@AAVPosition@@@Z
59E3F0 ?FlushAlphaList@D3DPolyRender@@SA_NM@Z
59E5B0 ?DrawMesh@D3DPolyRender@@SA_NHPAPAVCSurface@@PAVMeshBuffer@@_N@Z
59E760 ?SetSurface@D3DPolyRender@@SAJPAVCPolygon@@W4Sidedness@@H@Z
59E7C0 ?CreateDxDiagReportFile@D3DPolyRender@@UAE_NAAV?$PStringBase@D@@@Z
59E8A0 ?DrawMesh@D3DPolyRender@@SA_NPAVCGfxObj@@PAVMeshBuffer@@@Z
59E8D0 ?DrawPolyInternal@D3DPolyRender@@KAXPAVCPolygon@@@Z
59ECB0 ?polyListFinishInternal@D3DPolyRender@@MBEXXZ
59ECE0 ?ResetDynamicBuffers@D3DPolyRender@@QAE_NXZ
59EDE0 ??0RenderDevice@@QAE@XZ
59EEC0 ?IsResetPossible@RenderDevice@@UAE_NXZ
59EED0 ??1RenderDevice@@UAE@XZ
59EF10 ??_GRenderDevice@@UAEPAXI@Z
59EF60 ??_GRenderDeviceD3D@@UAEPAXI@Z
59EFA0 ?DetectDisplayModes@D3DPolyRender@@IAE_NXZ
59F0B0 ?ConstructMesh@D3DPolyRender@@SA_NHPAPAVCSurface@@AAVCVertexArray@@HPAVCPolygon@@M_NPAPAVMeshBuffer@@@Z
59FAA0 ?CreateRenderDevice@D3DPolyRender@@MAEPAVRenderDevice@@XZ
59FB00 ?Startup@D3DPolyRender@@UAE_NABVRenderConfig@@@Z
59FBA0 ?ConstructMesh@D3DPolyRender@@SA_NPAVCGfxObj@@PAPAVMeshBuffer@@@Z
59FBE0 ?Begin@D3DPolyRender@@AAEXXZ
59FE00 ?End@D3DPolyRender@@AAEXXZ
59FFA0 ?Shutdown@D3DPolyRender@@UAEXXZ
5A0080 ??_ERenderIndexBufferD3D@@UAEPAXI@Z
5A00C0 ?Init@RenderDeviceD3D@@QAEHXZ
5A01D0 ?SetLandscape@RenderDeviceD3D@@UBEXPAVLScape@@@Z
5A01E0 ?DrawInside@RenderDeviceD3D@@UBEXPAVCEnvCell@@@Z
5A01F0 ?DrawPortal@RenderDeviceD3D@@UBEXPAVCPortalPoly@@HH@Z
5A0230 ?DrawLandCell@RenderDeviceD3D@@UBEXPAVCLandCell@@@Z
5A0250 ?DrawSortCell@RenderDeviceD3D@@UBEXPAVCSortCell@@@Z
5A0280 ?DrawEnvCell@RenderDeviceD3D@@UBEXPAVCEnvCell@@@Z
5A03B0 ?DrawBuilding@RenderDeviceD3D@@UBEXPAVCBuildingObj@@@Z
5A0470 ?DrawMeshInternal@RenderDeviceD3D@@IBE?AW4ObjectDrawStatus@@PAVCGfxObj@@_NW4BoundingType@@@Z
5A0520 ?CreateSurface@RenderDeviceD3D@@UBEPAVRenderSurface@@XZ
5A0540 ?CreateTexture@RenderDeviceD3D@@UBEPAVRenderTexture@@XZ
5A0560 ?CreateIndexBuffer@RenderDeviceD3D@@UBEPAVRenderIndexBuffer@@XZ
5A05A0 ?SetVertexStream@RenderDeviceD3D@@QAEXKPAVRenderVertexStreamD3D@@@Z
5A05E0 ?IsResetPossible@RenderDeviceD3D@@UAE_NXZ
5A0610 ?ApplyVertexFormat@RenderDeviceD3D@@QAEXABVVertexFormatInfo@@@Z
5A0630 ?DetectDeviceCaps@RenderDeviceD3D@@AAE_NXZ
5A0800 ?SetViewport@RenderDeviceD3D@@EAEXKKKK_N@Z
5A0880 ?SelectPixelFormat@RenderDeviceD3D@@AAE?AW4PixelFormatID@@W42@KW4_D3DRESOURCETYPE@@_NPBEK@Z
5A0980 ?ChoosePixelFormats@RenderDeviceD3D@@AAE_NW4PixelFormatID@@@Z
5A0BC0 ?CheckDisplayModes@RenderDeviceD3D@@AAE_NW4PixelFormatID@@KAAK@Z
5A0C80 ?ReleaseD3DResources@RenderDeviceD3D@@AAEXXZ
5A0CE0 ?SetupDisplayAspectRatio@RenderDeviceD3D@@QAEXXZ
5A0D60 ?SetMipmapLODBiasForAllSamplers@RenderDeviceD3D@@QAEXM@Z
5A0D90 ?BeginScene@RenderDeviceD3D@@UAEXXZ
5A0E10 ?EndScene@RenderDeviceD3D@@UAEXXZ
5A0E40 ?Clear@RenderDeviceD3D@@UAEXKABVRGBAColor@@M@Z
5A0F60 ?Flip@RenderDeviceD3D@@UAEXXZ
5A0FF0 ?SetCurrentMaterial@RenderDeviceD3D@@QAEXPBVCMaterial@@_N@Z
5A1080 ?SetSolidColorTextureColor@RenderDeviceD3D@@QAE_NK_N@Z
5A10F0 ?SetDefaultDeviceStates@RenderDeviceD3D@@QAE_NXZ
5A1260 ?SetRenderTarget@RenderDeviceD3D@@UAEXKPAVRenderSurface@@0@Z
5A1320 ?GenerateSurfaceFromFrontBuffer@RenderDeviceD3D@@UAEPAVRenderSurface@@XZ
5A1390 ?EndRenderingDebugText@RenderDeviceD3D@@QAEXXZ
5A13A0 ?RenderDebugText@RenderDeviceD3D@@QAEXJJPBDK@Z
5A13D0 ?RenderPrimitivesInHardware@RenderDeviceD3D@@QAE_NW4PrimType@@KAAVRenderVertexStreamD3D@@KKK@Z
5A1460 ?RenderDynamicPrimitives@RenderDeviceD3D@@QAE_NW4PrimType@@KPBXK@Z
5A1520 ?DrawPrimitiveUP@RenderDeviceD3D@@SAJW4_D3DPRIMITIVETYPE@@IPBXI@Z
5A1560 ?GetFFFogEnable@RenderDeviceD3D@@QAE_NXZ
5A1570 ?IsAvailableVideoMemoryLow@RenderDeviceD3D@@QAE_NXZ
5A15B0 ?InvalidateCachedTexturePointer@RenderDeviceD3D@@QAEXPAX@Z
5A15E0 ?InvalidateCachedVertexBufferPointer@RenderDeviceD3D@@QAEXPAX@Z
5A1600 ?backup_curr_state@ACRender@@SAXXZ
5A16A0 ?restore_curr_state@ACRender@@SAXXZ
5A17A0 ?UpdateObjCell@RenderDeviceD3D@@IBEXPAVCObjCell@@@Z
5A1870 ?DrawObjCellForDummies@RenderDeviceD3D@@UBEXPAVCObjCell@@@Z
5A18B0 ?DrawPartCell@RenderDeviceD3D@@IBEXKPAVCPartCell@@K@Z
5A18F0 ?DrawBuildingLeaf@RenderDeviceD3D@@UBEXK@Z
5A1970 ?DrawMesh@RenderDeviceD3D@@UBE?AW4ObjectDrawStatus@@PAVCGfxObj@@ABVPosition@@_N@Z
5A1B40 ?GetD3DResources@RenderDeviceD3D@@AAE_NXZ
5A1C80 ?SetGamma@RenderDeviceD3D@@QAEXM_N@Z
5A1D80 ?SetupState@RenderDeviceD3D@@QAEXPBVMaterialLayer@@0KABVRGBAColor@@1_N@Z
5A2620 ?InitDebugFont@RenderDeviceD3D@@QAE_NXZ
5A26A0 ?BeginRenderingDebugText@RenderDeviceD3D@@QAEXXZ
5A26D0 ?RenderDynamicPrimitivesUsingMaterial@RenderDeviceD3D@@QAE_NW4PrimType@@KPBXKABVRenderMaterial@@2ABVRGBAColor@@@Z
5A27A0 ??0RenderVertexBufferD3D@@QAE@XZ
5A2810 ??_ERenderVertexBufferD3D@@UAEPAXI@Z
5A2830 ??1RenderVertexBufferD3D@@UAE@XZ
5A28D0 ?DrawBlock@RenderDeviceD3D@@UBEXPAVCLandBlock@@@Z
5A2B50 ?DrawObjCell@RenderDeviceD3D@@UBEXPAVCObjCell@@@Z
5A2B80 ?CreateVertexBuffer@RenderDeviceD3D@@UBEPAVRenderVertexBuffer@@XZ
5A2BA0 ?OnDeviceDisplayModeChange@RenderDeviceD3D@@AAEXXZ
5A2C50 ?End@RenderDeviceD3D@@AAEXXZ
5A2CF0 ?DetectDisplayFormats@RenderDeviceD3D@@AAE_NW4PixelFormatID@@@Z
5A2DF0 ?SetupDisplayInfo@RenderDeviceD3D@@AAE_NW4PixelFormatID@@00_N1@Z
5A2EF0 ?SelectBufferFormats@RenderDeviceD3D@@AAE_NABVRenderDevicePresentation@@AAW4PixelFormatID@@1AAK@Z
5A3310 ?Begin@RenderDeviceD3D@@AAEXXZ
5A3520 ?Shutdown@RenderDeviceD3D@@UAEXXZ
5A3560 ?SetupPresentation@RenderDeviceD3D@@AAE_NABVRenderDevicePresentation@@AAU_D3DPRESENT_PARAMETERS_@@@Z
5A3780 ?ResetDevice@RenderDeviceD3D@@UAE_NABVRenderDevicePresentation@@@Z
5A3910 ?Startup@RenderDeviceD3D@@UAE_NKABVRenderDevicePresentation@@ABVRenderDeviceConfig@@@Z
5A3BA0 ?SetAlphaBlendEnable@RenderDeviceD3D@@QAEX_N@Z
5A3BE0 ?SetAlphaTestEnable@RenderDeviceD3D@@QAEX_N@Z
5A3C20 ?SetAlphaTestFunction@RenderDeviceD3D@@QAEXW4AlphaTestFunc@@@Z
5A3C60 ?SetAlphaTestRef@RenderDeviceD3D@@QAEXK@Z
5A3CA0 ?SetBlendFunction@RenderDeviceD3D@@QAEXW4BlendMode@@0W4BlendOpType@@@Z
5A3D80 ?SetCullMode@RenderDeviceD3D@@QAEXW4CullModeType@@@Z
5A3DC0 ?SetDepthBias@RenderDeviceD3D@@QAEXM@Z
5A3E00 ?SetDepthBufferEnable@RenderDeviceD3D@@QAEX_N@Z
5A3E20 ?SetDepthBufferMode@RenderDeviceD3D@@QAEXW4DepthTestMode@@_N@Z
5A3EB0 ?SetFFAmbientColor32@RenderDeviceD3D@@QAEXK@Z
5A3EF0 ?SetFFDiffuseColorSource@RenderDeviceD3D@@QAEXW4ColorSource@@@Z
5A3F40 ?SetFFAmbientColorSource@RenderDeviceD3D@@QAEXW4ColorSource@@@Z
5A3F90 ?SetFFFogEnable@RenderDeviceD3D@@QAEX_N@Z
5A3FE0 ?SetFFFogSystemDisabled@RenderDeviceD3D@@QAEX_N@Z
5A4010 ?SetFFFogUserDisabled@RenderDeviceD3D@@QAEX_N@Z
5A4040 ?SetFFFogAlphaDisabled@RenderDeviceD3D@@QAEX_N@Z
5A4080 ?SetFFFogProperties@RenderDeviceD3D@@QAEXABVRGBAColor@@MM@Z
5A41B0 ?SetFFFogProperties@RenderDeviceD3D@@QAEXABVRGBAUnion@@MM@Z
5A41F0 ?SetFFLighting@RenderDeviceD3D@@QAEX_N@Z
5A4230 ?SetFFLightEnable@RenderDeviceD3D@@QAEXK_N@Z
5A4280 ?SetFFSpecularColorSource@RenderDeviceD3D@@QAEXW4ColorSource@@@Z
5A42D0 ?SetFFSpecularEnable@RenderDeviceD3D@@QAEX_N@Z
5A4310 ?SetFFEmissiveColorSource@RenderDeviceD3D@@QAEXW4ColorSource@@@Z
5A4350 ?SetFFTextureFactor32@RenderDeviceD3D@@QAEXK@Z
5A4390 ?SetFillMode@RenderDeviceD3D@@QAEXW4FillModeType@@@Z
5A43D0 ?SetMultiSampleAntialias@RenderDeviceD3D@@QAEX_N@Z
5A4420 ?SetSamplerAddressMode@RenderDeviceD3D@@QAEXKW4TexAddress@@0@Z
5A4460 ?SetSamplerFilterMode@RenderDeviceD3D@@QAEXKW4TexFilterMode@@00@Z
5A4520 ?SetSamplerMipmapLODBias@RenderDeviceD3D@@QAEXKM@Z
5A4550 ?SetStageFFAlphaSource@RenderDeviceD3D@@QAEXKW4TextureOp@@KK@Z
5A4610 ?SetStageFFColorSource@RenderDeviceD3D@@QAEXKW4TextureOp@@KK@Z
5A46C0 ?SetStageFFTexCoordIndex@RenderDeviceD3D@@QAEXKK@Z
5A4710 ?SetStageFFTextureTransformFlags@RenderDeviceD3D@@QAEXKK@Z
5A4760 ?SetStageTexture@RenderDeviceD3D@@QAEXKPAVRenderTexture@@@Z
5A47D0 ?SetStageTexture@RenderDeviceD3D@@QAEXKPAUIDirect3DTexture9@@@Z
5A4820 ?SetModelToWorldMatrix@RenderDeviceD3D@@QAEXABVMatrix4@@@Z
5A4860 ?SetWorldToViewMatrix@RenderDeviceD3D@@QAEXABVMatrix4@@@Z
5A4890 ?SetViewToClipMatrix@RenderDeviceD3D@@QAEXABVMatrix4@@@Z
5A48C0 ?TransformPixelToClipPoint@RenderDeviceD3D@@SAXJJJJAAM0@Z
5A4910 ?SetDefaultD3DStates@RenderDeviceD3D@@QAE_NXZ
5A53F0 ?remove_views@PView@@AAEXGPAK@Z
5A5430 ?GetClip@PView@@AAEXW4Sidedness@@PAVCPolygon@@PAPAUVec2Dscreen@@AAHH@Z
5A55B0 ?grow@?$DArray@Uportal_info@@@@QAEXK@Z
5A5620 ?grow@?$DArray@PAVCEnvCell@@@@QAEXK@Z
5A5680 ?grow@?$DArray@PAVCellListType@@@@QAEXK@Z
5A56E0 ?grow@?$DArray@PAUportal_view_type@@@@QAEXK@Z
5A5740 ?shrink@?$DArray@Uportal_info@@@@QAEXK@Z
5A57D0 ?shrink@?$DArray@PAVCEnvCell@@@@QAEXK@Z
5A5850 ?shrink@?$DArray@PAVCellListType@@@@QAEXK@Z
5A58D0 ?shrink@?$DArray@PAUportal_view_type@@@@QAEXK@Z
5A5950 ?DrawCells@PView@@AAEXH@Z
5A5C80 ?InitCell@PView@@AAEHPAVCEnvCell@@G@Z
5A5EA0 ?AddToCell@PView@@AAEXPAVCEnvCell@@G@Z
5A5F40 ?SetOtherSeen@PView@@AAEXPAVCEnvCell@@K@Z
5A5FA0 ?AdjustDrawList@PView@@AAEHPAVCEnvCell@@0@Z
5A6060 ?InsCellTodoList@PView@@AAEXPAVCEnvCell@@M@Z
5A6120 ?AdjustCellPlace@PView@@AAEXPAVCEnvCell@@0@Z
5A61A0 ?curr_view_push@CEnvCell@@QAEXXZ
5A6280 ??1PView@@QAE@XZ
5A6320 ?add_views@PView@@AAEXGPAK@Z
5A6360 ?FixCellList@PView@@AAEXPAVCEnvCell@@0@Z
5A6380 ??0PView@@QAE@H@Z
5A63E0 ?AddViewToPortals@PView@@AAEXPAVCEnvCell@@@Z
5A6510 ?OtherPortalClip@PView@@AAEHAAVCCellPortal@@PAPAUVec2Dscreen@@AAH@Z
5A6630 ?ClipPortals@PView@@AAEHPAVCEnvCell@@K@Z
5A6880 ?AdjustCellView@PView@@AAEXPAVCEnvCell@@@Z
5A68C0 ?ConstructView@PView@@AAEXPAVCEnvCell@@G@Z
5A6970 ?DrawInside@PView@@QAEXPAVCEnvCell@@@Z
5A6AB0 ?ConstructView@PView@@AAEHPAVCBldPortal@@PAVCPolygon@@HH@Z
5A6BC0 ?DrawPortal@PView@@QAEXPAVCPortalPoly@@HH@Z
5A6CC0 ?Place@ObjectDesc@@QAEXKKKAAVVector3@AC1Legacy@@@Z
5A6E60 ?GetObjFrame@ObjectDesc@@QAEXKKKABVVector3@AC1Legacy@@AAVFrame@@@Z
5A6F00 ??0ObjectDesc@@QAE@XZ
5A6F60 ?ObjAlign@ObjectDesc@@QAEXABVPlane@@ABVVector3@AC1Legacy@@AAVFrame@@@Z
5A6FD0 ??0Scene@@QAE@V?$IDClass@U_tagDataID@@$0CA@$0A@@@@Z
5A7000 ?GetDBOType@Scene@@UBEKXZ
5A7010 ??_EScene@@WDA@AEPAXI@Z
5A7020 ??_EObjectDesc@@QAEPAXI@Z
5A70F0 ?Allocate@Scene@@UBEPAVDBObj@@XZ
5A7100 ?Pack@ObjectDesc@@QAEXAAPAXI@Z
5A7220 ?UnPack@ObjectDesc@@QAEHAAPAXI@Z
5A7350 ?Destroy@Scene@@UAEXXZ
5A7380 ?Pack@Scene@@UAEIAAPAXI@Z
5A7410 ?UnPack@Scene@@UAEHAAPAXI@Z
5A74C0 ??_GScene@@UAEPAXI@Z
5A7510 ?CalcDayBegin@GameTime@@AAEXN@Z
5A75B0 ?CalcTimeOfDay@GameTime@@AAEXN@Z
5A7640 ?GetDateTimeString@GameTime@@AAEXPAD0HHHHH@Z
5A7770 ??0GameTime@@QAE@XZ
5A7800 ?UseTime@GameTime@@QAEXXZ
5A78B0 ?GetDateTimeString@GameTime@@AAEXPAD0@Z
5A78E0 ?Destroy@GameTime@@QAEXXZ
5A7A60 ?pack_size@GameTime@@QAEIXZ
5A7BD0 ?Pack@GameTime@@QAEIAAPAXAAI@Z
5A7DF0 ?UnPack@Season@@QAEHAAPAXAAI@Z
5A7E70 ?UnPack@WeekDay@@QAEHAAPAXAAI@Z
5A7EE0 ?UnPack@TimeOfDay@@QAEHAAPAXAAI@Z
5A7F80 ??1GameTime@@QAE@XZ
5A7FD0 ?UnPack@GameTime@@QAEHAAPAXAAI@Z
5A82F0 ??0CCliDatEvent@@IAE@PAEH@Z
5A8320 ?Pack@ClothingTable@@UAEIAAPAXI@Z
5A8380 ?UnPack@ClothingTable@@UAEHAAPAXI@Z
5A8400 ??_E?$PackableHashIterator@V?$IDClass@U_tagDataID@@$0CA@$0A@@@VClothingBase@@@@UAEPAXI@Z
5A8420 ??_E?$PackableHashIterator@KVCloPaletteTemplate@@@@UAEPAXI@Z
5A8440 ?Init@?$PackableHashTable@KVCContractTracker@@@@QAEHXZ
5A8490 ?begin@?$PackableHashTable@V?$IDClass@U_tagDataID@@$0CA@$0A@@@VClothingBase@@@@QBE?AV?$PackableHashIterator@V?$IDClass@U_tagDataID@@$0CA@$0A@@@VClothingBase@@@@XZ
5A84F0 ?lookup@?$PackableHashTable@KVCloPaletteTemplate@@@@QBEPAVCloPaletteTemplate@@ABK@Z
5A8530 ?begin@?$PackableHashTable@KVCloPaletteTemplate@@@@QBE?AV?$PackableHashIterator@KVCloPaletteTemplate@@@@XZ
5A8590 ?EmptyContents@?$PackableHashTable@KVCloPaletteTemplate@@@@QAEXXZ
5A85F0 ?GetCloPaletteTemplate@ClothingTable@@QBEPAVCloPaletteTemplate@@K@Z
5A8630 ?lookup@?$PackableHashTable@V?$IDClass@U_tagDataID@@$0CA@$0A@@@VClothingBase@@@@QBEPAVClothingBase@@ABV?$IDClass@U_tagDataID@@$0CA@$0A@@@@Z
5A8670 ?pack_size@?$PackableHashTable@KVCloPaletteTemplate@@@@QAEIXZ
5A86D0 ?EmptyContents@?$PackableHashTable@V?$IDClass@U_tagDataID@@$0CA@$0A@@@VClothingBase@@@@QAEXXZ
5A8730 ?GetSubDataIDs@ClothingTable@@UBEXAAVQualifiedDataIDArray@@@Z
5A89B0 ?BuildObjDesc@ClothingTable@@QBEHV?$IDClass@U_tagDataID@@$0CA@$0A@@@KABVShadePackage@@AAVObjDesc@@@Z
5A8CB0 ?Pack@?$PackableHashTable@V?$IDClass@U_tagDataID@@$0CA@$0A@@@VClothingBase@@@@UAEIAAPAXI@Z
5A8D40 ?pack_size@?$PackableHashTable@KVGuestInfo@@@@QAEIXZ
5A8DA0 ?UnPack@?$PackableHashTable@KVCloPaletteTemplate@@@@UAEHAAPAXI@Z
5A8EE0 ?add@?$PackableHashTable@KVCloPaletteTemplate@@@@QAEHABKABVCloPaletteTemplate@@@Z
5A8F80 ??_E?$PackableHashTable@KVCloPaletteTemplate@@@@UAEPAXI@Z
5A8FD0 ?UnPack@?$PackableHashTable@V?$IDClass@U_tagDataID@@$0CA@$0A@@@VClothingBase@@@@UAEHAAPAXI@Z
5A9120 ?add@?$PackableHashTable@V?$IDClass@U_tagDataID@@$0CA@$0A@@@VClothingBase@@@@QAEHABV?$IDClass@U_tagDataID@@$0CA@$0A@@@ABVClothingBase@@@Z
5A91C0 ??_E?$PackableHashTable@V?$IDClass@U_tagDataID@@$0CA@$0A@@@VClothingBase@@@@UAEPAXI@Z
5A9210 ??0ClothingTable@@QAE@V?$IDClass@U_tagDataID@@$0CA@$0A@@@@Z
5A9280 ??_EClothingTable@@WDA@AEPAXI@Z
5A9290 ??_EClothingTable@@UAEPAXI@Z
5A92B0 ??1ClothingTable@@UAE@XZ
5A9330 ?Allocate@ClothingTable@@UBEPAVDBObj@@XZ
5A9340 ??0ShadePackage@@QAE@N@Z
5A9370 ?GetVal@ShadePackage@@QBENJ@Z
5A9390 ?pack_size@CloObjectEffect@@AAEIXZ
5A93E0 ?pack_size@CloPaletteTemplate@@AAEIXZ
5A9430 ??0CloObjectEffect@@QAE@XZ
5A9450 ??_ECloTextureEffect@@UAEPAXI@Z
5A94B0 ??1CloObjectEffect@@UAE@XZ
5A9500 ??0CloTextureEffect@@QAE@XZ
5A9520 ??0CloPaletteTemplate@@QAE@XZ
5A9540 ??1CloPaletteTemplate@@UAE@XZ
5A9590 ??0CloSubpalEffect@@QAE@XZ
5A95B0 ??4CloSubpalEffect@@QAEAAV0@ABV0@@Z
5A9640 ??4CloObjectEffect@@QAEAAV0@ABV0@@Z
5A9700 ?Pack@CloObjectEffect@@UAEIAAPAXI@Z
5A9780 ?UnPack@CloObjectEffect@@UAEHAAPAXI@Z
5A9890 ?Pack@ContentProfile@@UAEIAAPAXI@Z
5A98C0 ?UnPack@CloTextureEffect@@UAEHAAPAXI@Z
5A9910 ??_ECloPaletteTemplate@@UAEPAXI@Z
5A9930 ??4CloPaletteTemplate@@QAEAAV0@ABV0@@Z
5A99F0 ??_ECloSubpalEffect@@UAEPAXI@Z
5A9AB0 ?Pack@CloPaletteTemplate@@UAEIAAPAXI@Z
5A9B20 ?UnPack@CloPaletteTemplate@@UAEHAAPAXI@Z
5A9C20 ?Pack@CloSubpalEffect@@UAEIAAPAXI@Z
5A9C90 ?UnPack@CloSubpalEffect@@UAEHAAPAXI@Z
5A9D50 ??0CloPaletteTemplate@@QAE@ABV0@@Z
5A9D80 ?pack_size@ClothingBase@@AAEIXZ
5A9DD0 ??0ClothingBase@@QAE@XZ
5A9DF0 ??1ClothingBase@@UAE@XZ
5A9E40 ??4ClothingBase@@QAEAAV0@ABV0@@Z
5A9EF0 ??_ECloObjectEffect@@UAEPAXI@Z
5A9F60 ?ApplyPartAndTextureChanges@ClothingBase@@QBEHAAVObjDesc@@@Z
5AA070 ?Pack@ClothingBase@@UAEIAAPAXI@Z
5AA0E0 ?UnPack@ClothingBase@@UAEHAAPAXI@Z
5AA1E0 ??_EClothingBase@@UAEPAXI@Z
5AA230 ??0ClothingBase@@QAE@ABV0@@Z
5AA260 ?substring@?$PStringBase@D@AC1Legacy@@QBE?AV12@KK@Z
5AA310 ?LowerCaseRemoveUnderscores@EmapToDisplay@@SAHABV?$PStringBase@D@AC1Legacy@@AAV23@@Z
5AA3E0 ?ToString@Position@@QBEIPADI@Z
5AA460 ?FromString@Position@@QAEHQBD@Z
5AA510 ?pack_size@Position@@QAEIXZ
5AA530 ?IsValid@Position@@QBEHXZ
5AA560 ?distance@Position@@QBEMABV1@@Z
5AA5A0 ?xy_distance@Position@@QBEMABV1@@Z
5AA5D0 ?heading@Position@@QBEMABV1@@Z
5AA630 ?determine_quadrant@Position@@QBEKMABV1@@Z
5AA6F0 ?Pack@Position@@UAEIAAPAXI@Z
5AA740 ?UnPack@Position@@UAEHAAPAXI@Z
5AA7A0 ?Serialize@Position@@QAEXAAVArchive@@@Z
5AA7F0 ?PackOrigin@Position@@QBEIAAPAXI@Z
5AA840 ?UnPackOrigin@Position@@QAEHAAPAXI@Z
5AA8A0 ?cylinder_distance@Position@@SAMMMABV1@MM0@Z
5AA960 ?cylinder_distance_no_z@Position@@SAMMABV1@M0@Z
5AA9B0 ?ToDisplayString@Position@@QBE?AV?$PStringBase@D@@XZ
5AAA30 ?get_vars@LandDefs@@SAXAAJ0AAM00111@Z
5AAA90 ?set_height_table@LandDefs@@SAHPAM@Z
5AAAE0 ?heading@LandDefs@@SAMW4Direction@1@@Z
5AAB50 ?get_dir@LandDefs@@SA?AW4Direction@1@JJ@Z
5AABB0 ?get_outside_lcoord@LandDefs@@SAHKABVVector3@AC1Legacy@@AAJ1@Z
5AAC70 ?adjust_to_outside@LandDefs@@SAHAAKAAVVector3@AC1Legacy@@@Z
5AAD60 ?CellidToCoordinateString@LandDefs@@SA?AV?$PStringBase@D@AC1Legacy@@K@Z
5AAE80 ?Pack@Vec2D@@QAEIAAPAXI@Z
5AAEB0 ?UnPack@Vec2D@@QAEHAAPAXI@Z
5AAEE0 ?IsValid@AFrame@@QBEHXZ
5AAFF0 ?Pack@AFrame@@QAEIAAPAXI@Z
5AB060 ?UnPack@AFrame@@QAEHAAPAXI@Z
5AB0D0 ?Pack@RGBColor@@QBEIAAPAXI@Z
5AB130 ?UnPack@RGBColor@@QAEHAAPAXI@Z
5AB150 ?localtoglobal@Plane@@SA?AV1@ABVPosition@@0ABV1@@Z
5AB220 ?intersect_box@Plane@@QBE?AW4Sidedness@@ABVBBox@@@Z
5AB3B0 ?IsEphemeralFlagSet@NetBlobIDUtils@@YA_N_K@Z
5AB3D0 ?GetOrderingType@NetBlobIDUtils@@YA_K_K@Z
5AB3E0 ?GetSequenceID@NetBlobIDUtils@@YA_K_K@Z
5AB3F0 ?MakeInitialSequenceID@NetBlobIDUtils@@YA_KK@Z
5AB420 ?MakeNetBlobID@NetBlobIDUtils@@YA_K_KG0@Z
5AB480 ?NextNonEphemeralSequenceID@NetBlobIDUtils@@YA_K_K@Z
5AB4B0 ?LHSNewerOrderingStamp@NetBlobIDUtils@@YA_N_K0@Z
5AB500 ?GetSinAddr@NetUtils@@YA_NPBDAAUin_addr@@@Z
5AB580 ?GetIPString@NetUtils@@YAXABUsockaddr_in@@AAV?$PStringBase@D@AC1Legacy@@_N@Z
5AB5F0 ??0CNetLayerPacket@@IAE@XZ
5AB6A0 ?Create@CNetLayerPacket@@SAPAV1@XZ
5AB6C0 ?Clear@CNetLayerPacket@@QAEXXZ
5AB7A0 ??_EAllSocketsCrashCleaner@NetInitializer@@UAEPAXI@Z
5AB7C0 ??0NetInitializer@@QAE@XZ
5AB800 ??1NetInitializer@@QAE@XZ
5AB810 ?CrashCleanup@AllSocketsCrashCleaner@NetInitializer@@UAEXXZ
5AB820 ?RegisterOptionalHeaderType@COptionalHeaderFactory@@SAXKP6APAVCOptionalHeader@@AAVCBufferIterator@@@Z@Z
5AB870 ?ReadPrimArray@CBufferIterator@@QAE_NPAKH@Z
5AB8C0 ?AddOptionalHeadersToPacket@COptionalHeaderFactory@@SA_NKPAVNetPacket@@AAVCBufferIterator@@@Z
5AB940 ??0?$CPackObjHeader@VNetError@@$0BAAAAA@$06@@IAE@AAVCBufferIterator@@@Z
5AB9D0 ??0?$COnePrimHeader@$0CAA@$06Usockaddr_in@@@@IAE@Usockaddr_in@@@Z
5ABA20 ??0?$CPackObjHeader@VNetError@@$0CAAAAA@$01@@IAE@AAVCBufferIterator@@@Z
5ABAB0 ?CreateFromStream@CTimeSyncHeader@@SAPAVCOptionalHeader@@AAVCBufferIterator@@@Z
5ABB30 ??1HandshakeWireData@CLogonHeader@@QAE@XZ
5ABB50 ?CreateFromStream@CEchoRequestHeader@@SAPAVCOptionalHeader@@AAVCBufferIterator@@@Z
5ABBB0 ?CreateFromStream@CEchoResponseHeader@@SAPAVCOptionalHeader@@AAVCBufferIterator@@@Z
5ABC40 ?CreateFromStream@CConnectHeader@@SAPAVCOptionalHeader@@AAVCBufferIterator@@@Z
5ABCC0 ?CreateFromStream@?$COnePrimHeader@$0IAAAAAA@$0BA@UCFlowStruct@@@@SAPAVCOptionalHeader@@AAVCBufferIterator@@@Z
5ABD30 ?CreateFromStream@?$CPackObjHeader@VNetError@@$0BAAAAA@$06@@SAPAVCOptionalHeader@@AAVCBufferIterator@@@Z
5ABD60 ?CreateFromStream@?$CSeqIDListHeader@$0BAAA@$0CB@@@SAPAVCOptionalHeader@@AAVCBufferIterator@@@Z
5ABE40 ?CreateFromStream@?$COnePrimHeader@$0EAAA@$00K@@SAPAVCOptionalHeader@@AAVCBufferIterator@@@Z
5ABEA0 ?CreateFromStream@?$CSeqIDListHeader@$0CAAA@$0CB@@@SAPAVCOptionalHeader@@AAVCBufferIterator@@@Z
5ABF80 ?CreateFromStream@?$COnePrimHeader@$0CAAAA@$06_K@@SAPAVCOptionalHeader@@AAVCBufferIterator@@@Z
5ABFF0 ?CreateFromStream@?$CEmptyHeader@$0IAAA@$02@@SAPAVCOptionalHeader@@AAVCBufferIterator@@@Z
5AC030 ?CreateFromStream@?$CEmptyHeader@$0EAA@$06@@SAPAVCOptionalHeader@@AAVCBufferIterator@@@Z
5AC070 ?CreateFromStream@?$COnePrimHeader@$0IAAAA@$0CAAAAAAH@_K@@SAPAVCOptionalHeader@@AAVCBufferIterator@@@Z
5AC0E0 ?CreateFromStream@?$COnePrimHeader@$0BAA@$0GA@UCServerSwitchStruct@@@@SAPAVCOptionalHeader@@AAVCBufferIterator@@@Z
5AC150 ?CreateFromStream@?$COnePrimHeader@$0CAA@$06Usockaddr_in@@@@SAPAVCOptionalHeader@@AAVCBufferIterator@@@Z
5AC1B0 ?CreateFromStream@?$COnePrimHeader@$0IAA@$0EAAAAAGC@UCReferralStruct@@@@SAPAVCOptionalHeader@@AAVCBufferIterator@@@Z
5AC230 ?CreateFromStream@?$COnePrimHeader@$0EAAAAA@$06UCICMDCommandStruct@@@@SAPAVCOptionalHeader@@AAVCBufferIterator@@@Z
5AC2A0 ?CreateFromStream@?$CPackObjHeader@VNetError@@$0CAAAAA@$01@@SAPAVCOptionalHeader@@AAVCBufferIterator@@@Z
5AC2D0 ??0CLogonHeader@@IAE@I@Z
5AC320 ??0CLogonHeader@@IAE@PBEK@Z
5AC370 ??_GCLogonHeader@@UAEPAXI@Z
5AC3A0 ?CreateFromData@CLogonHeader@@SAPAVCOptionalHeader@@ABV?$PStringBase@D@AC1Legacy@@PBVNetAuthenticator@@@Z
5AC470 ?CreateFromStream@CLogonHeader@@SAPAVCOptionalHeader@@AAVCBufferIterator@@@Z
5AC5F0 ??0InterfaceEnumerator@@QAE@XZ
5AC690 ??1InterfaceEnumerator@@QAE@XZ
5AC6B0 ?GetTextureMapChange@ObjDesc@@QBEPAVTextureMapChange@@H@Z
5AC6D0 ?GetAnimPartChange@ObjDesc@@QBEPAVAnimPartChange@@H@Z
5AC6F0 ?RemoveDuplicateSubpalette@ObjDesc@@AAEXPAVSubpalette@@@Z
5AC760 ?RemoveDuplicateTextureMapChange@ObjDesc@@AAEXPAVTextureMapChange@@@Z
5AC7D0 ?RemoveDuplicateAnimPartChange@ObjDesc@@AAEXPAVAnimPartChange@@@Z
5AC840 ?Clear@ObjDesc@@QAEXXZ
5AC8D0 ?Wipe@ObjDesc@@QAEXXZ
5AC9C0 ??0ObjDesc@@QAE@XZ
5ACA00 ??1ObjDesc@@UAE@XZ
5ACA20 ?AddSubpalette@ObjDesc@@QAEHPAVSubpalette@@@Z
5ACAC0 ?AddTextureMapChange@ObjDesc@@QAEHPAVTextureMapChange@@@Z
5ACB30 ?AddAnimPartChange@ObjDesc@@QAEHPAVAnimPartChange@@@Z
5ACBA0 ?pack_size@ObjDesc@@MAEIXZ
5ACC70 ?Pack@ObjDesc@@UAEIAAPAXI@Z
5ACDA0 ?UnPack@ObjDesc@@UAEHAAPAXI@Z
5AD010 ??_GObjDesc@@UAEPAXI@Z
5AD040 ?AddSubpalette@ObjDesc@@QAEHAAVSubpalette@@@Z
5AD0A0 ?AddTextureMapChange@ObjDesc@@QAEHAAVTextureMapChange@@@Z
5AD100 ?AddAnimPartChange@ObjDesc@@QAEHAAVAnimPartChange@@@Z
5AD150 ??YObjDesc@@QAEAAV0@ABV0@@Z
5AD300 ??4ObjDesc@@QAEAAV0@ABV0@@Z
5AD4C0 ?GetSubDataIDs@ObjDesc@@QBEXAAVQualifiedDataIDArray@@@Z
5AD590 ??0ObjDesc@@QAE@ABV0@@Z
5AD5E0 ??0PalSet@@QAE@V?$IDClass@U_tagDataID@@$0CA@$0A@@@@Z
5AD610 ??_EPalSet@@WDA@AEPAXI@Z
5AD620 ?GetPaletteID@PalSet@@QBE?AV?$IDClass@U_tagDataID@@$0CA@$0A@@@N@Z
5AD6A0 ?GetPaletteID_Integral@PalSet@@QBE?AV?$IDClass@U_tagDataID@@$0CA@$0A@@@H@Z
5AD6D0 ?Allocate@PalSet@@UBEPAVDBObj@@XZ
5AD6E0 ?Pack@PalSet@@UAEIAAPAXI@Z
5AD730 ?UnPack@PalSet@@UAEHAAPAXI@Z
5AD810 ??_EPalSet@@UAEPAXI@Z
5AD860 ?IsTalkable@PublicWeenieDesc@@SAHW4ITEM_TYPE@@@Z
5AD870 ?SetPlayerKillerStatus@PublicWeenieDesc@@QAEXK@Z
5AD8D0 ?set_pack_header@PublicWeenieDesc@@AAEXAAK@Z
5ADA90 ??1PublicWeenieDesc@@UAE@XZ
5ADB00 ??_GPublicWeenieDesc@@UAEPAXI@Z
5ADB20 ??4PublicWeenieDesc@@QAEAAV0@ABV0@@Z
5ADD20 ?Reset@PublicWeenieDesc@@QAEXXZ
5ADEB0 ?pack_size@PublicWeenieDesc@@EAEIXZ
5AE120 ?Pack@PublicWeenieDesc@@UAEIAAPAXI@Z
5AE4D0 ??0PublicWeenieDesc@@QAE@XZ
5AE520 ?UnPack@PublicWeenieDesc@@UAEHAAPAXI@Z
5AE8E0 ?replaces@Subpalette@@QBEHABV1@@Z
5AE920 ?supercedes@Subpalette@@QBEHABV1@@Z
5AE950 ?Pack@TextureMapChange@@UAEIAAPAXI@Z
5AE9D0 ?UnPack@TextureMapChange@@UAEHAAPAXI@Z
5AEA30 ?replaces@TextureMapChange@@QBEHABV1@@Z
5AEA60 ?Pack@AnimPartChange@@UAEIAAPAXI@Z
5AEAC0 ?UnPack@AnimPartChange@@UAEHAAPAXI@Z
5AEB00 ?Pack@Subpalette@@UAEIAAPAXI@Z
5AEB60 ?UnPack@Subpalette@@UAEHAAPAXI@Z
5AEBE0 ??0WeenieDesc@@QAE@XZ
5AEBF0 ??1WeenieDesc@@UAE@XZ
5AEC00 ?Add@IDList@@QAEXK@Z
5AEC50 ?GetPlaceInList@IDList@@QAEHK@Z
5AEC80 ?IsInList@IDList@@QAEHK@Z
5AECB0 ?SetCurToNext@IDList@@QAEHXZ
5AECE0 ?GetCurID@IDList@@QAEKXZ
5AECF0 ?GetNodeByNum@IDList@@IAEPAVIDListNode@@H@Z
5AED50 ?RemoveNode@IDList@@IAEHPAVIDListNode@@@Z
5AEDB0 ??0IDList@@QAE@XZ
5AEDD0 ?AddAtNum@IDList@@QAEHKHH@Z
5AEEA0 ?RemoveByID@IDList@@QAEHK@Z
5AEEF0 ?GetByNum@IDList@@QAEKH@Z
5AEF10 ?Clear@IDList@@QAEXXZ
5AEFC0 ?SetCurToNum@IDList@@QAEHH@Z
5AEFF0 ?Pack@IDList@@UAEIAAPAXI@Z
5AF0A0 ?UnPack@IDList@@UAEHAAPAXI@Z
5AF120 ??1IDList@@UAE@XZ
5AF140 ?AddList@IDList@@QAEXAAV1@@Z
5AF1E0 ??_GIDList@@UAEPAXI@Z
5AF210 ??0IDList@@QAE@AAV0@@Z
5AF240 ??0String@@QAE@V?$IDClass@U_tagDataID@@$0CA@$0A@@@@Z
5AF270 ?GetDBOType@String@@UBEKXZ
5AF280 ?Allocate@String@@UBEPAVDBObj@@XZ
5AF290 ??_GString@@UAEPAXI@Z
5AF2E0 ?Serialize@String@@UAEXAAVArchive@@@Z
5AF300 ?get_next_bucket_data@?$OldHashIterator@KK@@IAEPAV?$OldHashData@KK@@XZ
5AF340 ?find@?$OldHashTable@KK@@QBEPAKABK@Z
5AF390 ?verify_num_buckets@?$OldHashTable@KK@@IAEHXZ
5AF3C0 ?SetOpenHouse@RestrictionDB@@QAEXH@Z
5AF3E0 ?Pack@RestrictionDB@@UAEIAAPAXI@Z
5AF450 ?begin@?$OldHashTable@KK@@QBE?AV?$OldHashIterator@KK@@XZ
5AF4A0 ?init@?$OldHashTable@KK@@IAEHXZ
5AF500 ?add@?$OldHashTable@KK@@QAEHABK0@Z
5AF580 ?flush@?$OldHashTable@KK@@QAEXXZ
5AF5D0 ?hash@?$OldHashTable@KK@@MBEIABK@Z
5AF5E0 ?is_keys_equiv@?$OldHashTable@KK@@MBEHABK0@Z
5AF600 ??0?$OldPHashTable@KK@@QAE@XZ
5AF640 ??_E?$OldPHashTable@KK@@WBA@AEPAXI@Z
5AF650 ?Pack@?$OldPHashTable@KK@@UAEIAAPAXI@Z
5AF730 ?pack_size@?$OldPHashTable@KK@@AAEIXZ
5AF7B0 ?GetPackSize@?$OldPHashTable@KK@@UAEIXZ
5AF7C0 ??1?$OldPHashTable@KK@@UAE@XZ
5AF800 ?UnPack@?$OldPHashTable@KK@@UAEHAAPAXI@Z
5AF900 ??_E?$OldHashTable@KK@@UAEPAXI@Z
5AF950 ??_G?$OldPHashTable@KK@@UAEPAXI@Z
